libhs.so.4.2 libhyperscan4.2 #MINVER#
 Crc32c_ComputeBuf@Base 4.2.0
 _ZGVZN5boost3icl16identity_elementINS0_15closed_intervalIjSt4lessEEE5valueEvE6_value@Base 4.2.0
 _ZN3ue210NFABuilderD0Ev@Base 4.2.0
 _ZN3ue210NFABuilderD1Ev@Base 4.2.0
 _ZN3ue210NFABuilderD2Ev@Base 4.2.0
 _ZN3ue210OutfixInfo9get_queueERNS_17QueueIndexFactoryE@Base 4.2.0
 _ZN3ue210OutfixInfoC1EOS0_@Base 4.2.0
 _ZN3ue210OutfixInfoC2EOS0_@Base 4.2.0
 _ZN3ue210ParseErrorD0Ev@Base 4.2.0
 _ZN3ue210ParseErrorD1Ev@Base 4.2.0
 _ZN3ue210ParseErrorD2Ev@Base 4.2.0
 _ZN3ue210RevAccInfoC1Ev@Base 4.2.0
 _ZN3ue210RevAccInfoC2Ev@Base 4.2.0
 _ZN3ue210RevAccInfoD1Ev@Base 4.2.0
 _ZN3ue210RevAccInfoD2Ev@Base 4.2.0
 _ZN3ue210add_vertexERKNS_19NFAGraphVertexPropsERNS_8NGHolderE@Base 4.2.0
 _ZN3ue210add_vertexERNS_8NGHolderE@Base 4.2.0
 _ZN3ue210aliasRolesERNS_13RoseBuildImplEb@Base 4.2.0
 _ZN3ue210assoc_keysISt3mapIjNS_10PureRepeatESt4lessIjESaISt4pairIKjS2_EEEEESt3setINT_8key_typeES3_ISC_ESaISC_EERKSB_@Base 4.2.0
 _ZN3ue210calcDepthsERKNS_8NGHolderERSt6vectorINS_14NFAVertexDepthESaIS4_EE@Base 4.2.0
 _ZN3ue210calcDepthsERKNS_8NGHolderERSt6vectorINS_17NFAVertexRevDepthESaIS4_EE@Base 4.2.0
 _ZN3ue210calcDepthsERKNS_8NGHolderERSt6vectorINS_18NFAVertexBidiDepthESaIS4_EE@Base 4.2.0
 _ZN3ue210copy_bytesIjSaIjEEEPvS2_RKSt6vectorIT_T0_E@Base 4.2.0
 _ZN3ue210copy_bytesImSaImEEEPvS2_RKSt6vectorIT_T0_E@Base 4.2.0
 _ZN3ue210dstate_somD1Ev@Base 4.2.0
 _ZN3ue210dstate_somD2Ev@Base 4.2.0
 _ZN3ue210dumpStringB5cxx11ERKNS_11ue2_literalE@Base 4.2.0
 _ZN3ue210fillHolderEPNS_8NGHolderERKS0_RKSt5dequeIPvSaIS5_EEPN5boost9unordered13unordered_mapIS5_S5_NSA_4hashIS5_EESt8equal_toIS5_ESaISt4pairIKS5_S5_EEEE@Base 4.2.0
 _ZN3ue210findMinCutERNS_8NGHolderERKSt6vectorIySaIyEE@Base 4.2.0
 _ZN3ue210getUcpChamEv@Base 4.2.0
 _ZN3ue210getUcpLisuEv@Base 4.2.0
 _ZN3ue210getUcpMiaoEv@Base 4.2.0
 _ZN3ue210getUcpModiEv@Base 4.2.0
 _ZN3ue210getUcpThaiEv@Base 4.2.0
 _ZN3ue210hash_valueERKNS_7left_idE@Base 4.2.0
 _ZN3ue210hash_valueERKNS_9suffix_idE@Base 4.2.0
 _ZN3ue210isAnchoredERKNS_7left_idE@Base 4.2.0
 _ZN3ue210isAnchoredERKNS_8NGHolderE@Base 4.2.0
 _ZN3ue210isPuffableERKNS_8NGHolderEbRKNS_13ReportManagerERKNS_4GreyE@Base 4.2.0
 _ZN3ue210isSubsetOfERKNS_9CharReachES2_@Base 4.2.0
 _ZN3ue210makeHolderERKNS_11CastleProtoERKNS_14CompileContextE@Base 4.2.0
 _ZN3ue210maxOverlapERKNS_11ue2_literalES2_j@Base 4.2.0
 _ZN3ue210maxOverlapERKNS_15rose_literal_idES2_@Base 4.2.0
 _ZN3ue210mpvCompileERKSt6vectorINS_8raw_puffESaIS1_EES5_RKNS_13ReportManagerE@Base 4.2.0
 _ZN3ue210nfaDumpDotEPK3NFAP8_IO_FILE@Base 4.2.0
 _ZN3ue210onlyOneTopERKNS_8NGHolderE@Base 4.2.0
 _ZN3ue210reduced_crEPvRKNS_8NGHolderERKSt3mapIS0_NS_20BoundedRepeatSummaryESt4lessIS0_ESaISt4pairIKS0_S5_EEE@Base 4.2.0
 _ZN3ue210reduced_crERKNS_8NGHolderERKSt3mapIPvNS_20BoundedRepeatSummaryESt4lessIS4_ESaISt4pairIKS4_S5_EEE@Base 4.2.0
 _ZN3ue210scoreEdgesERKNS_8NGHolderE@Base 4.2.0
 _ZN3ue210splitGraphERKNS_8NGHolderEPvPS0_PN5boost9unordered13unordered_mapIS3_S3_NS5_4hashIS3_EESt8equal_toIS3_ESaISt4pairIKS3_S3_EEEES4_SH_@Base 4.2.0
 _ZN3ue210splitGraphERKNS_8NGHolderERKSt6vectorIPvSaIS4_EEPS0_PN5boost9unordered13unordered_mapIS4_S4_NSA_4hashIS4_EESt8equal_toIS4_ESaISt4pairIKS4_S4_EEEES9_SM_@Base 4.2.0
 _ZN3ue210topo_orderERKN5boost14adjacency_listINS0_5listSES2_NS0_14bidirectionalSENS_17RoseInVertexPropsENS_15RoseInEdgePropsENS0_11no_propertyES2_EE@Base 4.2.0
 _ZN3ue210truffle2crEDv2_xS0_@Base 4.2.0
 _ZN3ue210truffle2crEU8__vectorxS0_@Base 4.2.0
 _ZN3ue211AccelSchemeC1Ev@Base 4.2.0
 _ZN3ue211AccelSchemeC2Ev@Base 4.2.0
 _ZN3ue211CastleProto3addERKNS_10PureRepeatE@Base 4.2.0
 _ZN3ue211CastleProto5eraseEj@Base 4.2.0
 _ZN3ue211CastleProto5mergeERKNS_10PureRepeatE@Base 4.2.0
 _ZN3ue211CastleProtoC1ENS_8nfa_kindERKNS_10PureRepeatE@Base 4.2.0
 _ZN3ue211CastleProtoC2ENS_8nfa_kindERKNS_10PureRepeatE@Base 4.2.0
 _ZN3ue211DumpVisitor3preERKNS_12ComponentEUSE@Base 4.2.0
 _ZN3ue211DumpVisitor3preERKNS_13ComponentByteE@Base 4.2.0
 _ZN3ue211DumpVisitor3preERKNS_14ComponentEmptyE@Base 4.2.0
 _ZN3ue211DumpVisitor3preERKNS_15ComponentRepeatE@Base 4.2.0
 _ZN3ue211DumpVisitor3preERKNS_17ComponentBoundaryE@Base 4.2.0
 _ZN3ue211DumpVisitor3preERKNS_17ComponentSequenceE@Base 4.2.0
 _ZN3ue211DumpVisitor3preERKNS_18ComponentAssertionE@Base 4.2.0
 _ZN3ue211DumpVisitor3preERKNS_18UTF8ComponentClassE@Base 4.2.0
 _ZN3ue211DumpVisitor3preERKNS_19AsciiComponentClassE@Base 4.2.0
 _ZN3ue211DumpVisitor3preERKNS_20ComponentAlternationE@Base 4.2.0
 _ZN3ue211DumpVisitor3preERKNS_20ComponentAtomicGroupE@Base 4.2.0
 _ZN3ue211DumpVisitor3preERKNS_21ComponentWordBoundaryE@Base 4.2.0
 _ZN3ue211DumpVisitor3preERKNS_22ComponentBackReferenceE@Base 4.2.0
 _ZN3ue211DumpVisitor3preERKNS_22ComponentCondReferenceE@Base 4.2.0
 _ZN3ue211DumpVisitor4postERKNS_12ComponentEUSE@Base 4.2.0
 _ZN3ue211DumpVisitor4postERKNS_13ComponentByteE@Base 4.2.0
 _ZN3ue211DumpVisitor4postERKNS_14ComponentEmptyE@Base 4.2.0
 _ZN3ue211DumpVisitor4postERKNS_15ComponentRepeatE@Base 4.2.0
 _ZN3ue211DumpVisitor4postERKNS_17ComponentBoundaryE@Base 4.2.0
 _ZN3ue211DumpVisitor4postERKNS_17ComponentSequenceE@Base 4.2.0
 _ZN3ue211DumpVisitor4postERKNS_18ComponentAssertionE@Base 4.2.0
 _ZN3ue211DumpVisitor4postERKNS_18UTF8ComponentClassE@Base 4.2.0
 _ZN3ue211DumpVisitor4postERKNS_19AsciiComponentClassE@Base 4.2.0
 _ZN3ue211DumpVisitor4postERKNS_20ComponentAlternationE@Base 4.2.0
 _ZN3ue211DumpVisitor4postERKNS_20ComponentAtomicGroupE@Base 4.2.0
 _ZN3ue211DumpVisitor4postERKNS_21ComponentWordBoundaryE@Base 4.2.0
 _ZN3ue211DumpVisitor4postERKNS_22ComponentBackReferenceE@Base 4.2.0
 _ZN3ue211DumpVisitor4postERKNS_22ComponentCondReferenceE@Base 4.2.0
 _ZN3ue211DumpVisitor6duringERKNS_12ComponentEUSE@Base 4.2.0
 _ZN3ue211DumpVisitor6duringERKNS_13ComponentByteE@Base 4.2.0
 _ZN3ue211DumpVisitor6duringERKNS_14ComponentEmptyE@Base 4.2.0
 _ZN3ue211DumpVisitor6duringERKNS_15ComponentRepeatE@Base 4.2.0
 _ZN3ue211DumpVisitor6duringERKNS_17ComponentBoundaryE@Base 4.2.0
 _ZN3ue211DumpVisitor6duringERKNS_17ComponentSequenceE@Base 4.2.0
 _ZN3ue211DumpVisitor6duringERKNS_18ComponentAssertionE@Base 4.2.0
 _ZN3ue211DumpVisitor6duringERKNS_18UTF8ComponentClassE@Base 4.2.0
 _ZN3ue211DumpVisitor6duringERKNS_19AsciiComponentClassE@Base 4.2.0
 _ZN3ue211DumpVisitor6duringERKNS_20ComponentAlternationE@Base 4.2.0
 _ZN3ue211DumpVisitor6duringERKNS_20ComponentAtomicGroupE@Base 4.2.0
 _ZN3ue211DumpVisitor6duringERKNS_21ComponentWordBoundaryE@Base 4.2.0
 _ZN3ue211DumpVisitor6duringERKNS_22ComponentBackReferenceE@Base 4.2.0
 _ZN3ue211DumpVisitor6duringERKNS_22ComponentCondReferenceE@Base 4.2.0
 _ZN3ue211DumpVisitorD0Ev@Base 4.2.0
 _ZN3ue211DumpVisitorD1Ev@Base 4.2.0
 _ZN3ue211DumpVisitorD2Ev@Base 4.2.0
 _ZN3ue211GoughSSAVar13clear_outputsEv@Base 4.2.0
 _ZN3ue211GoughSSAVar9clear_allEv@Base 4.2.0
 _ZN3ue211GoughSSAVarD0Ev@Base 4.2.0
 _ZN3ue211GoughSSAVarD1Ev@Base 4.2.0
 _ZN3ue211GoughSSAVarD2Ev@Base 4.2.0
 _ZN3ue211LeftEngInfo5resetEv@Base 4.2.0
 _ZN3ue211LeftEngInfoC1ERKS0_@Base 4.2.0
 _ZN3ue211LeftEngInfoC2ERKS0_@Base 4.2.0
 _ZN3ue211LeftEngInfoD1Ev@Base 4.2.0
 _ZN3ue211LeftEngInfoD2Ev@Base 4.2.0
 _ZN3ue211all_reportsERKNS_10OutfixInfoE@Base 4.2.0
 _ZN3ue211all_reportsERKNS_11CastleProtoE@Base 4.2.0
 _ZN3ue211all_reportsERKNS_7raw_dfaE@Base 4.2.0
 _ZN3ue211all_reportsERKNS_8NGHolderE@Base 4.2.0
 _ZN3ue211all_reportsERKNS_9suffix_idE@Base 4.2.0
 _ZN3ue211buildCastleERKNS_11CastleProtoERKSt3mapIjSt6vectorIS4_INS_9CharReachESaIS5_EESaIS7_EESt4lessIjESaISt4pairIKjS9_EEERKNS_14CompileContextERKNS_13ReportManagerE@Base 4.2.0
 _ZN3ue211can_exhaustERKNS_8NGHolderERKNS_13ReportManagerE@Base 4.2.0
 _ZN3ue211clear_graphERNS_8NGHolderE@Base 4.2.0
 _ZN3ue211cloneHolderERKNS_8NGHolderE@Base 4.2.0
 _ZN3ue211cloneHolderERNS_8NGHolderERKS0_@Base 4.2.0
 _ZN3ue211cloneHolderERNS_8NGHolderERKS0_PN5boost9unordered13unordered_mapIPvS7_NS4_4hashIS7_EESt8equal_toIS7_ESaISt4pairIKS7_S7_EEEE@Base 4.2.0
 _ZN3ue211countStatesERKNS_8NGHolderERKN5boost9unordered13unordered_mapIPvjNS3_4hashIS6_EESt8equal_toIS6_ESaISt4pairIKS6_jEEEEb@Base 4.2.0
 _ZN3ue211dumpScratchEPK10hs_scratchP8_IO_FILE@Base 4.2.0
 _ZN3ue211dump_blocksERKSt3mapINS_13gough_edge_idESt6vectorI9gough_insSaIS3_EESt4lessIS1_ESaISt4pairIKS1_S5_EEERKNSt7__cxx1112basic_stringIcSt11char_traitsIcESaIcEEERKNS_4GreyE@Base 4.2.0
 _ZN3ue211findRepeatsERKNS_8NGHolderEjPSt6vectorINS_15GraphRepeatInfoESaIS4_EE@Base 4.2.0
 _ZN3ue211getUcpBamumEv@Base 4.2.0
 _ZN3ue211getUcpBatakEv@Base 4.2.0
 _ZN3ue211getUcpBuhidEv@Base 4.2.0
 _ZN3ue211getUcpGreekEv@Base 4.2.0
 _ZN3ue211getUcpKhmerEv@Base 4.2.0
 _ZN3ue211getUcpL_andEv@Base 4.2.0
 _ZN3ue211getUcpLatinEv@Base 4.2.0
 _ZN3ue211getUcpLimbuEv@Base 4.2.0
 _ZN3ue211getUcpOghamEv@Base 4.2.0
 _ZN3ue211getUcpOriyaEv@Base 4.2.0
 _ZN3ue211getUcpRunicEv@Base 4.2.0
 _ZN3ue211getUcpTakriEv@Base 4.2.0
 _ZN3ue211getUcpTamilEv@Base 4.2.0
 _ZN3ue211hash_holderERKNS_8NGHolderE@Base 4.2.0
 _ZN3ue211hwlmLiteralC1ERKNSt7__cxx1112basic_stringIcSt11char_traitsIcESaIcEEEbbjyRKSt6vectorIhSaIhEESD_@Base 4.2.0
 _ZN3ue211hwlmLiteralC2ERKNSt7__cxx1112basic_stringIcSt11char_traitsIcESaIcEEEbbjyRKSt6vectorIhSaIhEESD_@Base 4.2.0
 _ZN3ue211hwlmLiteralD1Ev@Base 4.2.0
 _ZN3ue211hwlmLiteralD2Ev@Base 4.2.0
 _ZN3ue211isValidUtf8EPKc@Base 4.2.0
 _ZN3ue211isutf8asciiERKNS_9CharReachE@Base 4.2.0
 _ZN3ue211isutf8startERKNS_9CharReachE@Base 4.2.0
 _ZN3ue211makeCastlesERNS_13RoseBuildImplE@Base 4.2.0
 _ZN3ue211make_nocaseEPNS_11ue2_literalE@Base 4.2.0
 _ZN3ue211mergeCastleERNS_11CastleProtoERKS0_RSt3mapIjjSt4lessIjESaISt4pairIKjjEEE@Base 4.2.0
 _ZN3ue211minLenCountERKSt6vectorINS_11hwlmLiteralESaIS1_EEPm@Base 4.2.0
 _ZN3ue211nfaDumpTextEPK3NFAP8_IO_FILE@Base 4.2.0
 _ZN3ue211pruneReportERNS_8NGHolderEj@Base 4.2.0
 _ZN3ue211raw_som_dfa20stripExtraEodReportsEv@Base 4.2.0
 _ZN3ue211raw_som_dfaD0Ev@Base 4.2.0
 _ZN3ue211raw_som_dfaD1Ev@Base 4.2.0
 _ZN3ue211raw_som_dfaD2Ev@Base 4.2.0
 _ZN3ue211reduceGraphERNS_8NGHolderE8som_typebRKNS_14CompileContextE@Base 4.2.0
 _ZN3ue211remove_edgeEPvS0_RNS_8NGHolderE@Base 4.2.0
 _ZN3ue211remove_edgeERKN5boost6detail14edge_desc_implINS0_17bidirectional_tagEPvEERNS_8NGHolderE@Base 4.2.0
 _ZN3ue211roseHasTopsERKN5boost14adjacency_listINS0_5listSES2_NS0_14bidirectionalSENS_15RoseVertexPropsENS_13RoseEdgePropsES2_S2_EEPv@Base 4.2.0
 _ZN3ue211roseQualityEPK10RoseEngine@Base 4.2.0
 _ZN3ue211setReportIdERNS_8NGHolderEj@Base 4.2.0
 _ZN3ue211smwrDumpNFAEPK16SmallWriteEnginebRKNSt7__cxx1112basic_stringIcSt11char_traitsIcESaIcEEE@Base 4.2.0
 _ZN3ue211ue2_literal5eraseEmm@Base 4.2.0
 _ZN3ue211ue2_literal9push_backEcb@Base 4.2.0
 _ZN3ue211ue2_literalC1ERKNSt7__cxx1112basic_stringIcSt11char_traitsIcESaIcEEEb@Base 4.2.0
 _ZN3ue211ue2_literalC1ERKS0_@Base 4.2.0
 _ZN3ue211ue2_literalC1Ecb@Base 4.2.0
 _ZN3ue211ue2_literalC2ERKNSt7__cxx1112basic_stringIcSt11char_traitsIcESaIcEEEb@Base 4.2.0
 _ZN3ue211ue2_literalC2ERKS0_@Base 4.2.0
 _ZN3ue211ue2_literalC2Ecb@Base 4.2.0
 _ZN3ue211ue2_literalD1Ev@Base 4.2.0
 _ZN3ue211ue2_literalD2Ev@Base 4.2.0
 _ZN3ue211ue2_literalpLERKS0_@Base 4.2.0
 _ZN3ue211upperStringERNSt7__cxx1112basic_stringIcSt11char_traitsIcESaIcEEE@Base 4.2.0
 _ZN3ue212CodePointSet8setRangeEjj@Base 4.2.0
 _ZN3ue212CompileError18setExpressionIndexEj@Base 4.2.0
 _ZN3ue212CompileErrorC1ERKNSt7__cxx1112basic_stringIcSt11char_traitsIcESaIcEEE@Base 4.2.0
 _ZN3ue212CompileErrorC1EjRKNSt7__cxx1112basic_stringIcSt11char_traitsIcESaIcEEE@Base 4.2.0
 _ZN3ue212CompileErrorC2ERKNSt7__cxx1112basic_stringIcSt11char_traitsIcESaIcEEE@Base 4.2.0
 _ZN3ue212CompileErrorC2EjRKNSt7__cxx1112basic_stringIcSt11char_traitsIcESaIcEEE@Base 4.2.0
 _ZN3ue212CompileErrorD0Ev@Base 4.2.0
 _ZN3ue212CompileErrorD1Ev@Base 4.2.0
 _ZN3ue212CompileErrorD2Ev@Base 4.2.0
 _ZN3ue212ComponentEUS13notePositionsERNS_18GlushkovBuildStateE@Base 4.2.0
 _ZN3ue212ComponentEUS14buildFollowSetERNS_18GlushkovBuildStateERKSt6vectorINS_12PositionInfoESaIS4_EE@Base 4.2.0
 _ZN3ue212ComponentEUS6acceptERNS_16ComponentVisitorE@Base 4.2.0
 _ZN3ue212ComponentEUSC1EjRKNS_9ParseModeE@Base 4.2.0
 _ZN3ue212ComponentEUSC2EjRKNS_9ParseModeE@Base 4.2.0
 _ZN3ue212ComponentEUSD0Ev@Base 4.2.0
 _ZN3ue212ComponentEUSD1Ev@Base 4.2.0
 _ZN3ue212ComponentEUSD2Ev@Base 4.2.0
 _ZN3ue212aligned_freeEPv@Base 4.2.0
 _ZN3ue212assign_slotsERN5boost14adjacency_listINS0_4vecSES2_NS0_14bidirectionalSENS_16GoughVertexPropsENS_14GoughEdgePropsENS_15GoughGraphPropsENS0_5listSEEERKNS_4GreyE@Base 4.2.0
 _ZN3ue212buildWrapperERNS_13ReportManagerERKNS_14CompileContextERKNS_16ParsedExpressionE@Base 4.2.0
 _ZN3ue212chooseEngineERKNS_8target_tERKSt6vectorINS_11hwlmLiteralESaIS4_EEb@Base 4.2.0
 _ZN3ue212clearReportsERNS_8NGHolderE@Base 4.2.0
 _ZN3ue212clear_vertexEPvRNS_8NGHolderE@Base 4.2.0
 _ZN3ue212clone_vertexERNS_8NGHolderEPv@Base 4.2.0
 _ZN3ue212constructLBRERKNS_11CastleProtoERKSt6vectorIS3_INS_9CharReachESaIS4_EESaIS6_EERKNS_14CompileContextERKNS_13ReportManagerE@Base 4.2.0
 _ZN3ue212constructLBRERKNS_8NGHolderERKSt6vectorIS3_INS_9CharReachESaIS4_EESaIS6_EERKNS_14CompileContextERKNS_13ReportManagerE@Base 4.2.0
 _ZN3ue212constructNFAERKNS_8NGHolderEPKNS_13ReportManagerERKSt3mapIjjSt4lessIjESaISt4pairIKjjEEERKS6_IjSt6vectorISG_INS_9CharReachESaISH_EESaISJ_EES8_SaIS9_ISA_SL_EEEbRKNS_14CompileContextE@Base 4.2.0
 _ZN3ue212constructNFAERKNS_8NGHolderEPKNS_13ReportManagerERKSt3mapIjjSt4lessIjESaISt4pairIKjjEEERKS6_IjSt6vectorISG_INS_9CharReachESaISH_EESaISJ_EES8_SaIS9_ISA_SL_EEEbjRKNS_14CompileContextE@Base 4.2.0
 _ZN3ue212createVertexEPNS_13RoseBuildImplEPvjjjmRKNS_8flat_setIjSt4lessIjESaIjEEE@Base 4.2.0
 _ZN3ue212describeEdgeEP8_IO_FILEPKtt@Base 4.2.0
 _ZN3ue212dumpAccelDotEP8_IO_FILEtPK8AccelAux@Base 4.2.0
 _ZN3ue212escapeStringB5cxx11ERKNS_11ue2_literalE@Base 4.2.0
 _ZN3ue212escapeStringERKNSt7__cxx1112basic_stringIcSt11char_traitsIcESaIcEEE@Base 4.2.0
 _ZN3ue212findMaxWidthERKNS_11CastleProtoE@Base 4.2.0
 _ZN3ue212findMaxWidthERKNS_11CastleProtoEj@Base 4.2.0
 _ZN3ue212findMaxWidthERKNS_7left_idE@Base 4.2.0
 _ZN3ue212findMaxWidthERKNS_8NGHolderE@Base 4.2.0
 _ZN3ue212findMaxWidthERKNS_8NGHolderEj@Base 4.2.0
 _ZN3ue212findMaxWidthERKNS_9suffix_idE@Base 4.2.0
 _ZN3ue212findMaxWidthERKNS_9suffix_idEj@Base 4.2.0
 _ZN3ue212findMinWidthERKNS_11CastleProtoE@Base 4.2.0
 _ZN3ue212findMinWidthERKNS_11CastleProtoEj@Base 4.2.0
 _ZN3ue212findMinWidthERKNS_13RoseBuildImplENS_18rose_literal_tableE@Base 4.2.0
 _ZN3ue212findMinWidthERKNS_7left_idE@Base 4.2.0
 _ZN3ue212findMinWidthERKNS_8NGHolderE@Base 4.2.0
 _ZN3ue212findMinWidthERKNS_8NGHolderEj@Base 4.2.0
 _ZN3ue212findMinWidthERKNS_9suffix_idE@Base 4.2.0
 _ZN3ue212findMinWidthERKNS_9suffix_idEj@Base 4.2.0
 _ZN3ue212getUcpArabicEv@Base 4.2.0
 _ZN3ue212getUcpBrahmiEv@Base 4.2.0
 _ZN3ue212getUcpCarianEv@Base 4.2.0
 _ZN3ue212getUcpChakmaEv@Base 4.2.0
 _ZN3ue212getUcpCommonEv@Base 4.2.0
 _ZN3ue212getUcpCopticEv@Base 4.2.0
 _ZN3ue212getUcpGothicEv@Base 4.2.0
 _ZN3ue212getUcpHangulEv@Base 4.2.0
 _ZN3ue212getUcpHebrewEv@Base 4.2.0
 _ZN3ue212getUcpKaithiEv@Base 4.2.0
 _ZN3ue212getUcpKhojkiEv@Base 4.2.0
 _ZN3ue212getUcpLepchaEv@Base 4.2.0
 _ZN3ue212getUcpLycianEv@Base 4.2.0
 _ZN3ue212getUcpLydianEv@Base 4.2.0
 _ZN3ue212getUcpRejangEv@Base 4.2.0
 _ZN3ue212getUcpSyriacEv@Base 4.2.0
 _ZN3ue212getUcpTai_LeEv@Base 4.2.0
 _ZN3ue212getUcpTeluguEv@Base 4.2.0
 _ZN3ue212getUcpThaanaEv@Base 4.2.0
 _ZN3ue212goughCompileERNS_11raw_som_dfaEhRKNS_14CompileContextERKNS_13ReportManagerE@Base 4.2.0
 _ZN3ue212hasBigCyclesERKNS_8NGHolderE@Base 4.2.0
 _ZN3ue212improveGraphERNS_8NGHolderE8som_type@Base 4.2.0
 _ZN3ue212inSameRegionINS_8NGHolderEEEbRKT_PvS5_RKN5boost9unordered13unordered_mapIS5_jNS6_4hashIS5_EESt8equal_toIS5_ESaISt4pairIKS5_jEEEE@Base 4.2.0
 _ZN3ue212isPureRepeatERKNS_8NGHolderERNS_10PureRepeatE@Base 4.2.0
 _ZN3ue212is_subset_ofINS_8flat_setIjSt4lessIjESaIjEEES5_EEbRKT_RKT0_@Base 4.2.0
 _ZN3ue212is_subset_ofISt3setIPvSt4lessIS2_ESaIS2_EES6_EEbRKT_RKT0_@Base 4.2.0
 _ZN3ue212mergeAllDfasERKSt6vectorIPKNS_7raw_dfaESaIS3_EEmPKNS_13ReportManagerERKNS_4GreyE@Base 4.2.0
 _ZN3ue212mergeNfaPairERNS_8NGHolderES1_PKNS_13ReportManagerERKNS_14CompileContextE@Base 4.2.0
 _ZN3ue212mergeTwoDfasEPKNS_7raw_dfaES2_mPKNS_13ReportManagerERKNS_4GreyE@Base 4.2.0
 _ZN3ue212nfaFindAccelERKNS_8NGHolderERKSt6vectorIPvSaIS4_EERKS3_INS_9CharReachESaIS9_EERKSt3mapIS4_NS_20BoundedRepeatSummaryESt4lessIS4_ESaISt4pairIKS4_SF_EEEbb@Base 4.2.0
 _ZN3ue212num_verticesERKNS_8NGHolderE@Base 4.2.0
 _ZN3ue212num_verticesERNS_8NGHolderE@Base 4.2.0
 _ZN3ue212numberStatesERNS_8NGHolderERKSt3mapIjPvSt4lessIjESaISt4pairIKjS3_EEE@Base 4.2.0
 _ZN3ue212pruneUselessERN5boost14adjacency_listINS0_5listSES2_NS0_14bidirectionalSENS_17RoseInVertexPropsENS_15RoseInEdgePropsENS0_11no_propertyES2_EE@Base 4.2.0
 _ZN3ue212pruneUselessERNS_8NGHolderEb@Base 4.2.0
 _ZN3ue212remove_edgesIN9__gnu_cxx17__normal_iteratorIPKN5boost6detail14edge_desc_implINS3_17bidirectional_tagEPvEESt6vectorIS8_SaIS8_EEEEEEvT_SF_RNS_8NGHolderEb@Base 4.2.0
 _ZN3ue212roseDumpTextEPK10RoseEngineP8_IO_FILE@Base 4.2.0
 _ZN3ue212smwrDumpTextEPK16SmallWriteEngineP8_IO_FILE@Base 4.2.0
 _ZN3ue212splitOffRoseERNS_9RoseBuildERKNS_8NGHolderEbRKNS_14CompileContextE@Base 4.2.0
 _ZN3ue212uncalcLeavesERNS_13RoseBuildImplE@Base 4.2.0
 _ZN3ue213ComponentByte13notePositionsERNS_18GlushkovBuildStateE@Base 4.2.0
 _ZN3ue213ComponentByte14buildFollowSetERNS_18GlushkovBuildStateERKSt6vectorINS_12PositionInfoESaIS4_EE@Base 4.2.0
 _ZN3ue213ComponentByte6acceptERNS_16ComponentVisitorE@Base 4.2.0
 _ZN3ue213ComponentByteC1Ev@Base 4.2.0
 _ZN3ue213ComponentByteC2Ev@Base 4.2.0
 _ZN3ue213ComponentByteD0Ev@Base 4.2.0
 _ZN3ue213ComponentByteD1Ev@Base 4.2.0
 _ZN3ue213ComponentByteD2Ev@Base 4.2.0
 _ZN3ue213ReportManager11assignDkeysEPKNS_9RoseBuildE@Base 4.2.0
 _ZN3ue213ReportManager13getInternalIdERKNS_6ReportE@Base 4.2.0
 _ZN3ue213ReportManager16setProgramOffsetEjj@Base 4.2.0
 _ZN3ue213ReportManager17getExhaustibleKeyEj@Base 4.2.0
 _ZN3ue213ReportManager17registerExtReportEjRKNS_20external_report_infoE@Base 4.2.0
 _ZN3ue213ReportManager22getBasicInternalReportERKNS_9NGWrapperEi@Base 4.2.0
 _ZN3ue213ReportManager29getUnassociatedExhaustibleKeyEv@Base 4.2.0
 _ZN3ue213ReportManagerC1ERKNS_4GreyE@Base 4.2.0
 _ZN3ue213ReportManagerC2ERKNS_4GreyE@Base 4.2.0
 _ZN3ue213RoseBuildImpl11cloneVertexEPv@Base 4.2.0
 _ZN3ue213RoseBuildImpl12addChainTailERKNS_8raw_puffEPjS4_@Base 4.2.0
 _ZN3ue213RoseBuildImpl12addSombeRoseERKN5boost14adjacency_listINS1_5listSES3_NS1_14bidirectionalSENS_17RoseInVertexPropsENS_15RoseInEdgePropsENS1_11no_propertyES3_EE@Base 4.2.0
 _ZN3ue213RoseBuildImpl12getLiteralIdERKNS_11ue2_literalERKSt6vectorIhSaIhEES8_jNS_18rose_literal_tableE@Base 4.2.0
 _ZN3ue213RoseBuildImpl12getLiteralIdERKNS_11ue2_literalEjNS_18rose_literal_tableE@Base 4.2.0
 _ZN3ue213RoseBuildImpl14removeVerticesERKSt6vectorIPvSaIS2_EE@Base 4.2.0
 _ZN3ue213RoseBuildImpl15getNewLiteralIdEv@Base 4.2.0
 _ZN3ue213RoseBuildImpl15getNewNfaReportEv@Base 4.2.0
 _ZN3ue213RoseBuildImpl16buildFinalEngineEj@Base 4.2.0
 _ZN3ue213RoseBuildImpl16renumberVerticesEv@Base 4.2.0
 _ZN3ue213RoseBuildImpl18addAnchoredAcyclicERKNS_8NGHolderE@Base 4.2.0
 _ZN3ue213RoseBuildImpl19assignGroupsToRolesEv@Base 4.2.0
 _ZN3ue213RoseBuildImpl22assignGroupsToLiteralsEv@Base 4.2.0
 _ZN3ue213RoseBuildImpl22findTransientLeftfixesEv@Base 4.2.0
 _ZN3ue213RoseBuildImpl22handleMixedSensitivityEv@Base 4.2.0
 _ZN3ue213RoseBuildImpl3addEbRKSt6vectorINS_9CharReachESaIS2_EERKNS_8flat_setIjSt4lessIjESaIjEEE@Base 4.2.0
 _ZN3ue213RoseBuildImpl3addEbbRKNS_11ue2_literalERKNS_8flat_setIjSt4lessIjESaIjEEE@Base 4.2.0
 _ZN3ue213RoseBuildImpl6setSomEv@Base 4.2.0
 _ZN3ue213RoseBuildImpl7addMaskERKSt6vectorINS_9CharReachESaIS2_EERKNS_8flat_setIjSt4lessIjESaIjEEEbb@Base 4.2.0
 _ZN3ue213RoseBuildImpl7addRoseERKN5boost14adjacency_listINS1_5listSES3_NS1_14bidirectionalSENS_17RoseInVertexPropsENS_15RoseInEdgePropsENS1_11no_propertyES3_EEbb@Base 4.2.0
 _ZN3ue213RoseBuildImpl9addOutfixERKNS_8NGHolderE@Base 4.2.0
 _ZN3ue213RoseBuildImpl9addOutfixERKNS_8NGHolderERKNS_11raw_som_dfaE@Base 4.2.0
 _ZN3ue213RoseBuildImpl9addOutfixERKNS_8raw_puffE@Base 4.2.0
 _ZN3ue213RoseBuildImpl9buildRoseEj@Base 4.2.0
 _ZN3ue213RoseBuildImplC1ERNS_13ReportManagerERNS_14SomSlotManagerERKNS_14CompileContextERKNS_15BoundaryReportsE@Base 4.2.0
 _ZN3ue213RoseBuildImplC2ERNS_13ReportManagerERNS_14SomSlotManagerERKNS_14CompileContextERKNS_15BoundaryReportsE@Base 4.2.0
 _ZN3ue213RoseBuildImplD0Ev@Base 4.2.0
 _ZN3ue213RoseBuildImplD1Ev@Base 4.2.0
 _ZN3ue213RoseBuildImplD2Ev@Base 4.2.0
 _ZN3ue213RoseDedupeAuxD0Ev@Base 4.2.0
 _ZN3ue213RoseDedupeAuxD1Ev@Base 4.2.0
 _ZN3ue213RoseDedupeAuxD2Ev@Base 4.2.0
 _ZN3ue213addExpressionERNS_2NGEjPKcjPK11hs_expr_extj@Base 4.2.0
 _ZN3ue213appendLiteralERNS_8NGHolderERKNS_11ue2_literalE@Base 4.2.0
 _ZN3ue213assignRegionsERKNS_8NGHolderE@Base 4.2.0
 _ZN3ue213buildAccelAuxERKNS_9AccelInfoEP8AccelAux@Base 4.2.0
 _ZN3ue213createUnGraphIN5boost14adjacency_listINS1_5listSES3_NS1_14bidirectionalSENS_19NFAGraphVertexPropsENS_17NFAGraphEdgePropsENS1_11no_propertyES3_EEEEvRKT_bbRNS2_INS1_4setSES3_NS1_11undirectedSENS1_8propertyINS1_14vertex_index_tEjS7_EES7_S7_S3_EERNS1_9unordered13unordered_mapIPvSL_NS1_4hashISL_EESt8equal_toISL_ESaISt4pairIKSL_SL_EEEERNSK_IjSL_NSM_IjEESO_IjESaISQ_IKjSL_EEEE@Base 4.2.0
 _ZN3ue213describeClassB5cxx11ERKNS_9CharReachEmNS_11cc_output_tE@Base 4.2.0
 _ZN3ue213describeClassEP8_IO_FILERKNS_9CharReachEmNS_11cc_output_tE@Base 4.2.0
 _ZN3ue213describeClassERSoRKNS_9CharReachEmNS_11cc_output_tE@Base 4.2.0
 _ZN3ue213doSomWithHaigERNS_2NGERNS_8NGHolderERKNS_9NGWrapperEj8som_type@Base 4.2.0
 _ZN3ue213dumpAccelInfoEP8_IO_FILERK8AccelAux@Base 4.2.0
 _ZN3ue213dumpAccelTextEP8_IO_FILEPK8AccelAux@Base 4.2.0
 _ZN3ue213dumpGraphImplIN5boost14adjacency_listINS1_5listSES3_NS1_14bidirectionalSENS_19NFAGraphVertexPropsENS_17NFAGraphEdgePropsENS1_11no_propertyES3_EEEEvPKcRKT_@Base 4.2.0
 _ZN3ue213dumpRoseGraphERKNS_9RoseBuildEPK10RoseEnginePKc@Base 4.2.0
 _ZN3ue213execute_graphERKNS_8NGHolderERKNS_11ue2_literalERKNS_8flat_setIPvSt4lessIS7_ESaIS7_EEEb@Base 4.2.0
 _ZN3ue213execute_graphERKNS_8NGHolderERKSt6vectorINS_9CharReachESaIS4_EERKNS_8flat_setIPvSt4lessISA_ESaISA_EEE@Base 4.2.0
 _ZN3ue213execute_graphERKNS_8NGHolderES2_RKNS_8flat_setIPvSt4lessIS4_ESaIS4_EEE@Base 4.2.0
 _ZN3ue213execute_graphERKNS_8NGHolderES2_RKNS_8flat_setIPvSt4lessIS4_ESaIS4_EEESA_@Base 4.2.0
 _ZN3ue213fdrBuildTableERKSt6vectorINS_11hwlmLiteralESaIS1_EEbRKNS_8target_tERKNS_4GreyEPNS_20hwlmStreamingControlE@Base 4.2.0
 _ZN3ue213fdrPrintStatsEPK3FDRP8_IO_FILE@Base 4.2.0
 _ZN3ue213findMaxOffsetERKNS_8NGHolderERKNS_13ReportManagerE@Base 4.2.0
 _ZN3ue213findMaxOffsetERKSt3setIjSt4lessIjESaIjEERKNS_13ReportManagerE@Base 4.2.0
 _ZN3ue213findSquashersERKNS_8NGHolderE8som_type@Base 4.2.0
 _ZN3ue213getLiteralSetERKNS_8NGHolderERKN5boost6detail14edge_desc_implINS3_17bidirectional_tagEPvEE@Base 4.2.0
 _ZN3ue213getLiteralSetERKNS_8NGHolderERKPvb@Base 4.2.0
 _ZN3ue213getUcpAvestanEv@Base 4.2.0
 _ZN3ue213getUcpBengaliEv@Base 4.2.0
 _ZN3ue213getUcpBrailleEv@Base 4.2.0
 _ZN3ue213getUcpCypriotEv@Base 4.2.0
 _ZN3ue213getUcpDeseretEv@Base 4.2.0
 _ZN3ue213getUcpElbasanEv@Base 4.2.0
 _ZN3ue213getUcpGranthaEv@Base 4.2.0
 _ZN3ue213getUcpHanunooEv@Base 4.2.0
 _ZN3ue213getUcpKannadaEv@Base 4.2.0
 _ZN3ue213getUcpMandaicEv@Base 4.2.0
 _ZN3ue213getUcpMyanmarEv@Base 4.2.0
 _ZN3ue213getUcpOsmanyaEv@Base 4.2.0
 _ZN3ue213getUcpSharadaEv@Base 4.2.0
 _ZN3ue213getUcpShavianEv@Base 4.2.0
 _ZN3ue213getUcpSiddhamEv@Base 4.2.0
 _ZN3ue213getUcpSinhalaEv@Base 4.2.0
 _ZN3ue213getUcpTagalogEv@Base 4.2.0
 _ZN3ue213getUcpTibetanEv@Base 4.2.0
 _ZN3ue213getUcpTirhutaEv@Base 4.2.0
 _ZN3ue213has_accel_dfaEPK3NFA@Base 4.2.0
 _ZN3ue213isRegionEntryINS_8NGHolderEEEbRKT_PvRKN5boost9unordered13unordered_mapIS5_jNS6_4hashIS5_EESt8equal_toIS5_ESaISt4pairIKS5_jEEEE@Base 4.2.0
 _ZN3ue213make_caselessEPNS_12CodePointSetE@Base 4.2.0
 _ZN3ue213make_caselessEPNS_9CharReachE@Base 4.2.0
 _ZN3ue213mergeOutfixesERNS_13RoseBuildImplE@Base 4.2.0
 _ZN3ue213mergePuffixesERNS_13RoseBuildImplE@Base 4.2.0
 _ZN3ue213nfaCheckAccelERKNS_8NGHolderEPvRKSt6vectorINS_9CharReachESaIS5_EERKSt3mapIS3_NS_20BoundedRepeatSummaryESt4lessIS3_ESaISt4pairIKS3_SB_EEEPNS_11AccelSchemeEb@Base 4.2.0
 _ZN3ue213nfa_type_nameE13NFAEngineType@Base 4.2.0
 _ZN3ue213prefilterTreeERSt10unique_ptrINS_9ComponentESt14default_deleteIS1_EERKNS_9ParseModeE@Base 4.2.0
 _ZN3ue213remove_vertexEPvRNS_8NGHolderE@Base 4.2.0
 _ZN3ue213reverseHolderERKNS_8NGHolderERS0_@Base 4.2.0
 _ZN3ue213roseCheckRoseERKN5boost14adjacency_listINS0_5listSES2_NS0_14bidirectionalSENS_17RoseInVertexPropsENS_15RoseInEdgePropsENS0_11no_propertyES2_EEbRKNS_13ReportManagerERKNS_14CompileContextE@Base 4.2.0
 _ZN3ue213splitOffPuffsERNS_9RoseBuildERNS_13ReportManagerERNS_8NGHolderEbRKNS_14CompileContextE@Base 4.2.0
 _ZN3ue213unmakeCastlesERNS_13RoseBuildImplE@Base 4.2.0
 _ZN3ue214CompileContextC1EbbRKNS_8target_tERKNS_4GreyE@Base 4.2.0
 _ZN3ue214CompileContextC2EbbRKNS_8target_tERKNS_4GreyE@Base 4.2.0
 _ZN3ue214ComponentClass6negateEv@Base 4.2.0
 _ZN3ue214ComponentClass7addDashEv@Base 4.2.0
 _ZN3ue214ComponentClassC1ERKNS_9ParseModeE@Base 4.2.0
 _ZN3ue214ComponentClassC2ERKNS_9ParseModeE@Base 4.2.0
 _ZN3ue214ComponentClassD0Ev@Base 4.2.0
 _ZN3ue214ComponentClassD1Ev@Base 4.2.0
 _ZN3ue214ComponentClassD2Ev@Base 4.2.0
 _ZN3ue214ComponentEmpty13notePositionsERNS_18GlushkovBuildStateE@Base 4.2.0
 _ZN3ue214ComponentEmpty14buildFollowSetERNS_18GlushkovBuildStateERKSt6vectorINS_12PositionInfoESaIS4_EE@Base 4.2.0
 _ZN3ue214ComponentEmpty6acceptERNS_16ComponentVisitorE@Base 4.2.0
 _ZN3ue214ComponentEmptyC1Ev@Base 4.2.0
 _ZN3ue214ComponentEmptyC2Ev@Base 4.2.0
 _ZN3ue214ComponentEmptyD0Ev@Base 4.2.0
 _ZN3ue214ComponentEmptyD1Ev@Base 4.2.0
 _ZN3ue214ComponentEmptyD2Ev@Base 4.2.0
 _ZN3ue214GoughSSAVarMin12clear_inputsEv@Base 4.2.0
 _ZN3ue214GoughSSAVarMin13replace_inputEPNS_11GoughSSAVarES2_@Base 4.2.0
 _ZN3ue214GoughSSAVarMin16remove_input_rawEPNS_11GoughSSAVarE@Base 4.2.0
 _ZN3ue214GoughSSAVarMin9add_inputEPNS_11GoughSSAVarE@Base 4.2.0
 _ZN3ue214GoughSSAVarMinD0Ev@Base 4.2.0
 _ZN3ue214GoughSSAVarMinD1Ev@Base 4.2.0
 _ZN3ue214GoughSSAVarMinD2Ev@Base 4.2.0
 _ZN3ue214GoughSSAVarNew13replace_inputEPNS_11GoughSSAVarES2_@Base 4.2.0
 _ZN3ue214GoughSSAVarNewD0Ev@Base 4.2.0
 _ZN3ue214GoughSSAVarNewD1Ev@Base 4.2.0
 _ZN3ue214GoughSSAVarNewD2Ev@Base 4.2.0
 _ZN3ue214RoseSuffixInfo5resetEv@Base 4.2.0
 _ZN3ue214SlotCacheEntryC1ERKNS_8NGHolderERKNS_9CharReachEjbj@Base 4.2.0
 _ZN3ue214SlotCacheEntryC2ERKNS_8NGHolderERKNS_9CharReachEjbj@Base 4.2.0
 _ZN3ue214SomSlotManager10getSomSlotERKNS_8NGHolderERKNS_9CharReachEbj@Base 4.2.0
 _ZN3ue214SomSlotManager13rollbackSomToEj@Base 4.2.0
 _ZN3ue214SomSlotManager17getPrivateSomSlotEv@Base 4.2.0
 _ZN3ue214SomSlotManager22getInitialResetSomSlotERKNS_8NGHolderES3_RKN5boost9unordered13unordered_mapIPvjNS4_4hashIS7_EESt8equal_toIS7_ESaISt4pairIKS7_jEEEEjPb@Base 4.2.0
 _ZN3ue214SomSlotManager9addRevNfaESt10unique_ptrI3NFANS_14AlignedDeleterIS2_EEEj@Base 4.2.0
 _ZN3ue214SomSlotManagerC1Eh@Base 4.2.0
 _ZN3ue214SomSlotManagerC2Eh@Base 4.2.0
 _ZN3ue214SomSlotManagerD1Ev@Base 4.2.0
 _ZN3ue214SomSlotManagerD2Ev@Base 4.2.0
 _ZN3ue214addAnchoredNFAERNS_13RoseBuildImplERKNS_8NGHolderERKSt3mapIPvSt3setIjSt4lessIjESaIjEES8_IS6_ESaISt4pairIKS6_SB_EEE@Base 4.2.0
 _ZN3ue214analyseRepeatsERNS_8NGHolderEPKNS_13ReportManagerERKSt3mapIjjSt4lessIjESaISt4pairIKjjEEERKS5_IjSt6vectorISF_INS_9CharReachESaISG_EESaISI_EES7_SaIS8_IS9_SK_EEEPSF_INS_17BoundedRepeatDataESaISQ_EEbbRKNS_4GreyEPb@Base 4.2.0
 _ZN3ue214as_string_listINS_8flat_setIjSt4lessIjESaIjEEEEENSt7__cxx1112basic_stringIcSt11char_traitsIcESaIcEEERKT_@Base 4.2.0
 _ZN3ue214buildDvermMaskERKNS_8flat_setISt4pairIhhESt4lessIS2_ESaIS2_EEEPhS9_@Base 4.2.0
 _ZN3ue214buildMcClellanERKNS_8NGHolderEPKNS_13ReportManagerERKNS_4GreyE@Base 4.2.0
 _ZN3ue214buildMcClellanERKNS_8NGHolderEPKNS_13ReportManagerEbRKSt6vectorIS6_INS_9CharReachESaIS7_EESaIS9_EERKNS_4GreyEb@Base 4.2.0
 _ZN3ue214calcComponentsERKNS_8NGHolderE@Base 4.2.0
 _ZN3ue214calcDepthsFromERKNS_8NGHolderEPvRSt6vectorINS_11DepthMinMaxESaIS5_EE@Base 4.2.0
 _ZN3ue214calcDominatorsIN5boost13reverse_graphINS1_14adjacency_listINS1_5listSES4_NS1_14bidirectionalSENS_19NFAGraphVertexPropsENS_17NFAGraphEdgePropsENS1_11no_propertyES4_EERKS9_EEEENS1_9unordered13unordered_mapIPvSF_NS1_4hashISF_EESt8equal_toISF_ESaISt4pairIKSF_SF_EEEERKT_SF_@Base 4.2.0
 _ZN3ue214calcDominatorsIN5boost14adjacency_listINS1_5listSES3_NS1_14bidirectionalSENS_19NFAGraphVertexPropsENS_17NFAGraphEdgePropsENS1_11no_propertyES3_EEEENS1_9unordered13unordered_mapIPvSB_NS1_4hashISB_EESt8equal_toISB_ESaISt4pairIKSB_SB_EEEERKT_SB_@Base 4.2.0
 _ZN3ue214caseIterateEndEv@Base 4.2.0
 _ZN3ue214clear_in_edgesEPvRNS_8NGHolderE@Base 4.2.0
 _ZN3ue214cloneRoseGraphERKN5boost14adjacency_listINS0_5listSES2_NS0_14bidirectionalSENS_17RoseInVertexPropsENS_15RoseInEdgePropsENS0_11no_propertyES2_EE@Base 4.2.0
 _ZN3ue214clone_in_edgesERNS_8NGHolderEPvS2_@Base 4.2.0
 _ZN3ue214dedupeSuffixesERNS_13RoseBuildImplE@Base 4.2.0
 _ZN3ue214dumpDotTrailerEP8_IO_FILE@Base 4.2.0
 _ZN3ue214dumpExpressionERKNS_16ParsedExpressionEPKcRKNS_4GreyE@Base 4.2.0
 _ZN3ue214dumpHolderImplERKNS_8NGHolderERKN5boost9unordered13unordered_mapIPvjNS3_4hashIS6_EESt8equal_toIS6_ESaISt4pairIKS6_jEEEEjPKcRKNS_4GreyE@Base 4.2.0
 _ZN3ue214dumpHolderImplERKNS_8NGHolderEjPKcRKNS_4GreyE@Base 4.2.0
 _ZN3ue214dumpSmallWriteEPK10RoseEngineRKNS_4GreyE@Base 4.2.0
 _ZN3ue214fill_bitvectorERKNS_9CharReachEPh@Base 4.2.0
 _ZN3ue214findDominatorsERKNS_8NGHolderE@Base 4.2.0
 _ZN3ue214findMaxBAWidthERKNS_13RoseBuildImplE@Base 4.2.0
 _ZN3ue214findMaxBAWidthERKNS_13RoseBuildImplENS_18rose_literal_tableE@Base 4.2.0
 _ZN3ue214find_reachableIN5boost13reverse_graphINS1_14adjacency_listINS1_5listSES4_NS1_14bidirectionalSENS_17RoseInVertexPropsENS_15RoseInEdgePropsENS1_11no_propertyES4_EERS9_EESt6vectorIPvSaISD_EENS1_9unordered13unordered_setISD_NS1_4hashISD_EESt8equal_toISD_ESE_EEEEvRKT_RKT0_PT1_@Base 4.2.0
 _ZN3ue214find_reachableIN5boost14adjacency_listINS1_5listSES3_NS1_14bidirectionalSENS_15RoseVertexPropsENS_13RoseEdgePropsES3_S3_EESt6vectorIPvSaIS9_EESt3setIS9_St4lessIS9_ESA_EEEvRKT_RKT0_PT1_@Base 4.2.0
 _ZN3ue214find_reachableIN5boost14adjacency_listINS1_5listSES3_NS1_14bidirectionalSENS_17RoseInVertexPropsENS_15RoseInEdgePropsENS1_11no_propertyES3_EESt6vectorIPvSaISA_EENS1_9unordered13unordered_setISA_NS1_4hashISA_EESt8equal_toISA_ESB_EEEEvRKT_RKT0_PT1_@Base 4.2.0
 _ZN3ue214getUcpArmenianEv@Base 4.2.0
 _ZN3ue214getUcpBalineseEv@Base 4.2.0
 _ZN3ue214getUcpBopomofoEv@Base 4.2.0
 _ZN3ue214getUcpBugineseEv@Base 4.2.0
 _ZN3ue214getUcpCherokeeEv@Base 4.2.0
 _ZN3ue214getUcpCyrillicEv@Base 4.2.0
 _ZN3ue214getUcpDuployanEv@Base 4.2.0
 _ZN3ue214getUcpEthiopicEv@Base 4.2.0
 _ZN3ue214getUcpGeorgianEv@Base 4.2.0
 _ZN3ue214getUcpGujaratiEv@Base 4.2.0
 _ZN3ue214getUcpGurmukhiEv@Base 4.2.0
 _ZN3ue214getUcpHiraganaEv@Base 4.2.0
 _ZN3ue214getUcpJavaneseEv@Base 4.2.0
 _ZN3ue214getUcpKatakanaEv@Base 4.2.0
 _ZN3ue214getUcpKayah_LiEv@Base 4.2.0
 _ZN3ue214getUcpLinear_AEv@Base 4.2.0
 _ZN3ue214getUcpLinear_BEv@Base 4.2.0
 _ZN3ue214getUcpMahajaniEv@Base 4.2.0
 _ZN3ue214getUcpOl_ChikiEv@Base 4.2.0
 _ZN3ue214getUcpPhags_PaEv@Base 4.2.0
 _ZN3ue214getUcpTagbanwaEv@Base 4.2.0
 _ZN3ue214getUcpTai_ThamEv@Base 4.2.0
 _ZN3ue214getUcpTai_VietEv@Base 4.2.0
 _ZN3ue214getUcpTifinaghEv@Base 4.2.0
 _ZN3ue214getUcpUgariticEv@Base 4.2.0
 _ZN3ue214hwlmPrintStatsEPK4HWLMP8_IO_FILE@Base 4.2.0
 _ZN3ue214makeNFABuilderERNS_13ReportManagerERKNS_14CompileContextERKNS_16ParsedExpressionE@Base 4.2.0
 _ZN3ue214noodBuildTableERKNS_11hwlmLiteralE@Base 4.2.0
 _ZN3ue214noodPrintStatsEPK9noodTableP8_IO_FILE@Base 4.2.0
 _ZN3ue214prune_overlongERNS_7raw_dfaEj@Base 4.2.0
 _ZN3ue214reportsToEkeysERKSt3setIjSt4lessIjESaIjEERKNS_13ReportManagerE@Base 4.2.0
 _ZN3ue214requiresDedupeERKNS_11CastleProtoERKNS_8flat_setIjSt4lessIjESaIjEEE@Base 4.2.0
 _ZN3ue214resolveAssertsERNS_13ReportManagerERNS_9NGWrapperE@Base 4.2.0
 _ZN3ue214sentClearsTailERKNS_8NGHolderERKN5boost9unordered13unordered_mapIPvjNS3_4hashIS6_EESt8equal_toIS6_ESaISt4pairIKS6_jEEEES2_jPj@Base 4.2.0
 _ZN3ue214whatRoseIsThisERKN5boost14adjacency_listINS0_5listSES2_NS0_14bidirectionalSENS_17RoseInVertexPropsENS_15RoseInEdgePropsENS0_11no_propertyES2_EERKNS0_6detail14edge_desc_implINS0_17bidirectional_tagEPvEE@Base 4.2.0
 _ZN3ue215ComponentRepeat11wireRepeatsERNS_18GlushkovBuildStateE@Base 4.2.0
 _ZN3ue215ComponentRepeat13notePositionsERNS_18GlushkovBuildStateE@Base 4.2.0
 _ZN3ue215ComponentRepeat14buildFollowSetERNS_18GlushkovBuildStateERKSt6vectorINS_12PositionInfoESaIS4_EE@Base 4.2.0
 _ZN3ue215ComponentRepeat23postSubNotePositionHookEv@Base 4.2.0
 _ZN3ue215ComponentRepeat6acceptERNS_16ComponentVisitorE@Base 4.2.0
 _ZN3ue215ComponentRepeat8optimiseEb@Base 4.2.0
 _ZN3ue215ComponentRepeatC1ERKS0_@Base 4.2.0
 _ZN3ue215ComponentRepeatC1ESt10unique_ptrINS_9ComponentESt14default_deleteIS2_EEjjNS0_10RepeatTypeE@Base 4.2.0
 _ZN3ue215ComponentRepeatC2ERKS0_@Base 4.2.0
 _ZN3ue215ComponentRepeatC2ESt10unique_ptrINS_9ComponentESt14default_deleteIS2_EEjjNS0_10RepeatTypeE@Base 4.2.0
 _ZN3ue215ComponentRepeatD0Ev@Base 4.2.0
 _ZN3ue215ComponentRepeatD1Ev@Base 4.2.0
 _ZN3ue215ComponentRepeatD2Ev@Base 4.2.0
 _ZN3ue215GoughSSAVarJoin12clear_inputsEv@Base 4.2.0
 _ZN3ue215GoughSSAVarJoin13replace_inputEPNS_11GoughSSAVarES2_@Base 4.2.0
 _ZN3ue215GoughSSAVarJoin16remove_input_rawEPNS_11GoughSSAVarE@Base 4.2.0
 _ZN3ue215GoughSSAVarJoin9add_inputEPNS_11GoughSSAVarEN5boost6detail14edge_desc_implINS3_17bidirectional_tagEmEE@Base 4.2.0
 _ZN3ue215GoughSSAVarJoinD0Ev@Base 4.2.0
 _ZN3ue215GoughSSAVarJoinD1Ev@Base 4.2.0
 _ZN3ue215GoughSSAVarJoinD2Ev@Base 4.2.0
 _ZN3ue215RepeatStateInfoC1E10RepeatTypeRKNS_5depthES4_j@Base 4.2.0
 _ZN3ue215RepeatStateInfoC2E10RepeatTypeRKNS_5depthES4_j@Base 4.2.0
 _ZN3ue215RepeatStateInfoD1Ev@Base 4.2.0
 _ZN3ue215RepeatStateInfoD2Ev@Base 4.2.0
 _ZN3ue215RoseInEdgePropsC1ESt10shared_ptrINS_11raw_som_dfaEE@Base 4.2.0
 _ZN3ue215RoseInEdgePropsC1ESt10shared_ptrINS_8NGHolderEES1_INS_11raw_som_dfaEEj@Base 4.2.0
 _ZN3ue215RoseInEdgePropsC1ESt10shared_ptrINS_8NGHolderEEj@Base 4.2.0
 _ZN3ue215RoseInEdgePropsC2ESt10shared_ptrINS_11raw_som_dfaEE@Base 4.2.0
 _ZN3ue215RoseInEdgePropsC2ESt10shared_ptrINS_8NGHolderEES1_INS_11raw_som_dfaEEj@Base 4.2.0
 _ZN3ue215RoseInEdgePropsC2ESt10shared_ptrINS_8NGHolderEEj@Base 4.2.0
 _ZN3ue215RoseInEdgePropsD1Ev@Base 4.2.0
 _ZN3ue215RoseInEdgePropsD2Ev@Base 4.2.0
 _ZN3ue215SmallWriteBuildD0Ev@Base 4.2.0
 _ZN3ue215SmallWriteBuildD1Ev@Base 4.2.0
 _ZN3ue215SmallWriteBuildD2Ev@Base 4.2.0
 _ZN3ue215aligned_zmallocEm@Base 4.2.0
 _ZN3ue215calcPackedBytesEy@Base 4.2.0
 _ZN3ue215can_never_matchERKNS_8NGHolderE@Base 4.2.0
 _ZN3ue215checkReferencesERKNS_9ComponentEjRKNS_8flat_setINSt7__cxx1112basic_stringIcSt11char_traitsIcESaIcEEESt4lessIS9_ESaIS9_EEE@Base 4.2.0
 _ZN3ue215clear_out_edgesEPvRNS_8NGHolderE@Base 4.2.0
 _ZN3ue215clone_out_edgesERNS_8NGHolderEPvS2_@Base 4.2.0
 _ZN3ue215dedupeLeftfixesERNS_13RoseBuildImplE@Base 4.2.0
 _ZN3ue215dfa_build_stratD0Ev@Base 4.2.0
 _ZN3ue215dfa_build_stratD1Ev@Base 4.2.0
 _ZN3ue215dfa_build_stratD2Ev@Base 4.2.0
 _ZN3ue215dotEscapeStringERKNSt7__cxx1112basic_stringIcSt11char_traitsIcESaIcEEE@Base 4.2.0
 _ZN3ue215dumpDotPreambleEP8_IO_FILE@Base 4.2.0
 _ZN3ue215dumpTextReverseEPK3NFAP8_IO_FILE@Base 4.2.0
 _ZN3ue215duplicateReportERNS_8NGHolderEjj@Base 4.2.0
 _ZN3ue215filterSquashersERKNS_8NGHolderERSt3mapIPvN5boost14dynamic_bitsetImSaImEEESt4lessIS4_ESaISt4pairIKS4_S8_EEE@Base 4.2.0
 _ZN3ue215finalChanceRoseERNS_9RoseBuildERKNS_8NGHolderEbRKNS_14CompileContextE@Base 4.2.0
 _ZN3ue215getTopoOrderingERKNS_8NGHolderE@Base 4.2.0
 _ZN3ue215getUcpBassa_VahEv@Base 4.2.0
 _ZN3ue215getUcpCuneiformEv@Base 4.2.0
 _ZN3ue215getUcpInheritedEv@Base 4.2.0
 _ZN3ue215getUcpKhudawadiEv@Base 4.2.0
 _ZN3ue215getUcpMalayalamEv@Base 4.2.0
 _ZN3ue215getUcpMongolianEv@Base 4.2.0
 _ZN3ue215getUcpNabataeanEv@Base 4.2.0
 _ZN3ue215getUcpPalmyreneEv@Base 4.2.0
 _ZN3ue215getUcpSamaritanEv@Base 4.2.0
 _ZN3ue215getUcpSundaneseEv@Base 4.2.0
 _ZN3ue215has_eod_acceptsERKNS_7raw_dfaE@Base 4.2.0
 _ZN3ue215has_eod_acceptsERKNS_9suffix_idE@Base 4.2.0
 _ZN3ue215makeRoseBuilderERNS_13ReportManagerERNS_14SomSlotManagerERKNS_14CompileContextERKNS_15BoundaryReportsE@Base 4.2.0
 _ZN3ue215maxDistFromInitERKNS_14NFAVertexDepthE@Base 4.2.0
 _ZN3ue215mergeDupeLeavesERNS_13RoseBuildImplE@Base 4.2.0
 _ZN3ue215mergeLookaroundERSt6vectorINS_9LookEntryESaIS1_EERKS3_@Base 4.2.0
 _ZN3ue215mergeNfaClusterERKSt6vectorIPNS_8NGHolderESaIS2_EEPKNS_13ReportManagerERSt3mapIS2_S2_St4lessIS2_ESaISt4pairIKS2_S2_EEERKNS_14CompileContextE@Base 4.2.0
 _ZN3ue215minStringPeriodERKNS_11ue2_literalE@Base 4.2.0
 _ZN3ue215mustBeSetBeforeEPvS0_RKNS_8NGHolderERNS_10mbsb_cacheE@Base 4.2.0
 _ZN3ue215raw_report_infoC1Ev@Base 4.2.0
 _ZN3ue215raw_report_infoC2Ev@Base 4.2.0
 _ZN3ue215raw_report_infoD0Ev@Base 4.2.0
 _ZN3ue215raw_report_infoD1Ev@Base 4.2.0
 _ZN3ue215raw_report_infoD2Ev@Base 4.2.0
 _ZN3ue215remapCastleTopsERNS_11CastleProtoERSt3mapIjjSt4lessIjESaISt4pairIKjjEEE@Base 4.2.0
 _ZN3ue215remapCastleTopsERNS_13RoseBuildImplE@Base 4.2.0
 _ZN3ue215remove_verticesIN9__gnu_cxx17__normal_iteratorIPKPvSt6vectorIS3_SaIS3_EEEEEEvT_SA_RNS_8NGHolderEb@Base 4.2.0
 _ZN3ue215remove_verticesISt5dequeIPvSaIS2_EEEEvRKT_RNS_8NGHolderEb@Base 4.2.0
 _ZN3ue215replaceEpsilonsERSt6vectorINS_12PositionInfoESaIS1_EERKS3_@Base 4.2.0
 _ZN3ue215reverse_literalERKNS_11ue2_literalE@Base 4.2.0
 _ZN3ue215rose_literal_idC1ERKNS_11ue2_literalERKSt6vectorIhSaIhEES8_NS_18rose_literal_tableEj@Base 4.2.0
 _ZN3ue215rose_literal_idC1ERKS0_@Base 4.2.0
 _ZN3ue215rose_literal_idC2ERKNS_11ue2_literalERKSt6vectorIhSaIhEES8_NS_18rose_literal_tableEj@Base 4.2.0
 _ZN3ue215rose_literal_idC2ERKS0_@Base 4.2.0
 _ZN3ue215rose_literal_idD1Ev@Base 4.2.0
 _ZN3ue215rose_literal_idD2Ev@Base 4.2.0
 _ZN3ue215shortcutLiteralERNS_2NGERKNS_16ParsedExpressionE@Base 4.2.0
 _ZN3ue215splitOffVacuousERNS_15BoundaryReportsERNS_13ReportManagerERNS_9NGWrapperE@Base 4.2.0
 _ZN3ue215state_alignmentERK3NFA@Base 4.2.0
 _ZN3ue215wireStartToTopsERNS_8NGHolderERKSt3mapIjPvSt4lessIjESaISt4pairIKjS3_EEERSt6vectorIN5boost6detail14edge_desc_implINSE_17bidirectional_tagES3_EESaISI_EE@Base 4.2.0
 _ZN3ue216ComponentVisitorD0Ev@Base 4.2.0
 _ZN3ue216ComponentVisitorD1Ev@Base 4.2.0
 _ZN3ue216ComponentVisitorD2Ev@Base 4.2.0
 _ZN3ue216ParsedExpressionC1EjPKcjjPK11hs_expr_ext@Base 4.2.0
 _ZN3ue216ParsedExpressionC2EjPKcjjPK11hs_expr_ext@Base 4.2.0
 _ZN3ue216PrefilterVisitor5visitEPNS_12ComponentEUSE@Base 4.2.0
 _ZN3ue216PrefilterVisitor5visitEPNS_15ComponentRepeatE@Base 4.2.0
 _ZN3ue216PrefilterVisitor5visitEPNS_18ComponentAssertionE@Base 4.2.0
 _ZN3ue216PrefilterVisitor5visitEPNS_20ComponentAtomicGroupE@Base 4.2.0
 _ZN3ue216PrefilterVisitor5visitEPNS_21ComponentWordBoundaryE@Base 4.2.0
 _ZN3ue216PrefilterVisitor5visitEPNS_22ComponentBackReferenceE@Base 4.2.0
 _ZN3ue216PrefilterVisitor5visitEPNS_22ComponentCondReferenceE@Base 4.2.0
 _ZN3ue216PrefilterVisitorD0Ev@Base 4.2.0
 _ZN3ue216PrefilterVisitorD1Ev@Base 4.2.0
 _ZN3ue216PrefilterVisitorD2Ev@Base 4.2.0
 _ZN3ue216ReferenceVisitor13invalid_indexEPKcj@Base 4.2.0
 _ZN3ue216ReferenceVisitor13invalid_labelEPKcRKNSt7__cxx1112basic_stringIcSt11char_traitsIcESaIcEEE@Base 4.2.0
 _ZN3ue216ReferenceVisitor3preERKNS_22ComponentBackReferenceE@Base 4.2.0
 _ZN3ue216ReferenceVisitor3preERKNS_22ComponentCondReferenceE@Base 4.2.0
 _ZN3ue216ReferenceVisitorD0Ev@Base 4.2.0
 _ZN3ue216ReferenceVisitorD1Ev@Base 4.2.0
 _ZN3ue216ReferenceVisitorD2Ev@Base 4.2.0
 _ZN3ue216addSomRedundancyERNS_8NGHolderERSt6vectorINS_11DepthMinMaxESaIS3_EE@Base 4.2.0
 _ZN3ue216can_match_at_eodERKNS_8NGHolderE@Base 4.2.0
 _ZN3ue216caseIterateBeginERKNS_11ue2_literalE@Base 4.2.0
 _ZN3ue216checkUnsupportedERKNS_9ComponentE@Base 4.2.0
 _ZN3ue216chooseRepeatTypeERKNS_5depthES2_jbb@Base 4.2.0
 _ZN3ue216cleanupPositionsERSt6vectorINS_12PositionInfoESaIS1_EE@Base 4.2.0
 _ZN3ue216compressAndScoreERSt3setINS_11ue2_literalESt4lessIS1_ESaIS1_EE@Base 4.2.0
 _ZN3ue216convertBadLeavesERNS_13RoseBuildImplE@Base 4.2.0
 _ZN3ue216countAccelStatesERKNS_8NGHolderEPKNS_13ReportManagerERKNS_14CompileContextE@Base 4.2.0
 _ZN3ue216countAccelStatesERNS_8NGHolderERKN5boost9unordered13unordered_mapIPvjNS2_4hashIS5_EESt8equal_toIS5_ESaISt4pairIKS5_jEEEERKSt6vectorINS_17BoundedRepeatDataESaISI_EERKSt3mapIS5_NS2_14dynamic_bitsetImSaImEEESt4lessIS5_ESaISA_ISB_SQ_EEESX_RKSN_IjS5_SR_IjESaISA_IKjS5_EEERKSt3setIS5_SS_SaIS5_EERKNS_14CompileContextE@Base 4.2.0
 _ZN3ue216describeAlphabetEP8_IO_FILEPK9mcclellan@Base 4.2.0
 _ZN3ue216dropUnusedStartsERNS_8NGHolderERN5boost9unordered13unordered_mapIPvjNS2_4hashIS5_EESt8equal_toIS5_ESaISt4pairIKS5_jEEEE@Base 4.2.0
 _ZN3ue216dumpPreRoseGraphERKN5boost14adjacency_listINS0_5listSES2_NS0_14bidirectionalSENS_17RoseInVertexPropsENS_15RoseInEdgePropsENS0_11no_propertyES2_EERKNS_4GreyEPKc@Base 4.2.0
 _ZN3ue216escapeStringMetaERKNSt7__cxx1112basic_stringIcSt11char_traitsIcESaIcEEE@Base 4.2.0
 _ZN3ue216findAccelFriendsERKNS_8NGHolderEPvRKSt3mapIS3_NS_20BoundedRepeatSummaryESt4lessIS3_ESaISt4pairIKS3_S5_EEEjPNS_8flat_setIS3_S7_SaIS3_EEE@Base 4.2.0
 _ZN3ue216findStopAlphabetERKNS_8NGHolderE8som_type@Base 4.2.0
 _ZN3ue216findUnusedStatesERKNS_8NGHolderE@Base 4.2.0
 _ZN3ue216find_unreachableIN5boost13reverse_graphINS1_14adjacency_listINS1_5listSES4_NS1_14bidirectionalSENS_17RoseInVertexPropsENS_15RoseInEdgePropsENS1_11no_propertyES4_EERS9_EESt6vectorIPvSaISD_EESt3setISD_St4lessISD_ESE_EEEvRKT_RKT0_PT1_@Base 4.2.0
 _ZN3ue216find_unreachableIN5boost14adjacency_listINS1_5listSES3_NS1_14bidirectionalSENS_17RoseInVertexPropsENS_15RoseInEdgePropsENS1_11no_propertyES3_EESt6vectorIPvSaISA_EESt3setISA_St4lessISA_ESB_EEEvRKT_RKT0_PT1_@Base 4.2.0
 _ZN3ue216freeCompileErrorEP16hs_compile_error@Base 4.2.0
 _ZN3ue216getUcpDevanagariEv@Base 4.2.0
 _ZN3ue216getUcpGlagoliticEv@Base 4.2.0
 _ZN3ue216getUcpKharoshthiEv@Base 4.2.0
 _ZN3ue216getUcpManichaeanEv@Base 4.2.0
 _ZN3ue216getUcpOld_ItalicEv@Base 4.2.0
 _ZN3ue216getUcpOld_PermicEv@Base 4.2.0
 _ZN3ue216getUcpOld_TurkicEv@Base 4.2.0
 _ZN3ue216getUcpPhoenicianEv@Base 4.2.0
 _ZN3ue216getUcpSaurashtraEv@Base 4.2.0
 _ZN3ue216get_sds_or_proxyERKNS_7raw_dfaE@Base 4.2.0
 _ZN3ue216get_sds_or_proxyERKNS_8NGHolderE@Base 4.2.0
 _ZN3ue216handleFixedWidthERNS_9RoseBuildERKNS_8NGHolderERKNS_4GreyE@Base 4.2.0
 _ZN3ue216isOptionalRegionINS_8NGHolderEEEbRKT_PvRKN5boost9unordered13unordered_mapIS5_jNS6_4hashIS5_EESt8equal_toIS5_ESaISt4pairIKS5_jEEEE@Base 4.2.0
 _ZN3ue216is_virtual_startEPvRKNS_8NGHolderE@Base 4.2.0
 _ZN3ue216maskIsConsistentERKNSt7__cxx1112basic_stringIcSt11char_traitsIcESaIcEEEbRKSt6vectorIhSaIhEESC_@Base 4.2.0
 _ZN3ue216maxStringOverlapERKNS_11ue2_literalES2_@Base 4.2.0
 _ZN3ue216maxStringOverlapERKNSt7__cxx1112basic_stringIcSt11char_traitsIcESaIcEEES7_b@Base 4.2.0
 _ZN3ue216mcclellanCompileERNS_7raw_dfaERKNS_14CompileContextERKNS_13ReportManagerEPSt3setItSt4lessItESaItEE@Base 4.2.0
 _ZN3ue216proper_in_degreeINS_8NGHolderEEEmRKNT_17vertex_descriptorERKS2_@Base 4.2.0
 _ZN3ue216pruneUnreachableERNS_8NGHolderE@Base 4.2.0
 _ZN3ue216recalcComponentsERSt5dequeISt10unique_ptrINS_8NGHolderESt14default_deleteIS2_EESaIS5_EE@Base 4.2.0
 _ZN3ue216removeRedundancyERNS_8NGHolderE8som_type@Base 4.2.0
 _ZN3ue216scatter_plan_rawD1Ev@Base 4.2.0
 _ZN3ue216scatter_plan_rawD2Ev@Base 4.2.0
 _ZN3ue216shuftiBuildMasksERKNS_9CharReachEPDv2_xS4_@Base 4.2.0
 _ZN3ue216shuftiBuildMasksERKNS_9CharReachEPU8__vectorxS4_@Base 4.2.0
 _ZN3ue216splitOffLiteralsERNS_2NGERNS_9NGWrapperE@Base 4.2.0
 _ZN3ue216unionDepthMinMaxERKNS_11DepthMinMaxES2_@Base 4.2.0
 _ZN3ue217ComponentBoundary13notePositionsERNS_18GlushkovBuildStateE@Base 4.2.0
 _ZN3ue217ComponentBoundary14buildFollowSetERNS_18GlushkovBuildStateERKSt6vectorINS_12PositionInfoESaIS4_EE@Base 4.2.0
 _ZN3ue217ComponentBoundary6acceptERNS_16ComponentVisitorE@Base 4.2.0
 _ZN3ue217ComponentBoundaryC1ENS0_8BoundaryE@Base 4.2.0
 _ZN3ue217ComponentBoundaryC1ERKS0_@Base 4.2.0
 _ZN3ue217ComponentBoundaryC2ENS0_8BoundaryE@Base 4.2.0
 _ZN3ue217ComponentBoundaryC2ERKS0_@Base 4.2.0
 _ZN3ue217ComponentBoundaryD0Ev@Base 4.2.0
 _ZN3ue217ComponentBoundaryD1Ev@Base 4.2.0
 _ZN3ue217ComponentBoundaryD2Ev@Base 4.2.0
 _ZN3ue217ComponentSequence12addComponentESt10unique_ptrINS_9ComponentESt14default_deleteIS2_EE@Base 4.2.0
 _ZN3ue217ComponentSequence13notePositionsERNS_18GlushkovBuildStateE@Base 4.2.0
 _ZN3ue217ComponentSequence14addAlternationEv@Base 4.2.0
 _ZN3ue217ComponentSequence14buildFollowSetERNS_18GlushkovBuildStateERKSt6vectorINS_12PositionInfoESaIS4_EE@Base 4.2.0
 _ZN3ue217ComponentSequence6acceptERNS_16ComponentVisitorE@Base 4.2.0
 _ZN3ue217ComponentSequence8finalizeEv@Base 4.2.0
 _ZN3ue217ComponentSequence8optimiseEb@Base 4.2.0
 _ZN3ue217ComponentSequence9addRepeatEjjNS_15ComponentRepeat10RepeatTypeE@Base 4.2.0
 _ZN3ue217ComponentSequenceC1ERKS0_@Base 4.2.0
 _ZN3ue217ComponentSequenceC1Ev@Base 4.2.0
 _ZN3ue217ComponentSequenceC2ERKS0_@Base 4.2.0
 _ZN3ue217ComponentSequenceC2Ev@Base 4.2.0
 _ZN3ue217ComponentSequenceD0Ev@Base 4.2.0
 _ZN3ue217ComponentSequenceD1Ev@Base 4.2.0
 _ZN3ue217ComponentSequenceD2Ev@Base 4.2.0
 _ZN3ue217EngineDescriptionD0Ev@Base 4.2.0
 _ZN3ue217EngineDescriptionD1Ev@Base 4.2.0
 _ZN3ue217EngineDescriptionD2Ev@Base 4.2.0
 _ZN3ue217InitialResetEntryD1Ev@Base 4.2.0
 _ZN3ue217InitialResetEntryD2Ev@Base 4.2.0
 _ZN3ue217LocatedParseError6locateEm@Base 4.2.0
 _ZN3ue217LocatedParseErrorC1ERKNSt7__cxx1112basic_stringIcSt11char_traitsIcESaIcEEE@Base 4.2.0
 _ZN3ue217LocatedParseErrorC2ERKNSt7__cxx1112basic_stringIcSt11char_traitsIcESaIcEEE@Base 4.2.0
 _ZN3ue217LocatedParseErrorD0Ev@Base 4.2.0
 _ZN3ue217LocatedParseErrorD1Ev@Base 4.2.0
 _ZN3ue217LocatedParseErrorD2Ev@Base 4.2.0
 _ZN3ue217RoseDedupeAuxImplC1ERKNS_13RoseBuildImplE@Base 4.2.0
 _ZN3ue217RoseDedupeAuxImplC2ERKNS_13RoseBuildImplE@Base 4.2.0
 _ZN3ue217RoseDedupeAuxImplD0Ev@Base 4.2.0
 _ZN3ue217RoseDedupeAuxImplD1Ev@Base 4.2.0
 _ZN3ue217RoseDedupeAuxImplD2Ev@Base 4.2.0
 _ZN3ue217RoseInVertexProps10makeAcceptINS_8flat_setIjSt4lessIjESaIjEEEEES0_RKT_@Base 4.2.0
 _ZN3ue217RoseInVertexProps10makeAcceptISt3setIjSt4lessIjESaIjEEEES0_RKT_@Base 4.2.0
 _ZN3ue217RoseInVertexProps9makeStartEb@Base 4.2.0
 _ZN3ue217RoseInVertexPropsD1Ev@Base 4.2.0
 _ZN3ue217RoseInVertexPropsD2Ev@Base 4.2.0
 _ZN3ue217anchoredStateSizeERK21anchored_matcher_info@Base 4.2.0
 _ZN3ue217buildAnchoredDfasERNS_13RoseBuildImplE@Base 4.2.0
 _ZN3ue217calcVertexOffsetsERN5boost14adjacency_listINS0_5listSES2_NS0_14bidirectionalSENS_17RoseInVertexPropsENS_15RoseInEdgePropsENS0_11no_propertyES2_EE@Base 4.2.0
 _ZN3ue217calculateAlphabetERKNS_8NGHolderERSt5arrayItLm257EES5_Pt@Base 4.2.0
 _ZN3ue217chooseTeddyEngineERKNS_8target_tERKSt6vectorINS_11hwlmLiteralESaIS4_EE@Base 4.2.0
 _ZN3ue217dumpComponentImplERKNS_8NGHolderEPKcjjRKNS_4GreyE@Base 4.2.0
 _ZN3ue217dumpReportManagerERKNS_13ReportManagerERKNS_4GreyE@Base 4.2.0
 _ZN3ue217firstMatchIsFirstERKNS_8NGHolderE@Base 4.2.0
 _ZN3ue217generateComponentENS_15PredefinedClassEbRKNS_9ParseModeE@Base 4.2.0
 _ZN3ue217getComponentClassERKNS_9ParseModeE@Base 4.2.0
 _ZN3ue217getFdrDescriptionEj@Base 4.2.0
 _ZN3ue217getSoleDestVertexERKNS_8NGHolderEPv@Base 4.2.0
 _ZN3ue217getUcpNew_Tai_LueEv@Base 4.2.0
 _ZN3ue217getUcpOld_PersianEv@Base 4.2.0
 _ZN3ue217getUcpPau_Cin_HauEv@Base 4.2.0
 _ZN3ue217getUcpWarang_CitiEv@Base 4.2.0
 _ZN3ue217hasReachableCycleERKNS_8NGHolderEPv@Base 4.2.0
 _ZN3ue217has_parallel_edgeINS_8NGHolderEEEbRKT_@Base 4.2.0
 _ZN3ue217isSingletonRegionINS_8NGHolderEEEbRKT_PvRKN5boost9unordered13unordered_mapIS5_jNS6_4hashIS5_EESt8equal_toIS5_ESaISt4pairIKS5_jEEEE@Base 4.2.0
 _ZN3ue217make_and_cmp_maskERKNS_9CharReachEPhS3_@Base 4.2.0
 _ZN3ue217minResetDistToEndERKSt6vectorIS0_INS_9CharReachESaIS1_EESaIS3_EERKS1_@Base 4.2.0
 _ZN3ue217minimize_hopcroftERNS_7raw_dfaERKNS_4GreyE@Base 4.2.0
 _ZN3ue217mixed_sensitivityERKNS_11ue2_literalE@Base 4.2.0
 _ZN3ue217mmbBuildClearPlanEjPNS_16scatter_plan_rawE@Base 4.2.0
 _ZN3ue217proper_out_degreeINS_8NGHolderEEEmRKNT_17vertex_descriptorERKS2_@Base 4.2.0
 _ZN3ue217reformLeadingDotsERNS_8NGHolderE@Base 4.2.0
 _ZN3ue217roseAddSmallWriteEPK10RoseEnginePK16SmallWriteEngine@Base 4.2.0
 _ZN3ue217roseDumpInternalsEPK10RoseEngineRKNSt7__cxx1112basic_stringIcSt11char_traitsIcESaIcEEE@Base 4.2.0
 _ZN3ue217roseDumpStructRawEPK10RoseEngineP8_IO_FILE@Base 4.2.0
 _ZN3ue217roseIsPureLiteralEPK10RoseEngine@Base 4.2.0
 _ZN3ue217rose_literal_infoD1Ev@Base 4.2.0
 _ZN3ue217rose_literal_infoD2Ev@Base 4.2.0
 _ZN3ue217somMayGoBackwardsEPvRKNS_8NGHolderERKN5boost9unordered13unordered_mapIS0_jNS4_4hashIS0_EESt8equal_toIS0_ESaISt4pairIKS0_jEEEERNS_10smgb_cacheE@Base 4.2.0
 _ZN3ue217truffleBuildMasksERKNS_9CharReachEPDv2_xS4_@Base 4.2.0
 _ZN3ue217truffleBuildMasksERKNS_9CharReachEPU8__vectorxS4_@Base 4.2.0
 _ZN3ue218ComponentAssertion13notePositionsERNS_18GlushkovBuildStateE@Base 4.2.0
 _ZN3ue218ComponentAssertion14buildFollowSetERNS_18GlushkovBuildStateERKSt6vectorINS_12PositionInfoESaIS4_EE@Base 4.2.0
 _ZN3ue218ComponentAssertion6acceptERNS_16ComponentVisitorE@Base 4.2.0
 _ZN3ue218ComponentAssertionC1ENS0_9DirectionENS0_5SenseE@Base 4.2.0
 _ZN3ue218ComponentAssertionC2ENS0_9DirectionENS0_5SenseE@Base 4.2.0
 _ZN3ue218ComponentAssertionD0Ev@Base 4.2.0
 _ZN3ue218ComponentAssertionD1Ev@Base 4.2.0
 _ZN3ue218ComponentAssertionD2Ev@Base 4.2.0
 _ZN3ue218GlushkovBuildState11POS_EPSILONE@Base 4.2.0
 _ZN3ue218GlushkovBuildState17POS_UNINITIALIZEDE@Base 4.2.0
 _ZN3ue218GlushkovBuildStateD0Ev@Base 4.2.0
 _ZN3ue218GlushkovBuildStateD1Ev@Base 4.2.0
 _ZN3ue218GlushkovBuildStateD2Ev@Base 4.2.0
 _ZN3ue218ResourceLimitErrorC1Ev@Base 4.2.0
 _ZN3ue218ResourceLimitErrorC2Ev@Base 4.2.0
 _ZN3ue218ResourceLimitErrorD0Ev@Base 4.2.0
 _ZN3ue218ResourceLimitErrorD1Ev@Base 4.2.0
 _ZN3ue218ResourceLimitErrorD2Ev@Base 4.2.0
 _ZN3ue218UTF8ComponentClass11createRangeEj@Base 4.2.0
 _ZN3ue218UTF8ComponentClass12buildOneByteERNS_18GlushkovBuildStateE@Base 4.2.0
 _ZN3ue218UTF8ComponentClass12buildTwoByteERNS_18GlushkovBuildStateE@Base 4.2.0
 _ZN3ue218UTF8ComponentClass13buildFourByteERNS_18GlushkovBuildStateE@Base 4.2.0
 _ZN3ue218UTF8ComponentClass13notePositionsERNS_18GlushkovBuildStateE@Base 4.2.0
 _ZN3ue218UTF8ComponentClass14buildFollowSetERNS_18GlushkovBuildStateERKSt6vectorINS_12PositionInfoESaIS4_EE@Base 4.2.0
 _ZN3ue218UTF8ComponentClass14buildThreeByteERNS_18GlushkovBuildStateE@Base 4.2.0
 _ZN3ue218UTF8ComponentClass16ensureDotTrailerERNS_18GlushkovBuildStateE@Base 4.2.0
 _ZN3ue218UTF8ComponentClass19ensureTwoDotTrailerERNS_18GlushkovBuildStateE@Base 4.2.0
 _ZN3ue218UTF8ComponentClass21ensureThreeDotTrailerERNS_18GlushkovBuildStateE@Base 4.2.0
 _ZN3ue218UTF8ComponentClass3addENS_15PredefinedClassEb@Base 4.2.0
 _ZN3ue218UTF8ComponentClass3addEj@Base 4.2.0
 _ZN3ue218UTF8ComponentClass6acceptERNS_16ComponentVisitorE@Base 4.2.0
 _ZN3ue218UTF8ComponentClass7getHeadERNS_10NFABuilderEh@Base 4.2.0
 _ZN3ue218UTF8ComponentClass8finalizeEv@Base 4.2.0
 _ZN3ue218UTF8ComponentClass9addToTailERNS_18GlushkovBuildStateERSt3mapIjjSt4lessIjESaISt4pairIKjjEEEjjj@Base 4.2.0
 _ZN3ue218UTF8ComponentClassC1ERKNS_9ParseModeE@Base 4.2.0
 _ZN3ue218UTF8ComponentClassC2ERKNS_9ParseModeE@Base 4.2.0
 _ZN3ue218UTF8ComponentClassD0Ev@Base 4.2.0
 _ZN3ue218UTF8ComponentClassD1Ev@Base 4.2.0
 _ZN3ue218UTF8ComponentClassD2Ev@Base 4.2.0
 _ZN3ue218UnsupportedVisitor3preERKNS_12ComponentEUSE@Base 4.2.0
 _ZN3ue218UnsupportedVisitor3preERKNS_15ComponentRepeatE@Base 4.2.0
 _ZN3ue218UnsupportedVisitor3preERKNS_18ComponentAssertionE@Base 4.2.0
 _ZN3ue218UnsupportedVisitor3preERKNS_20ComponentAtomicGroupE@Base 4.2.0
 _ZN3ue218UnsupportedVisitor3preERKNS_21ComponentWordBoundaryE@Base 4.2.0
 _ZN3ue218UnsupportedVisitor3preERKNS_22ComponentBackReferenceE@Base 4.2.0
 _ZN3ue218UnsupportedVisitor3preERKNS_22ComponentCondReferenceE@Base 4.2.0
 _ZN3ue218UnsupportedVisitorD0Ev@Base 4.2.0
 _ZN3ue218UnsupportedVisitorD1Ev@Base 4.2.0
 _ZN3ue218UnsupportedVisitorD2Ev@Base 4.2.0
 _ZN3ue218applyGreyOverridesEPNS_4GreyERKNSt7__cxx1112basic_stringIcSt11char_traitsIcESaIcEEE@Base 4.2.0
 _ZN3ue218attemptToBuildHaigERKNS_8NGHolderE8som_typejRKSt6vectorIS4_INS_9CharReachESaIS5_EESaIS7_EERKNS_4GreyEb@Base 4.2.0
 _ZN3ue218attemptToMergeHaigERKSt6vectorIPKNS_11raw_som_dfaESaIS3_EEj@Base 4.2.0
 _ZN3ue218canImplementGraphsERKNS_13RoseBuildImplE@Base 4.2.0
 _ZN3ue218commonPrefixLengthERKNS_8NGHolderERKN5boost9unordered13unordered_mapIPvjNS3_4hashIS6_EESt8equal_toIS6_ESaISt4pairIKS6_jEEEES2_SH_@Base 4.2.0
 _ZN3ue218dumpDotPreambleDfaEP8_IO_FILE@Base 4.2.0
 _ZN3ue218dumpDotWrapperImplERKNS_9NGWrapperEPKcRKNS_4GreyE@Base 4.2.0
 _ZN3ue218dumpSomSlotManagerERKNS_14SomSlotManagerERKNS_4GreyE@Base 4.2.0
 _ZN3ue218fillExpressionInfoERNS_13ReportManagerERNS_9NGWrapperEP12hs_expr_info@Base 4.2.0
 _ZN3ue218findPostDominatorsERKNS_8NGHolderE@Base 4.2.0
 _ZN3ue218getFdrDescriptionsEPSt6vectorINS_20FDREngineDescriptionESaIS1_EE@Base 4.2.0
 _ZN3ue218getTrailingLiteralERKNS_8NGHolderEPNS_11ue2_literalE@Base 4.2.0
 _ZN3ue218getUcpMeetei_MayekEv@Base 4.2.0
 _ZN3ue218getUcpPahawh_HmongEv@Base 4.2.0
 _ZN3ue218getUcpSora_SompengEv@Base 4.2.0
 _ZN3ue218getUcpSyloti_NagriEv@Base 4.2.0
 _ZN3ue218get_current_targetEv@Base 4.2.0
 _ZN3ue218hasAnchHistorySuccERKN5boost14adjacency_listINS0_5listSES2_NS0_14bidirectionalSENS_15RoseVertexPropsENS_13RoseEdgePropsES2_S2_EEPv@Base 4.2.0
 _ZN3ue218isImplementableNFAERKNS_8NGHolderEPKNS_13ReportManagerERKNS_14CompileContextE@Base 4.2.0
 _ZN3ue218makeReportsSomPassERNS_13ReportManagerERNS_8NGHolderE@Base 4.2.0
 _ZN3ue218markToppableStartsERKNS_8NGHolderERKNS_8flat_setIPvSt4lessIS4_ESaIS4_EEEbRKSt6vectorISB_INS_9CharReachESaISC_EESaISE_EEPN5boost14dynamic_bitsetImSaImEEE@Base 4.2.0
 _ZN3ue218matches_everywhereERKNS_8NGHolderE@Base 4.2.0
 _ZN3ue218mcclellanCompile_iERNS_7raw_dfaERNS_15dfa_build_stratERKNS_14CompileContextEPSt3setItSt4lessItESaItEE@Base 4.2.0
 _ZN3ue218mergeSmallSuffixesERNS_13RoseBuildImplE@Base 4.2.0
 _ZN3ue218nfaCheckMultiAccelERKNS_8NGHolderERKSt6vectorIPvSaIS4_EERKNS_14CompileContextE@Base 4.2.0
 _ZN3ue218pruneEmptyVerticesERNS_8NGHolderE@Base 4.2.0
 _ZN3ue218relaxForbiddenUtf8ERNS_9NGWrapperE@Base 4.2.0
 _ZN3ue218roseDumpComponentsEPK10RoseEnginebRKNSt7__cxx1112basic_stringIcSt11char_traitsIcESaIcEEE@Base 4.2.0
 _ZN3ue218target_to_platformERKNS_8target_tE@Base 4.2.0
 _ZN3ue218utf8DotRestorationERNS_8NGHolderEb@Base 4.2.0
 _ZN3ue219AsciiComponentClass11createRangeEj@Base 4.2.0
 _ZN3ue219AsciiComponentClass13notePositionsERNS_18GlushkovBuildStateE@Base 4.2.0
 _ZN3ue219AsciiComponentClass14buildFollowSetERNS_18GlushkovBuildStateERKSt6vectorINS_12PositionInfoESaIS4_EE@Base 4.2.0
 _ZN3ue219AsciiComponentClass3addENS_15PredefinedClassEb@Base 4.2.0
 _ZN3ue219AsciiComponentClass3addEj@Base 4.2.0
 _ZN3ue219AsciiComponentClass6acceptERNS_16ComponentVisitorE@Base 4.2.0
 _ZN3ue219AsciiComponentClass8finalizeEv@Base 4.2.0
 _ZN3ue219AsciiComponentClassC1ERKNS_9ParseModeE@Base 4.2.0
 _ZN3ue219AsciiComponentClassC2ERKNS_9ParseModeE@Base 4.2.0
 _ZN3ue219AsciiComponentClassD0Ev@Base 4.2.0
 _ZN3ue219AsciiComponentClassD1Ev@Base 4.2.0
 _ZN3ue219AsciiComponentClassD2Ev@Base 4.2.0
 _ZN3ue219clear_vertex_fasterIN5boost14adjacency_listINS1_5listSES3_NS1_14bidirectionalSENS_15RoseVertexPropsENS_13RoseEdgePropsES3_S3_EEEEvNT_17vertex_descriptorERS8_@Base 4.2.0
 _ZN3ue219clear_vertex_fasterIN5boost14adjacency_listINS1_5listSES3_NS1_14bidirectionalSENS_19NFAGraphVertexPropsENS_17NFAGraphEdgePropsENS1_11no_propertyES3_EEEEvNT_17vertex_descriptorERS9_@Base 4.2.0
 _ZN3ue219fdrBuildTableHintedERKSt6vectorINS_11hwlmLiteralESaIS1_EEbjRKNS_8target_tERKNS_4GreyEPNS_20hwlmStreamingControlE@Base 4.2.0
 _ZN3ue219findBestAccelSchemeESt6vectorIS0_INS_9CharReachESaIS1_EESaIS3_EERKS1_b@Base 4.2.0
 _ZN3ue219findLookaroundMasksERKNS_13RoseBuildImplEPvRSt6vectorINS_9LookEntryESaIS5_EE@Base 4.2.0
 _ZN3ue219findMaxInfixMatchesERKNS_7left_idERKSt3setINS_11ue2_literalESt4lessIS4_ESaIS4_EE@Base 4.2.0
 _ZN3ue219getDistancesFromSOMERKNS_8NGHolderE@Base 4.2.0
 _ZN3ue219getSoleSourceVertexERKNS_8NGHolderEPv@Base 4.2.0
 _ZN3ue219getTeddyDescriptionEj@Base 4.2.0
 _ZN3ue219getUcpMende_KikakuiEv@Base 4.2.0
 _ZN3ue219has_bounded_repeatsERK3NFA@Base 4.2.0
 _ZN3ue219has_non_eod_acceptsERKNS_7raw_dfaE@Base 4.2.0
 _ZN3ue219has_non_eod_acceptsERKNS_9suffix_idE@Base 4.2.0
 _ZN3ue219hash_dfa_no_reportsERKNS_7raw_dfaE@Base 4.2.0
 _ZN3ue219makeComponentRepeatESt10unique_ptrINS_9ComponentESt14default_deleteIS1_EEjjNS_15ComponentRepeat10RepeatTypeE@Base 4.2.0
 _ZN3ue219mergeCastleSuffixesERNS_13RoseBuildImplE@Base 4.2.0
 _ZN3ue219mergeCyclicDotStarsERNS_8NGHolderE@Base 4.2.0
 _ZN3ue219mergeSmallLeftfixesERNS_13RoseBuildImplE@Base 4.2.0
 _ZN3ue219nfaExecMpv0_dumpDotEPK3NFAP8_IO_FILE@Base 4.2.0
 _ZN3ue219prefilterReductionsERNS_8NGHolderERKNS_14CompileContextE@Base 4.2.0
 _ZN3ue219remove_leading_dotsERNS_7raw_dfaE@Base 4.2.0
 _ZN3ue219setDistinctRoseTopsERN5boost14adjacency_listINS0_5listSES2_NS0_14bidirectionalSENS_15RoseVertexPropsENS_13RoseEdgePropsES2_S2_EERNS_8NGHolderERKS8_RKSt5dequeIPvSaISD_EE@Base 4.2.0
 _ZN3ue219setupFullMultiConfsERKSt6vectorINS_11hwlmLiteralESaIS1_EERKNS_17EngineDescriptionERSt3mapIjS0_IjSaIjEESt4lessIjESaISt4pairIKjSB_EEEb@Base 4.2.0
 _ZN3ue219translateForUcpModeENS_15PredefinedClassERKNS_9ParseModeE@Base 4.2.0
 _ZN3ue220ComponentAlternation13notePositionsERNS_18GlushkovBuildStateE@Base 4.2.0
 _ZN3ue220ComponentAlternation14buildFollowSetERNS_18GlushkovBuildStateERKSt6vectorINS_12PositionInfoESaIS4_EE@Base 4.2.0
 _ZN3ue220ComponentAlternation6acceptERNS_16ComponentVisitorE@Base 4.2.0
 _ZN3ue220ComponentAlternation6appendESt10unique_ptrINS_9ComponentESt14default_deleteIS2_EE@Base 4.2.0
 _ZN3ue220ComponentAlternation8optimiseEb@Base 4.2.0
 _ZN3ue220ComponentAlternationC1ERKS0_@Base 4.2.0
 _ZN3ue220ComponentAlternationC1Ev@Base 4.2.0
 _ZN3ue220ComponentAlternationC2ERKS0_@Base 4.2.0
 _ZN3ue220ComponentAlternationC2Ev@Base 4.2.0
 _ZN3ue220ComponentAlternationD0Ev@Base 4.2.0
 _ZN3ue220ComponentAlternationD1Ev@Base 4.2.0
 _ZN3ue220ComponentAlternationD2Ev@Base 4.2.0
 _ZN3ue220ComponentAtomicGroup13notePositionsERNS_18GlushkovBuildStateE@Base 4.2.0
 _ZN3ue220ComponentAtomicGroup14buildFollowSetERNS_18GlushkovBuildStateERKSt6vectorINS_12PositionInfoESaIS4_EE@Base 4.2.0
 _ZN3ue220ComponentAtomicGroup6acceptERNS_16ComponentVisitorE@Base 4.2.0
 _ZN3ue220ComponentAtomicGroupD0Ev@Base 4.2.0
 _ZN3ue220ComponentAtomicGroupD1Ev@Base 4.2.0
 _ZN3ue220ComponentAtomicGroupD2Ev@Base 4.2.0
 _ZN3ue220FDREngineDescriptionC1ERKNS_12FDREngineDefE@Base 4.2.0
 _ZN3ue220FDREngineDescriptionC2ERKNS_12FDREngineDefE@Base 4.2.0
 _ZN3ue220FDREngineDescriptionD0Ev@Base 4.2.0
 _ZN3ue220FDREngineDescriptionD1Ev@Base 4.2.0
 _ZN3ue220FDREngineDescriptionD2Ev@Base 4.2.0
 _ZN3ue220addToAnchoredMatcherERNS_13RoseBuildImplERKNS_8NGHolderEjPj@Base 4.2.0
 _ZN3ue220buildAnchoredMatcherERNS_13RoseBuildImplERSt6vectorINS_7raw_dfaESaIS3_EEPm@Base 4.2.0
 _ZN3ue220buildFloatingMatcherERKNS_13RoseBuildImplEPmS3_S3_@Base 4.2.0
 _ZN3ue220constructReversedNFAERKNS_8NGHolderERKNS_14CompileContextE@Base 4.2.0
 _ZN3ue220constructReversedNFAERKNS_8NGHolderEjRKNS_14CompileContextE@Base 4.2.0
 _ZN3ue220ensureCodePointStartERNS_13ReportManagerERNS_9NGWrapperE@Base 4.2.0
 _ZN3ue220findVerticesInCyclesERKNS_8NGHolderE@Base 4.2.0
 _ZN3ue220generateCompileErrorERKNS_12CompileErrorE@Base 4.2.0
 _ZN3ue220generateCompileErrorERKNSt7__cxx1112basic_stringIcSt11char_traitsIcESaIcEEEi@Base 4.2.0
 _ZN3ue220getTeddyDescriptionsEPSt6vectorINS_22TeddyEngineDescriptionESaIS1_EE@Base 4.2.0
 _ZN3ue220handleExtendedParamsERNS_13ReportManagerERNS_9NGWrapperERKNS_14CompileContextE@Base 4.2.0
 _ZN3ue220hs_compile_multi_intEPKPKcPKjS5_PKPK11hs_expr_extjjPK16hs_platform_infoPP11hs_databasePP16hs_compile_errorRKNS_4GreyE@Base 4.2.0
 _ZN3ue220maxStringSelfOverlapERKNS_11ue2_literalE@Base 4.2.0
 _ZN3ue220maxStringSelfOverlapERKNSt7__cxx1112basic_stringIcSt11char_traitsIcESaIcEEEb@Base 4.2.0
 _ZN3ue220mergeAcyclicSuffixesERNS_13RoseBuildImplE@Base 4.2.0
 _ZN3ue220mergeCastleLeftfixesERNS_13RoseBuildImplE@Base 4.2.0
 _ZN3ue220nfaExecMpv0_dumpTextEPK3NFAP8_IO_FILE@Base 4.2.0
 _ZN3ue220normaliseLiteralMaskERKNS_11ue2_literalERSt6vectorIhSaIhEES6_@Base 4.2.0
 _ZN3ue220pruneAllOtherReportsERNS_8NGHolderEj@Base 4.2.0
 _ZN3ue220removeAssertVerticesERNS_13ReportManagerERNS_9NGWrapperE@Base 4.2.0
 _ZN3ue220removeEdgeRedundancyERNS_8NGHolderE8som_typeRKNS_14CompileContextE@Base 4.2.0
 _ZN3ue220setupFDRFloodControlERKSt6vectorINS_11hwlmLiteralESaIS1_EERKNS_17EngineDescriptionE@Base 4.2.0
 _ZN3ue220targetByArchFeaturesEy@Base 4.2.0
 _ZN3ue221ComponentWordBoundary13notePositionsERNS_18GlushkovBuildStateE@Base 4.2.0
 _ZN3ue221ComponentWordBoundary14buildFollowSetERNS_18GlushkovBuildStateERKSt6vectorINS_12PositionInfoESaIS4_EE@Base 4.2.0
 _ZN3ue221ComponentWordBoundary6acceptERNS_16ComponentVisitorE@Base 4.2.0
 _ZN3ue221ComponentWordBoundaryC1EjbRKNS_9ParseModeE@Base 4.2.0
 _ZN3ue221ComponentWordBoundaryC2EjbRKNS_9ParseModeE@Base 4.2.0
 _ZN3ue221ComponentWordBoundaryD0Ev@Base 4.2.0
 _ZN3ue221ComponentWordBoundaryD1Ev@Base 4.2.0
 _ZN3ue221ComponentWordBoundaryD2Ev@Base 4.2.0
 _ZN3ue221ConstComponentVisitorD0Ev@Base 4.2.0
 _ZN3ue221ConstComponentVisitorD1Ev@Base 4.2.0
 _ZN3ue221ConstComponentVisitorD2Ev@Base 4.2.0
 _ZN3ue221GoughSSAVarWithInputs9clear_allEv@Base 4.2.0
 _ZN3ue221aligned_free_internalEPv@Base 4.2.0
 _ZN3ue221buildStateScatterPlanEjjjjRK16RoseStateOffsetsbjjjPNS_16scatter_plan_rawE@Base 4.2.0
 _ZN3ue221can_only_match_at_eodERKNS_8NGHolderE@Base 4.2.0
 _ZN3ue221convertPrefixToBoundsERNS_13RoseBuildImplE@Base 4.2.0
 _ZN3ue221find_normal_self_loopEmRKN5boost14adjacency_listINS0_4vecSES2_NS0_14bidirectionalSENS_16GoughVertexPropsENS_14GoughEdgePropsENS_15GoughGraphPropsENS0_5listSEEEPNS0_6detail14edge_desc_implINS0_17bidirectional_tagEmEE@Base 4.2.0
 _ZN3ue221getUcpPsalter_PahlaviEv@Base 4.2.0
 _ZN3ue221makeLeftfixLookaroundERKNS_13RoseBuildImplEPvRSt6vectorINS_9LookEntryESaIS5_EE@Base 4.2.0
 _ZN3ue221makeSmallWriteBuilderERKNS_13ReportManagerERKNS_14CompileContextE@Base 4.2.0
 _ZN3ue221mcclellan_build_strat10buildAccelEtRKNS_11AccelSchemeEPv@Base 4.2.0
 _ZN3ue221mcclellan_build_stratD0Ev@Base 4.2.0
 _ZN3ue221mcclellan_build_stratD1Ev@Base 4.2.0
 _ZN3ue221mcclellan_build_stratD2Ev@Base 4.2.0
 _ZN3ue221mergeableRoseVerticesERKNS_13RoseBuildImplEPvS3_@Base 4.2.0
 _ZN3ue221mergeableRoseVerticesERKNS_13RoseBuildImplERKSt3setIPvSt4lessIS4_ESaIS4_EESA_@Base 4.2.0
 _ZN3ue221mmbBuildInitRangePlanEjjjPNS_16scatter_plan_rawE@Base 4.2.0
 _ZN3ue221nfaExecGough8_dumpDotEPK3NFAP8_IO_FILE@Base 4.2.0
 _ZN3ue221nfaExecLbrDot_dumpDotEPK3NFAP8_IO_FILE@Base 4.2.0
 _ZN3ue221optimiseVirtualStartsERNS_8NGHolderE@Base 4.2.0
 _ZN3ue221removeCyclicDominatedERNS_8NGHolderE8som_type@Base 4.2.0
 _ZN3ue221teddyBuildTableHintedERKSt6vectorINS_11hwlmLiteralESaIS1_EEbjRKNS_8target_tESt4pairIPhmE@Base 4.2.0
 _ZN3ue222ComponentBackReference13notePositionsERNS_18GlushkovBuildStateE@Base 4.2.0
 _ZN3ue222ComponentBackReference14buildFollowSetERNS_18GlushkovBuildStateERKSt6vectorINS_12PositionInfoESaIS4_EE@Base 4.2.0
 _ZN3ue222ComponentBackReference6acceptERNS_16ComponentVisitorE@Base 4.2.0
 _ZN3ue222ComponentBackReferenceC1ERKNSt7__cxx1112basic_stringIcSt11char_traitsIcESaIcEEE@Base 4.2.0
 _ZN3ue222ComponentBackReferenceC1Ej@Base 4.2.0
 _ZN3ue222ComponentBackReferenceC2ERKNSt7__cxx1112basic_stringIcSt11char_traitsIcESaIcEEE@Base 4.2.0
 _ZN3ue222ComponentBackReferenceC2Ej@Base 4.2.0
 _ZN3ue222ComponentBackReferenceD0Ev@Base 4.2.0
 _ZN3ue222ComponentBackReferenceD1Ev@Base 4.2.0
 _ZN3ue222ComponentBackReferenceD2Ev@Base 4.2.0
 _ZN3ue222ComponentCondReference13notePositionsERNS_18GlushkovBuildStateE@Base 4.2.0
 _ZN3ue222ComponentCondReference14addAlternationEv@Base 4.2.0
 _ZN3ue222ComponentCondReference14buildFollowSetERNS_18GlushkovBuildStateERKSt6vectorINS_12PositionInfoESaIS4_EE@Base 4.2.0
 _ZN3ue222ComponentCondReference6acceptERNS_16ComponentVisitorE@Base 4.2.0
 _ZN3ue222ComponentCondReferenceC1ERKNSt7__cxx1112basic_stringIcSt11char_traitsIcESaIcEEE@Base 4.2.0
 _ZN3ue222ComponentCondReferenceC1ERKS0_@Base 4.2.0
 _ZN3ue222ComponentCondReferenceC1ESt10unique_ptrINS_9ComponentESt14default_deleteIS2_EE@Base 4.2.0
 _ZN3ue222ComponentCondReferenceC1Ej@Base 4.2.0
 _ZN3ue222ComponentCondReferenceC2ERKNSt7__cxx1112basic_stringIcSt11char_traitsIcESaIcEEE@Base 4.2.0
 _ZN3ue222ComponentCondReferenceC2ERKS0_@Base 4.2.0
 _ZN3ue222ComponentCondReferenceC2ESt10unique_ptrINS_9ComponentESt14default_deleteIS2_EE@Base 4.2.0
 _ZN3ue222ComponentCondReferenceC2Ej@Base 4.2.0
 _ZN3ue222ComponentCondReferenceD0Ev@Base 4.2.0
 _ZN3ue222ComponentCondReferenceD1Ev@Base 4.2.0
 _ZN3ue222ComponentCondReferenceD2Ev@Base 4.2.0
 _ZN3ue222TeddyEngineDescriptionC1ERKNS_14TeddyEngineDefE@Base 4.2.0
 _ZN3ue222TeddyEngineDescriptionC2ERKNS_14TeddyEngineDefE@Base 4.2.0
 _ZN3ue222TeddyEngineDescriptionD0Ev@Base 4.2.0
 _ZN3ue222TeddyEngineDescriptionD1Ev@Base 4.2.0
 _ZN3ue222TeddyEngineDescriptionD2Ev@Base 4.2.0
 _ZN3ue222aligned_zmalloc_uniqueI3NFAEESt10unique_ptrIT_NS_14AlignedDeleterIS3_EEEm@Base 4.2.0
 _ZN3ue222buildSmallBlockMatcherERKNS_13RoseBuildImplEPm@Base 4.2.0
 _ZN3ue222fdrBuildTableStreamingERKSt6vectorINS_11hwlmLiteralESaIS1_EEPNS_20hwlmStreamingControlE@Base 4.2.0
 _ZN3ue222fillHamsterLiteralListERKNS_13RoseBuildImplENS_18rose_literal_tableE@Base 4.2.0
 _ZN3ue222findNonOverlappingTailERKSt3setINS_11ue2_literalESt4lessIS1_ESaIS1_EERKS1_@Base 4.2.0
 _ZN3ue222getPredefinedCharReachENS_15PredefinedClassERKNS_9ParseModeE@Base 4.2.0
 _ZN3ue222getUcpImperial_AramaicEv@Base 4.2.0
 _ZN3ue222getUcpMeroitic_CursiveEv@Base 4.2.0
 _ZN3ue222handleSmallLiteralSetsERNS_9RoseBuildERKNS_8NGHolderERKNS_14CompileContextE@Base 4.2.0
 _ZN3ue222hasLastByteHistorySuccERKN5boost14adjacency_listINS0_5listSES2_NS0_14bidirectionalSENS_15RoseVertexPropsENS_13RoseEdgePropsES2_S2_EEPv@Base 4.2.0
 _ZN3ue222isAlternationOfClassesERKNS_8NGHolderE@Base 4.2.0
 _ZN3ue222makeGlushkovBuildStateERNS_10NFABuilderEb@Base 4.2.0
 _ZN3ue222maxDistFromStartOfDataERKNS_14NFAVertexDepthE@Base 4.2.0
 _ZN3ue222mmbBuildSparseIteratorERSt6vectorI17mmbit_sparse_iterSaIS1_EERKS0_IjSaIjEEj@Base 4.2.0
 _ZN3ue222nfaExecCastle0_dumpDotEPK3NFAP8_IO_FILE@Base 4.2.0
 _ZN3ue222nfaExecGough16_dumpDotEPK3NFAP8_IO_FILE@Base 4.2.0
 _ZN3ue222nfaExecGough8_dumpTextEPK3NFAP8_IO_FILE@Base 4.2.0
 _ZN3ue222nfaExecLbrDot_dumpTextEPK3NFAP8_IO_FILE@Base 4.2.0
 _ZN3ue222nfaExecLbrShuf_dumpDotEPK3NFAP8_IO_FILE@Base 4.2.0
 _ZN3ue222nfaExecLbrTruf_dumpDotEPK3NFAP8_IO_FILE@Base 4.2.0
 _ZN3ue222nfaExecLbrVerm_dumpDotEPK3NFAP8_IO_FILE@Base 4.2.0
 _ZN3ue222pruneHighlanderAcceptsERNS_8NGHolderERKNS_13ReportManagerE@Base 4.2.0
 _ZN3ue222removeRegionRedundancyERNS_8NGHolderE8som_type@Base 4.2.0
 _ZN3ue222shuftiBuildDoubleMasksERKNS_9CharReachERKNS_8flat_setISt4pairIhhESt4lessIS5_ESaIS5_EEEPDv2_xSD_SD_SD_@Base 4.2.0
 _ZN3ue222shuftiBuildDoubleMasksERKNS_9CharReachERKNS_8flat_setISt4pairIhhESt4lessIS5_ESaIS5_EEEPU8__vectorxSD_SD_SD_@Base 4.2.0
 _ZN3ue222splitOffLeadingLiteralERKNS_8NGHolderEPNS_11ue2_literalEPS0_@Base 4.2.0
 _ZN3ue222triggerKillsRoseCastleERKNS_13RoseBuildImplERKNS_7left_idERKSt3setINS_11ue2_literalESt4lessIS7_ESaIS7_EERKN5boost6detail14edge_desc_implINSE_17bidirectional_tagEPvEE@Base 4.2.0
 _ZN3ue223ConstructLiteralVisitor3preERKNS_12ComponentEUSE@Base 4.2.0
 _ZN3ue223ConstructLiteralVisitor3preERKNS_13ComponentByteE@Base 4.2.0
 _ZN3ue223ConstructLiteralVisitor3preERKNS_14ComponentEmptyE@Base 4.2.0
 _ZN3ue223ConstructLiteralVisitor3preERKNS_15ComponentRepeatE@Base 4.2.0
 _ZN3ue223ConstructLiteralVisitor3preERKNS_17ComponentBoundaryE@Base 4.2.0
 _ZN3ue223ConstructLiteralVisitor3preERKNS_17ComponentSequenceE@Base 4.2.0
 _ZN3ue223ConstructLiteralVisitor3preERKNS_18ComponentAssertionE@Base 4.2.0
 _ZN3ue223ConstructLiteralVisitor3preERKNS_18UTF8ComponentClassE@Base 4.2.0
 _ZN3ue223ConstructLiteralVisitor3preERKNS_19AsciiComponentClassE@Base 4.2.0
 _ZN3ue223ConstructLiteralVisitor3preERKNS_20ComponentAlternationE@Base 4.2.0
 _ZN3ue223ConstructLiteralVisitor3preERKNS_20ComponentAtomicGroupE@Base 4.2.0
 _ZN3ue223ConstructLiteralVisitor3preERKNS_21ComponentWordBoundaryE@Base 4.2.0
 _ZN3ue223ConstructLiteralVisitor3preERKNS_22ComponentBackReferenceE@Base 4.2.0
 _ZN3ue223ConstructLiteralVisitor3preERKNS_22ComponentCondReferenceE@Base 4.2.0
 _ZN3ue223ConstructLiteralVisitor4postERKNS_12ComponentEUSE@Base 4.2.0
 _ZN3ue223ConstructLiteralVisitor4postERKNS_13ComponentByteE@Base 4.2.0
 _ZN3ue223ConstructLiteralVisitor4postERKNS_14ComponentEmptyE@Base 4.2.0
 _ZN3ue223ConstructLiteralVisitor4postERKNS_15ComponentRepeatE@Base 4.2.0
 _ZN3ue223ConstructLiteralVisitor4postERKNS_17ComponentBoundaryE@Base 4.2.0
 _ZN3ue223ConstructLiteralVisitor4postERKNS_17ComponentSequenceE@Base 4.2.0
 _ZN3ue223ConstructLiteralVisitor4postERKNS_18ComponentAssertionE@Base 4.2.0
 _ZN3ue223ConstructLiteralVisitor4postERKNS_18UTF8ComponentClassE@Base 4.2.0
 _ZN3ue223ConstructLiteralVisitor4postERKNS_19AsciiComponentClassE@Base 4.2.0
 _ZN3ue223ConstructLiteralVisitor4postERKNS_20ComponentAlternationE@Base 4.2.0
 _ZN3ue223ConstructLiteralVisitor4postERKNS_20ComponentAtomicGroupE@Base 4.2.0
 _ZN3ue223ConstructLiteralVisitor4postERKNS_21ComponentWordBoundaryE@Base 4.2.0
 _ZN3ue223ConstructLiteralVisitor4postERKNS_22ComponentBackReferenceE@Base 4.2.0
 _ZN3ue223ConstructLiteralVisitor4postERKNS_22ComponentCondReferenceE@Base 4.2.0
 _ZN3ue223ConstructLiteralVisitor6duringERKNS_12ComponentEUSE@Base 4.2.0
 _ZN3ue223ConstructLiteralVisitor6duringERKNS_13ComponentByteE@Base 4.2.0
 _ZN3ue223ConstructLiteralVisitor6duringERKNS_14ComponentEmptyE@Base 4.2.0
 _ZN3ue223ConstructLiteralVisitor6duringERKNS_15ComponentRepeatE@Base 4.2.0
 _ZN3ue223ConstructLiteralVisitor6duringERKNS_17ComponentBoundaryE@Base 4.2.0
 _ZN3ue223ConstructLiteralVisitor6duringERKNS_17ComponentSequenceE@Base 4.2.0
 _ZN3ue223ConstructLiteralVisitor6duringERKNS_18ComponentAssertionE@Base 4.2.0
 _ZN3ue223ConstructLiteralVisitor6duringERKNS_18UTF8ComponentClassE@Base 4.2.0
 _ZN3ue223ConstructLiteralVisitor6duringERKNS_19AsciiComponentClassE@Base 4.2.0
 _ZN3ue223ConstructLiteralVisitor6duringERKNS_20ComponentAlternationE@Base 4.2.0
 _ZN3ue223ConstructLiteralVisitor6duringERKNS_20ComponentAtomicGroupE@Base 4.2.0
 _ZN3ue223ConstructLiteralVisitor6duringERKNS_21ComponentWordBoundaryE@Base 4.2.0
 _ZN3ue223ConstructLiteralVisitor6duringERKNS_22ComponentBackReferenceE@Base 4.2.0
 _ZN3ue223ConstructLiteralVisitor6duringERKNS_22ComponentCondReferenceE@Base 4.2.0
 _ZN3ue223ConstructLiteralVisitorD0Ev@Base 4.2.0
 _ZN3ue223ConstructLiteralVisitorD1Ev@Base 4.2.0
 _ZN3ue223ConstructLiteralVisitorD2Ev@Base 4.2.0
 _ZN3ue223DefaultComponentVisitor4postEPNS_12ComponentEUSE@Base 4.2.0
 _ZN3ue223DefaultComponentVisitor4postEPNS_13ComponentByteE@Base 4.2.0
 _ZN3ue223DefaultComponentVisitor4postEPNS_14ComponentEmptyE@Base 4.2.0
 _ZN3ue223DefaultComponentVisitor4postEPNS_15ComponentRepeatE@Base 4.2.0
 _ZN3ue223DefaultComponentVisitor4postEPNS_17ComponentBoundaryE@Base 4.2.0
 _ZN3ue223DefaultComponentVisitor4postEPNS_17ComponentSequenceE@Base 4.2.0
 _ZN3ue223DefaultComponentVisitor4postEPNS_18ComponentAssertionE@Base 4.2.0
 _ZN3ue223DefaultComponentVisitor4postEPNS_18UTF8ComponentClassE@Base 4.2.0
 _ZN3ue223DefaultComponentVisitor4postEPNS_19AsciiComponentClassE@Base 4.2.0
 _ZN3ue223DefaultComponentVisitor4postEPNS_20ComponentAlternationE@Base 4.2.0
 _ZN3ue223DefaultComponentVisitor4postEPNS_20ComponentAtomicGroupE@Base 4.2.0
 _ZN3ue223DefaultComponentVisitor4postEPNS_21ComponentWordBoundaryE@Base 4.2.0
 _ZN3ue223DefaultComponentVisitor4postEPNS_22ComponentBackReferenceE@Base 4.2.0
 _ZN3ue223DefaultComponentVisitor4postEPNS_22ComponentCondReferenceE@Base 4.2.0
 _ZN3ue223DefaultComponentVisitor5visitEPNS_12ComponentEUSE@Base 4.2.0
 _ZN3ue223DefaultComponentVisitor5visitEPNS_13ComponentByteE@Base 4.2.0
 _ZN3ue223DefaultComponentVisitor5visitEPNS_14ComponentEmptyE@Base 4.2.0
 _ZN3ue223DefaultComponentVisitor5visitEPNS_15ComponentRepeatE@Base 4.2.0
 _ZN3ue223DefaultComponentVisitor5visitEPNS_17ComponentBoundaryE@Base 4.2.0
 _ZN3ue223DefaultComponentVisitor5visitEPNS_17ComponentSequenceE@Base 4.2.0
 _ZN3ue223DefaultComponentVisitor5visitEPNS_18ComponentAssertionE@Base 4.2.0
 _ZN3ue223DefaultComponentVisitor5visitEPNS_18UTF8ComponentClassE@Base 4.2.0
 _ZN3ue223DefaultComponentVisitor5visitEPNS_19AsciiComponentClassE@Base 4.2.0
 _ZN3ue223DefaultComponentVisitor5visitEPNS_20ComponentAlternationE@Base 4.2.0
 _ZN3ue223DefaultComponentVisitor5visitEPNS_20ComponentAtomicGroupE@Base 4.2.0
 _ZN3ue223DefaultComponentVisitor5visitEPNS_21ComponentWordBoundaryE@Base 4.2.0
 _ZN3ue223DefaultComponentVisitor5visitEPNS_22ComponentBackReferenceE@Base 4.2.0
 _ZN3ue223DefaultComponentVisitor5visitEPNS_22ComponentCondReferenceE@Base 4.2.0
 _ZN3ue223DefaultComponentVisitorC1Ev@Base 4.2.0
 _ZN3ue223DefaultComponentVisitorC2Ev@Base 4.2.0
 _ZN3ue223DefaultComponentVisitorD0Ev@Base 4.2.0
 _ZN3ue223DefaultComponentVisitorD1Ev@Base 4.2.0
 _ZN3ue223DefaultComponentVisitorD2Ev@Base 4.2.0
 _ZN3ue223MultiaccelCompileHelper10canAdvanceEv@Base 4.2.0
 _ZN3ue223MultiaccelCompileHelper13getBestSchemeEv@Base 4.2.0
 _ZN3ue223MultiaccelCompileHelper7advanceERKNS_9CharReachE@Base 4.2.0
 _ZN3ue223MultiaccelCompileHelperC1ERKNS_9CharReachEjj@Base 4.2.0
 _ZN3ue223MultiaccelCompileHelperC2ERKNS_9CharReachEjj@Base 4.2.0
 _ZN3ue223add_edge_if_not_presentINS_8NGHolderEEESt4pairINT_15edge_descriptorEbENS3_17vertex_descriptorES6_RKNS3_18edge_property_typeERS3_@Base 4.2.0
 _ZN3ue223add_edge_if_not_presentINS_8NGHolderEEESt4pairINT_15edge_descriptorEbENS3_17vertex_descriptorES6_RS3_@Base 4.2.0
 _ZN3ue223aligned_malloc_internalEmm@Base 4.2.0
 _ZN3ue223buildEodAnchoredMatcherERKNS_13RoseBuildImplEPm@Base 4.2.0
 _ZN3ue223dumpSomSubComponentImplERKNS_8NGHolderEPKcjjjRKNS_4GreyE@Base 4.2.0
 _ZN3ue223findCountingMiracleInfoERKNS_7left_idERKSt6vectorIhSaIhEEPhPNS_9CharReachE@Base 4.2.0
 _ZN3ue223findHighlanderSquashersERKNS_8NGHolderERKNS_13ReportManagerE@Base 4.2.0
 _ZN3ue223getUcpOld_North_ArabianEv@Base 4.2.0
 _ZN3ue223getUcpOld_South_ArabianEv@Base 4.2.0
 _ZN3ue223handleDecoratedLiteralsERNS_9RoseBuildERKNS_8NGHolderERKNS_14CompileContextE@Base 4.2.0
 _ZN3ue223hwlmFloodProneSuffixLenEmRKNS_14CompileContextE@Base 4.2.0
 _ZN3ue223mcclellanStartReachSizeEPKNS_7raw_dfaE@Base 4.2.0
 _ZN3ue223nfaExecCastle0_dumpTextEPK3NFAP8_IO_FILE@Base 4.2.0
 _ZN3ue223nfaExecGough16_dumpTextEPK3NFAP8_IO_FILE@Base 4.2.0
 _ZN3ue223nfaExecLbrNVerm_dumpDotEPK3NFAP8_IO_FILE@Base 4.2.0
 _ZN3ue223nfaExecLbrShuf_dumpTextEPK3NFAP8_IO_FILE@Base 4.2.0
 _ZN3ue223nfaExecLbrTruf_dumpTextEPK3NFAP8_IO_FILE@Base 4.2.0
 _ZN3ue223nfaExecLbrVerm_dumpTextEPK3NFAP8_IO_FILE@Base 4.2.0
 _ZN3ue223reduceGraphEquivalencesERNS_8NGHolderERKNS_14CompileContextE@Base 4.2.0
 _ZN3ue223requires_decompress_keyERK3NFA@Base 4.2.0
 _ZN3ue223splitOffAnchoredAcyclicERNS_9RoseBuildERKNS_8NGHolderERKNS_14CompileContextE@Base 4.2.0
 _ZN3ue224buildReverseAccelerationEP3NFARKNS_10RevAccInfoEjb@Base 4.2.0
 _ZN3ue224getLiteralComponentClassEhb@Base 4.2.0
 _ZN3ue224getUcpCaucasian_AlbanianEv@Base 4.2.0
 _ZN3ue224nfaExecLbrNVerm_dumpTextEPK3NFAP8_IO_FILE@Base 4.2.0
 _ZN3ue224nfaExecLimEx32_1_dumpDotEPK3NFAP8_IO_FILE@Base 4.2.0
 _ZN3ue224nfaExecLimEx32_2_dumpDotEPK3NFAP8_IO_FILE@Base 4.2.0
 _ZN3ue224nfaExecLimEx32_3_dumpDotEPK3NFAP8_IO_FILE@Base 4.2.0
 _ZN3ue224nfaExecLimEx32_4_dumpDotEPK3NFAP8_IO_FILE@Base 4.2.0
 _ZN3ue224nfaExecLimEx32_5_dumpDotEPK3NFAP8_IO_FILE@Base 4.2.0
 _ZN3ue224nfaExecLimEx32_6_dumpDotEPK3NFAP8_IO_FILE@Base 4.2.0
 _ZN3ue224nfaExecLimEx32_7_dumpDotEPK3NFAP8_IO_FILE@Base 4.2.0
 _ZN3ue224populateAccelerationInfoERKNS_7raw_dfaERKNS_15dfa_build_stratERKNS_4GreyE@Base 4.2.0
 _ZN3ue224pruneHighlanderDominatedERNS_8NGHolderERKNS_13ReportManagerE@Base 4.2.0
 _ZN3ue224reduceImplementableGraphERNS_8NGHolderE8som_typePKNS_13ReportManagerERKNS_14CompileContextE@Base 4.2.0
 _ZN3ue225allMatchStatesHaveReportsERKNS_8NGHolderE@Base 4.2.0
 _ZN3ue225convertAnchPrefixToBoundsERNS_13RoseBuildImplE@Base 4.2.0
 _ZN3ue225convertFloodProneSuffixesERNS_13RoseBuildImplE@Base 4.2.0
 _ZN3ue225find_allowed_accel_statesERKN5boost14adjacency_listINS0_4vecSES2_NS0_14bidirectionalSENS_16GoughVertexPropsENS_14GoughEdgePropsENS_15GoughGraphPropsENS0_5listSEEERKSt3mapINS_13gough_edge_idESt6vectorI9gough_insSaISE_EESt4lessISC_ESaISt4pairIKSC_SG_EEEPSB_ItNS_22gough_accel_state_infoESH_ItESaISJ_IKtSQ_EEE@Base 4.2.0
 _ZN3ue225getPredefinedCodePointSetENS_15PredefinedClassERKNS_9ParseModeE@Base 4.2.0
 _ZN3ue225getUcpCanadian_AboriginalEv@Base 4.2.0
 _ZN3ue225hasCorrectlyNumberedEdgesERKNS_8NGHolderE@Base 4.2.0
 _ZN3ue225mergeLeftfixesVariableLagERNS_13RoseBuildImplE@Base 4.2.0
 _ZN3ue225nfaExecLimEx128_1_dumpDotEPK3NFAP8_IO_FILE@Base 4.2.0
 _ZN3ue225nfaExecLimEx128_2_dumpDotEPK3NFAP8_IO_FILE@Base 4.2.0
 _ZN3ue225nfaExecLimEx128_3_dumpDotEPK3NFAP8_IO_FILE@Base 4.2.0
 _ZN3ue225nfaExecLimEx128_4_dumpDotEPK3NFAP8_IO_FILE@Base 4.2.0
 _ZN3ue225nfaExecLimEx128_5_dumpDotEPK3NFAP8_IO_FILE@Base 4.2.0
 _ZN3ue225nfaExecLimEx128_6_dumpDotEPK3NFAP8_IO_FILE@Base 4.2.0
 _ZN3ue225nfaExecLimEx128_7_dumpDotEPK3NFAP8_IO_FILE@Base 4.2.0
 _ZN3ue225nfaExecLimEx256_1_dumpDotEPK3NFAP8_IO_FILE@Base 4.2.0
 _ZN3ue225nfaExecLimEx256_2_dumpDotEPK3NFAP8_IO_FILE@Base 4.2.0
 _ZN3ue225nfaExecLimEx256_3_dumpDotEPK3NFAP8_IO_FILE@Base 4.2.0
 _ZN3ue225nfaExecLimEx256_4_dumpDotEPK3NFAP8_IO_FILE@Base 4.2.0
 _ZN3ue225nfaExecLimEx256_5_dumpDotEPK3NFAP8_IO_FILE@Base 4.2.0
 _ZN3ue225nfaExecLimEx256_6_dumpDotEPK3NFAP8_IO_FILE@Base 4.2.0
 _ZN3ue225nfaExecLimEx256_7_dumpDotEPK3NFAP8_IO_FILE@Base 4.2.0
 _ZN3ue225nfaExecLimEx32_1_dumpTextEPK3NFAP8_IO_FILE@Base 4.2.0
 _ZN3ue225nfaExecLimEx32_2_dumpTextEPK3NFAP8_IO_FILE@Base 4.2.0
 _ZN3ue225nfaExecLimEx32_3_dumpTextEPK3NFAP8_IO_FILE@Base 4.2.0
 _ZN3ue225nfaExecLimEx32_4_dumpTextEPK3NFAP8_IO_FILE@Base 4.2.0
 _ZN3ue225nfaExecLimEx32_5_dumpTextEPK3NFAP8_IO_FILE@Base 4.2.0
 _ZN3ue225nfaExecLimEx32_6_dumpTextEPK3NFAP8_IO_FILE@Base 4.2.0
 _ZN3ue225nfaExecLimEx32_7_dumpTextEPK3NFAP8_IO_FILE@Base 4.2.0
 _ZN3ue225nfaExecLimEx384_1_dumpDotEPK3NFAP8_IO_FILE@Base 4.2.0
 _ZN3ue225nfaExecLimEx384_2_dumpDotEPK3NFAP8_IO_FILE@Base 4.2.0
 _ZN3ue225nfaExecLimEx384_3_dumpDotEPK3NFAP8_IO_FILE@Base 4.2.0
 _ZN3ue225nfaExecLimEx384_4_dumpDotEPK3NFAP8_IO_FILE@Base 4.2.0
 _ZN3ue225nfaExecLimEx384_5_dumpDotEPK3NFAP8_IO_FILE@Base 4.2.0
 _ZN3ue225nfaExecLimEx384_6_dumpDotEPK3NFAP8_IO_FILE@Base 4.2.0
 _ZN3ue225nfaExecLimEx384_7_dumpDotEPK3NFAP8_IO_FILE@Base 4.2.0
 _ZN3ue225nfaExecLimEx512_1_dumpDotEPK3NFAP8_IO_FILE@Base 4.2.0
 _ZN3ue225nfaExecLimEx512_2_dumpDotEPK3NFAP8_IO_FILE@Base 4.2.0
 _ZN3ue225nfaExecLimEx512_3_dumpDotEPK3NFAP8_IO_FILE@Base 4.2.0
 _ZN3ue225nfaExecLimEx512_4_dumpDotEPK3NFAP8_IO_FILE@Base 4.2.0
 _ZN3ue225nfaExecLimEx512_5_dumpDotEPK3NFAP8_IO_FILE@Base 4.2.0
 _ZN3ue225nfaExecLimEx512_6_dumpDotEPK3NFAP8_IO_FILE@Base 4.2.0
 _ZN3ue225nfaExecLimEx512_7_dumpDotEPK3NFAP8_IO_FILE@Base 4.2.0
 _ZN3ue225nfaExecMcClellan8_dumpDotEPK3NFAP8_IO_FILE@Base 4.2.0
 _ZN3ue226buildAlphabetFromEquivSetsERKSt6vectorINS_9CharReachESaIS1_EERSt5arrayItLm257EES8_@Base 4.2.0
 _ZN3ue226copy_propagate_update_varsISt10shared_ptrINS_11GoughSSAVarEEEEvRSt6vectorIT_SaIS5_EEPb@Base 4.2.0
 _ZN3ue226copy_propagate_update_varsISt10shared_ptrINS_15GoughSSAVarJoinEEEEvRSt6vectorIT_SaIS5_EEPb@Base 4.2.0
 _ZN3ue226dedupeLeftfixesVariableLagERNS_13RoseBuildImplE@Base 4.2.0
 _ZN3ue226findLeftOffsetStopAlphabetERKNS_11CastleProtoE8som_type@Base 4.2.0
 _ZN3ue226findLeftOffsetStopAlphabetERKNS_8NGHolderE8som_type@Base 4.2.0
 _ZN3ue226find_mcclellan_escape_infoERKNS_7raw_dfaEtj@Base 4.2.0
 _ZN3ue226getFullTransitionFromStateERKNS_7raw_dfaEtPt@Base 4.2.0
 _ZN3ue226getUcpEgyptian_HieroglyphsEv@Base 4.2.0
 _ZN3ue226getUcpMeroitic_HieroglyphsEv@Base 4.2.0
 _ZN3ue226nfaExecLimEx128_1_dumpTextEPK3NFAP8_IO_FILE@Base 4.2.0
 _ZN3ue226nfaExecLimEx128_2_dumpTextEPK3NFAP8_IO_FILE@Base 4.2.0
 _ZN3ue226nfaExecLimEx128_3_dumpTextEPK3NFAP8_IO_FILE@Base 4.2.0
 _ZN3ue226nfaExecLimEx128_4_dumpTextEPK3NFAP8_IO_FILE@Base 4.2.0
 _ZN3ue226nfaExecLimEx128_5_dumpTextEPK3NFAP8_IO_FILE@Base 4.2.0
 _ZN3ue226nfaExecLimEx128_6_dumpTextEPK3NFAP8_IO_FILE@Base 4.2.0
 _ZN3ue226nfaExecLimEx128_7_dumpTextEPK3NFAP8_IO_FILE@Base 4.2.0
 _ZN3ue226nfaExecLimEx256_1_dumpTextEPK3NFAP8_IO_FILE@Base 4.2.0
 _ZN3ue226nfaExecLimEx256_2_dumpTextEPK3NFAP8_IO_FILE@Base 4.2.0
 _ZN3ue226nfaExecLimEx256_3_dumpTextEPK3NFAP8_IO_FILE@Base 4.2.0
 _ZN3ue226nfaExecLimEx256_4_dumpTextEPK3NFAP8_IO_FILE@Base 4.2.0
 _ZN3ue226nfaExecLimEx256_5_dumpTextEPK3NFAP8_IO_FILE@Base 4.2.0
 _ZN3ue226nfaExecLimEx256_6_dumpTextEPK3NFAP8_IO_FILE@Base 4.2.0
 _ZN3ue226nfaExecLimEx256_7_dumpTextEPK3NFAP8_IO_FILE@Base 4.2.0
 _ZN3ue226nfaExecLimEx384_1_dumpTextEPK3NFAP8_IO_FILE@Base 4.2.0
 _ZN3ue226nfaExecLimEx384_2_dumpTextEPK3NFAP8_IO_FILE@Base 4.2.0
 _ZN3ue226nfaExecLimEx384_3_dumpTextEPK3NFAP8_IO_FILE@Base 4.2.0
 _ZN3ue226nfaExecLimEx384_4_dumpTextEPK3NFAP8_IO_FILE@Base 4.2.0
 _ZN3ue226nfaExecLimEx384_5_dumpTextEPK3NFAP8_IO_FILE@Base 4.2.0
 _ZN3ue226nfaExecLimEx384_6_dumpTextEPK3NFAP8_IO_FILE@Base 4.2.0
 _ZN3ue226nfaExecLimEx384_7_dumpTextEPK3NFAP8_IO_FILE@Base 4.2.0
 _ZN3ue226nfaExecLimEx512_1_dumpTextEPK3NFAP8_IO_FILE@Base 4.2.0
 _ZN3ue226nfaExecLimEx512_2_dumpTextEPK3NFAP8_IO_FILE@Base 4.2.0
 _ZN3ue226nfaExecLimEx512_3_dumpTextEPK3NFAP8_IO_FILE@Base 4.2.0
 _ZN3ue226nfaExecLimEx512_4_dumpTextEPK3NFAP8_IO_FILE@Base 4.2.0
 _ZN3ue226nfaExecLimEx512_5_dumpTextEPK3NFAP8_IO_FILE@Base 4.2.0
 _ZN3ue226nfaExecLimEx512_6_dumpTextEPK3NFAP8_IO_FILE@Base 4.2.0
 _ZN3ue226nfaExecLimEx512_7_dumpTextEPK3NFAP8_IO_FILE@Base 4.2.0
 _ZN3ue226nfaExecMcClellan16_dumpDotEPK3NFAP8_IO_FILE@Base 4.2.0
 _ZN3ue226nfaExecMcClellan8_dumpTextEPK3NFAP8_IO_FILE@Base 4.2.0
 _ZN3ue226removeCyclicPathRedundancyERNS_8NGHolderE@Base 4.2.0
 _ZN3ue227getUcpInscriptional_PahlaviEv@Base 4.2.0
 _ZN3ue227nfaExecMcClellan16_dumpTextEPK3NFAP8_IO_FILE@Base 4.2.0
 _ZN3ue227removeTrailingLiteralStatesERNS_8NGHolderERKNS_11ue2_literalEjb@Base 4.2.0
 _ZN3ue228DefaultConstComponentVisitor3preERKNS_12ComponentEUSE@Base 4.2.0
 _ZN3ue228DefaultConstComponentVisitor3preERKNS_13ComponentByteE@Base 4.2.0
 _ZN3ue228DefaultConstComponentVisitor3preERKNS_14ComponentEmptyE@Base 4.2.0
 _ZN3ue228DefaultConstComponentVisitor3preERKNS_15ComponentRepeatE@Base 4.2.0
 _ZN3ue228DefaultConstComponentVisitor3preERKNS_17ComponentBoundaryE@Base 4.2.0
 _ZN3ue228DefaultConstComponentVisitor3preERKNS_17ComponentSequenceE@Base 4.2.0
 _ZN3ue228DefaultConstComponentVisitor3preERKNS_18ComponentAssertionE@Base 4.2.0
 _ZN3ue228DefaultConstComponentVisitor3preERKNS_18UTF8ComponentClassE@Base 4.2.0
 _ZN3ue228DefaultConstComponentVisitor3preERKNS_19AsciiComponentClassE@Base 4.2.0
 _ZN3ue228DefaultConstComponentVisitor3preERKNS_20ComponentAlternationE@Base 4.2.0
 _ZN3ue228DefaultConstComponentVisitor3preERKNS_20ComponentAtomicGroupE@Base 4.2.0
 _ZN3ue228DefaultConstComponentVisitor3preERKNS_21ComponentWordBoundaryE@Base 4.2.0
 _ZN3ue228DefaultConstComponentVisitor3preERKNS_22ComponentBackReferenceE@Base 4.2.0
 _ZN3ue228DefaultConstComponentVisitor3preERKNS_22ComponentCondReferenceE@Base 4.2.0
 _ZN3ue228DefaultConstComponentVisitor4postERKNS_12ComponentEUSE@Base 4.2.0
 _ZN3ue228DefaultConstComponentVisitor4postERKNS_13ComponentByteE@Base 4.2.0
 _ZN3ue228DefaultConstComponentVisitor4postERKNS_14ComponentEmptyE@Base 4.2.0
 _ZN3ue228DefaultConstComponentVisitor4postERKNS_15ComponentRepeatE@Base 4.2.0
 _ZN3ue228DefaultConstComponentVisitor4postERKNS_17ComponentBoundaryE@Base 4.2.0
 _ZN3ue228DefaultConstComponentVisitor4postERKNS_17ComponentSequenceE@Base 4.2.0
 _ZN3ue228DefaultConstComponentVisitor4postERKNS_18ComponentAssertionE@Base 4.2.0
 _ZN3ue228DefaultConstComponentVisitor4postERKNS_18UTF8ComponentClassE@Base 4.2.0
 _ZN3ue228DefaultConstComponentVisitor4postERKNS_19AsciiComponentClassE@Base 4.2.0
 _ZN3ue228DefaultConstComponentVisitor4postERKNS_20ComponentAlternationE@Base 4.2.0
 _ZN3ue228DefaultConstComponentVisitor4postERKNS_20ComponentAtomicGroupE@Base 4.2.0
 _ZN3ue228DefaultConstComponentVisitor4postERKNS_21ComponentWordBoundaryE@Base 4.2.0
 _ZN3ue228DefaultConstComponentVisitor4postERKNS_22ComponentBackReferenceE@Base 4.2.0
 _ZN3ue228DefaultConstComponentVisitor4postERKNS_22ComponentCondReferenceE@Base 4.2.0
 _ZN3ue228DefaultConstComponentVisitor6duringERKNS_12ComponentEUSE@Base 4.2.0
 _ZN3ue228DefaultConstComponentVisitor6duringERKNS_13ComponentByteE@Base 4.2.0
 _ZN3ue228DefaultConstComponentVisitor6duringERKNS_14ComponentEmptyE@Base 4.2.0
 _ZN3ue228DefaultConstComponentVisitor6duringERKNS_15ComponentRepeatE@Base 4.2.0
 _ZN3ue228DefaultConstComponentVisitor6duringERKNS_17ComponentBoundaryE@Base 4.2.0
 _ZN3ue228DefaultConstComponentVisitor6duringERKNS_17ComponentSequenceE@Base 4.2.0
 _ZN3ue228DefaultConstComponentVisitor6duringERKNS_18ComponentAssertionE@Base 4.2.0
 _ZN3ue228DefaultConstComponentVisitor6duringERKNS_18UTF8ComponentClassE@Base 4.2.0
 _ZN3ue228DefaultConstComponentVisitor6duringERKNS_19AsciiComponentClassE@Base 4.2.0
 _ZN3ue228DefaultConstComponentVisitor6duringERKNS_20ComponentAlternationE@Base 4.2.0
 _ZN3ue228DefaultConstComponentVisitor6duringERKNS_20ComponentAtomicGroupE@Base 4.2.0
 _ZN3ue228DefaultConstComponentVisitor6duringERKNS_21ComponentWordBoundaryE@Base 4.2.0
 _ZN3ue228DefaultConstComponentVisitor6duringERKNS_22ComponentBackReferenceE@Base 4.2.0
 _ZN3ue228DefaultConstComponentVisitor6duringERKNS_22ComponentCondReferenceE@Base 4.2.0
 _ZN3ue228DefaultConstComponentVisitorC1Ev@Base 4.2.0
 _ZN3ue228DefaultConstComponentVisitorC2Ev@Base 4.2.0
 _ZN3ue228DefaultConstComponentVisitorD0Ev@Base 4.2.0
 _ZN3ue228DefaultConstComponentVisitorD1Ev@Base 4.2.0
 _ZN3ue228DefaultConstComponentVisitorD2Ev@Base 4.2.0
 _ZN3ue228getUcpInscriptional_ParthianEv@Base 4.2.0
 _ZN3ue228hasCorrectlyNumberedVerticesERKNS_8NGHolderE@Base 4.2.0
 _ZN3ue228mergeReverseAccelerationInfoERNS_10RevAccInfoERKS0_@Base 4.2.0
 _ZN3ue228removeSiblingsOfStartDotStarERNS_8NGHolderE@Base 4.2.0
 _ZN3ue22NG10addLiteralERKNS_11ue2_literalEjjb8som_type@Base 4.2.0
 _ZN3ue22NG8addGraphERNS_9NGWrapperE@Base 4.2.0
 _ZN3ue22NG9addHolderERNS_8NGHolderE@Base 4.2.0
 _ZN3ue22NGC1ERKNS_14CompileContextEj@Base 4.2.0
 _ZN3ue22NGC2ERKNS_14CompileContextEj@Base 4.2.0
 _ZN3ue22NGD1Ev@Base 4.2.0
 _ZN3ue22NGD2Ev@Base 4.2.0
 _ZN3ue230splitOffAnchoredLeadingLiteralERKNS_8NGHolderEPNS_11ue2_literalEPS0_@Base 4.2.0
 _ZN3ue231populateReverseAccelerationInfoERNS_10RevAccInfoERKNS_8NGHolderE@Base 4.2.0
 _ZN3ue237has_bounded_repeats_other_than_firstsERK3NFA@Base 4.2.0
 _ZN3ue23cmpEPKcS1_mb@Base 4.2.0
 _ZN3ue24GreyC1Ev@Base 4.2.0
 _ZN3ue24GreyC2Ev@Base 4.2.0
 _ZN3ue24dumpERKN5boost14adjacency_listINS0_4vecSES2_NS0_14bidirectionalSENS_16GoughVertexPropsENS_14GoughEdgePropsENS_15GoughGraphPropsENS0_5listSEEERKNSt7__cxx1112basic_stringIcSt11char_traitsIcESaIcEEERKNS_4GreyE@Base 4.2.0
 _ZN3ue24dumpERSoRKNS_12PositionInfoE@Base 4.2.0
 _ZN3ue25buildERNS_2NGEPj@Base 4.2.0
 _ZN3ue25depthC1Ej@Base 4.2.0
 _ZN3ue25depthC2Ej@Base 4.2.0
 _ZN3ue25doSomERNS_2NGERNS_8NGHolderERKNS_9NGWrapperEj8som_type@Base 4.2.0
 _ZN3ue25isLBRERKNS_8NGHolderERKNS_4GreyE@Base 4.2.0
 _ZN3ue25isSEPERKNS_8NGHolderERKNS_13ReportManagerERKNS_4GreyE@Base 4.2.0
 _ZN3ue25parseEPKcRNS_9ParseModeE@Base 4.2.0
 _ZN3ue26dstateD1Ev@Base 4.2.0
 _ZN3ue26dstateD2Ev@Base 4.2.0
 _ZN3ue26getAuxEPK3NFAt@Base 4.2.0
 _ZN3ue26insertINS_8flat_setIPvSt4lessIS2_ESaIS2_EEEN5boost18adjacency_iteratorINS7_14adjacency_listINS7_5listSESA_NS7_14bidirectionalSENS_19NFAGraphVertexPropsENS_17NFAGraphEdgePropsENS7_11no_propertyESA_EES2_NS7_6detail13out_edge_iterISt14_List_iteratorINSG_16stored_edge_iterIS2_SI_INS7_9list_edgeIS2_SD_EEESD_EEES2_NSG_14edge_desc_implINS7_17bidirectional_tagES2_EElEElEEEEvPT_RKSt4pairIT0_SX_E@Base 4.2.0
 _ZN3ue26insertINS_8flat_setIPvSt4lessIS2_ESaIS2_EEEN5boost22inv_adjacency_iteratorINS7_14adjacency_listINS7_5listSESA_NS7_14bidirectionalSENS_15RoseVertexPropsENS_13RoseEdgePropsESA_SA_EES2_NS7_6detail12in_edge_iterISt14_List_iteratorINSF_16stored_edge_iterIS2_SH_INS7_9list_edgeIS2_SD_EEESD_EEES2_NSF_14edge_desc_implINS7_17bidirectional_tagES2_EElEElEEEEvPT_RKSt4pairIT0_SW_E@Base 4.2.0
 _ZN3ue26insertINS_8flat_setIPvSt4lessIS2_ESaIS2_EEEN5boost22inv_adjacency_iteratorINS7_14adjacency_listINS7_5listSESA_NS7_14bidirectionalSENS_19NFAGraphVertexPropsENS_17NFAGraphEdgePropsENS7_11no_propertyESA_EES2_NS7_6detail12in_edge_iterISt14_List_iteratorINSG_16stored_edge_iterIS2_SI_INS7_9list_edgeIS2_SD_EEESD_EEES2_NSG_14edge_desc_implINS7_17bidirectional_tagES2_EElEElEEEEvPT_RKSt4pairIT0_SX_E@Base 4.2.0
 _ZN3ue26insertISt3setINS_11ue2_literalESt4lessIS2_ESaIS2_EESt6vectorIS2_S5_EEEvPT_RKT0_@Base 4.2.0
 _ZN3ue26insertISt3setIPvNS_19VertexIndexOrderingINS_8NGHolderEEESaIS2_EEN5boost22inv_adjacency_iteratorINS8_14adjacency_listINS8_5listSESB_NS8_14bidirectionalSENS_19NFAGraphVertexPropsENS_17NFAGraphEdgePropsENS8_11no_propertyESB_EES2_NS8_6detail12in_edge_iterISt14_List_iteratorINSH_16stored_edge_iterIS2_SJ_INS8_9list_edgeIS2_SE_EEESE_EEES2_NSH_14edge_desc_implINS8_17bidirectional_tagES2_EElEElEEEEvPT_RKSt4pairIT0_SY_E@Base 4.2.0
 _ZN3ue26insertISt3setIPvSt4lessIS2_ESaIS2_EEN5boost18adjacency_iteratorINS7_13reverse_graphINS7_14adjacency_listINS7_5listSESB_NS7_14bidirectionalSENS_19NFAGraphVertexPropsENS_17NFAGraphEdgePropsENS7_11no_propertyESB_EERKSG_EES2_NS7_9iterators18transform_iteratorINS7_6detail35reverse_graph_edge_descriptor_makerINSM_14edge_desc_implINS7_17bidirectional_tagES2_EEEENSM_12in_edge_iterISt14_List_iteratorINSM_16stored_edge_iterIS2_ST_INS7_9list_edgeIS2_SE_EEESE_EEES2_SQ_lEENSK_11use_defaultES11_EElEEEEvPT_RKSt4pairIT0_S17_E@Base 4.2.0
 _ZN3ue26insertISt3setIPvSt4lessIS2_ESaIS2_EEN5boost18adjacency_iteratorINS7_14adjacency_listINS7_5listSESA_NS7_14bidirectionalSENS_19NFAGraphVertexPropsENS_17NFAGraphEdgePropsENS7_11no_propertyESA_EES2_NS7_6detail13out_edge_iterISt14_List_iteratorINSG_16stored_edge_iterIS2_SI_INS7_9list_edgeIS2_SD_EEESD_EEES2_NSG_14edge_desc_implINS7_17bidirectional_tagES2_EElEElEEEEvPT_RKSt4pairIT0_SX_E@Base 4.2.0
 _ZN3ue26insertISt3setIPvSt4lessIS2_ESaIS2_EEN5boost22inv_adjacency_iteratorINS7_14adjacency_listINS7_5listSESA_NS7_14bidirectionalSENS_15RoseVertexPropsENS_13RoseEdgePropsESA_SA_EES2_NS7_6detail12in_edge_iterISt14_List_iteratorINSF_16stored_edge_iterIS2_SH_INS7_9list_edgeIS2_SD_EEESD_EEES2_NSF_14edge_desc_implINS7_17bidirectional_tagES2_EElEElEEEEvPT_RKSt4pairIT0_SW_E@Base 4.2.0
 _ZN3ue26insertISt3setIPvSt4lessIS2_ESaIS2_EEN5boost22inv_adjacency_iteratorINS7_14adjacency_listINS7_5listSESA_NS7_14bidirectionalSENS_19NFAGraphVertexPropsENS_17NFAGraphEdgePropsENS7_11no_propertyESA_EES2_NS7_6detail12in_edge_iterISt14_List_iteratorINSG_16stored_edge_iterIS2_SI_INS7_9list_edgeIS2_SD_EEESD_EEES2_NSG_14edge_desc_implINS7_17bidirectional_tagES2_EElEElEEEEvPT_RKSt4pairIT0_SX_E@Base 4.2.0
 _ZN3ue26insertISt5dequeIPvSaIS2_EESt14_List_iteratorIS2_EEEvPT_NS7_8iteratorERKSt4pairIT0_SB_E@Base 4.2.0
 _ZN3ue26is_dagIN5boost14adjacency_listINS1_4vecSES3_NS1_14bidirectionalSENS1_11no_propertyES5_S5_NS1_5listSEEEEEbRKT_b@Base 4.2.0
 _ZN3ue26maxLenERKSt6vectorINS_11hwlmLiteralESaIS1_EE@Base 4.2.0
 _ZN3ue27absdiffEjj@Base 4.2.0
 _ZN3ue27fdrSizeEPK3FDR@Base 4.2.0
 _ZN3ue27getTopsERKNS_8NGHolderE@Base 4.2.0
 _ZN3ue27getUcpCEv@Base 4.2.0
 _ZN3ue27getUcpLEv@Base 4.2.0
 _ZN3ue27getUcpMEv@Base 4.2.0
 _ZN3ue27getUcpNEv@Base 4.2.0
 _ZN3ue27getUcpPEv@Base 4.2.0
 _ZN3ue27getUcpSEv@Base 4.2.0
 _ZN3ue27getUcpZEv@Base 4.2.0
 _ZN3ue27is_fastERK3NFA@Base 4.2.0
 _ZN3ue27left_id5graphEv@Base 4.2.0
 _ZN3ue27left_id6castleEv@Base 4.2.0
 _ZN3ue27left_idC1ERKNS_11LeftEngInfoE@Base 4.2.0
 _ZN3ue27left_idC2ERKNS_11LeftEngInfoE@Base 4.2.0
 _ZN3ue27matchesEN9__gnu_cxx17__normal_iteratorIPKNS_9CharReachESt6vectorIS2_SaIS2_EEEES8_S8_S8_@Base 4.2.0
 _ZN3ue27raw_dfa20stripExtraEodReportsEv@Base 4.2.0
 _ZN3ue27raw_dfaD0Ev@Base 4.2.0
 _ZN3ue27raw_dfaD1Ev@Base 4.2.0
 _ZN3ue27raw_dfaD2Ev@Base 4.2.0
 _ZN3ue28MpvProtoD1Ev@Base 4.2.0
 _ZN3ue28MpvProtoD2Ev@Base 4.2.0
 _ZN3ue28NGHolder13renumberEdgesEv@Base 4.2.0
 _ZN3ue28NGHolder16renumberVerticesEv@Base 4.2.0
 _ZN3ue28NGHolderC1ENS_8nfa_kindE@Base 4.2.0
 _ZN3ue28NGHolderC1Ev@Base 4.2.0
 _ZN3ue28NGHolderC2ENS_8nfa_kindE@Base 4.2.0
 _ZN3ue28NGHolderC2Ev@Base 4.2.0
 _ZN3ue28NGHolderD0Ev@Base 4.2.0
 _ZN3ue28NGHolderD1Ev@Base 4.2.0
 _ZN3ue28NGHolderD2Ev@Base 4.2.0
 _ZN3ue28add_edgeEPvS0_RKNS_17NFAGraphEdgePropsERNS_8NGHolderE@Base 4.2.0
 _ZN3ue28add_edgeEPvS0_RNS_8NGHolderE@Base 4.2.0
 _ZN3ue28all_topsERKNS_7left_idE@Base 4.2.0
 _ZN3ue28all_topsERKNS_9suffix_idE@Base 4.2.0
 _ZN3ue28aux_sizeERKNS_16scatter_plan_rawE@Base 4.2.0
 _ZN3ue28bitfieldILm256EE3setEm@Base 4.2.0
 _ZN3ue28bitfieldILm256EE9set_rangeEmm@Base 4.2.0
 _ZN3ue28bitfieldILm256EEC1Ev@Base 4.2.0
 _ZN3ue28bitfieldILm256EEC2Ev@Base 4.2.0
 _ZN3ue28bitfieldILm256EEaNERKS1_@Base 4.2.0
 _ZN3ue28bitfieldILm256EEoRERKS1_@Base 4.2.0
 _ZN3ue28containsERKNS_11ue2_literalERKNS_9CharReachE@Base 4.2.0
 _ZN3ue28describeB5cxx11ERK3NFA@Base 4.2.0
 _ZN3ue28dumpMaskB5cxx11EPKhm@Base 4.2.0
 _ZN3ue28dumpRoseERKNS_9RoseBuildEPK10RoseEngineRKNS_4GreyE@Base 4.2.0
 _ZN3ue28dumpTreeERSoPKNS_9ComponentE@Base 4.2.0
 _ZN3ue28flat_setINSt7__cxx1112basic_stringIcSt11char_traitsIcESaIcEEESt4lessIS6_ESaIS6_EE6insertERKS6_@Base 4.2.0
 _ZN3ue28flat_setIPNS_11GoughSSAVarESt4lessIS2_ESaIS2_EE5eraseERKS2_@Base 4.2.0
 _ZN3ue28flat_setIPNS_11GoughSSAVarESt4lessIS2_ESaIS2_EE6insertERKS2_@Base 4.2.0
 _ZN3ue28flat_setIPNS_21GoughSSAVarWithInputsESt4lessIS2_ESaIS2_EE5eraseERKS2_@Base 4.2.0
 _ZN3ue28flat_setIPNS_21GoughSSAVarWithInputsESt4lessIS2_ESaIS2_EE6insertEOS2_@Base 4.2.0
 _ZN3ue28flat_setIPvSt4lessIS1_ESaIS1_EE5eraseERKS1_@Base 4.2.0
 _ZN3ue28flat_setIPvSt4lessIS1_ESaIS1_EE6insertERKS1_@Base 4.2.0
 _ZN3ue28flat_setIjSt4lessIjESaIjEE6insertERKj@Base 4.2.0
 _ZN3ue28generateERNS_8NGHolderERKN5boost9unordered13unordered_mapIPvjNS2_4hashIS5_EESt8equal_toIS5_ESaISt4pairIKS5_jEEEERKSt6vectorINS_17BoundedRepeatDataESaISI_EERKSt3mapIS5_NS2_14dynamic_bitsetImSaImEEESt4lessIS5_ESaISA_ISB_SQ_EEESX_RKSN_IjS5_SR_IjESaISA_IKjS5_EEERKSt3setIS5_SS_SaIS5_EEbbjRKNS_14CompileContextE@Base 4.2.0
 _ZN3ue28getUcpCcEv@Base 4.2.0
 _ZN3ue28getUcpCfEv@Base 4.2.0
 _ZN3ue28getUcpCnEv@Base 4.2.0
 _ZN3ue28getUcpCoEv@Base 4.2.0
 _ZN3ue28getUcpCsEv@Base 4.2.0
 _ZN3ue28getUcpLlEv@Base 4.2.0
 _ZN3ue28getUcpLmEv@Base 4.2.0
 _ZN3ue28getUcpLoEv@Base 4.2.0
 _ZN3ue28getUcpLtEv@Base 4.2.0
 _ZN3ue28getUcpLuEv@Base 4.2.0
 _ZN3ue28getUcpMcEv@Base 4.2.0
 _ZN3ue28getUcpMeEv@Base 4.2.0
 _ZN3ue28getUcpMnEv@Base 4.2.0
 _ZN3ue28getUcpNdEv@Base 4.2.0
 _ZN3ue28getUcpNlEv@Base 4.2.0
 _ZN3ue28getUcpNoEv@Base 4.2.0
 _ZN3ue28getUcpPcEv@Base 4.2.0
 _ZN3ue28getUcpPdEv@Base 4.2.0
 _ZN3ue28getUcpPeEv@Base 4.2.0
 _ZN3ue28getUcpPfEv@Base 4.2.0
 _ZN3ue28getUcpPiEv@Base 4.2.0
 _ZN3ue28getUcpPoEv@Base 4.2.0
 _ZN3ue28getUcpPsEv@Base 4.2.0
 _ZN3ue28getUcpScEv@Base 4.2.0
 _ZN3ue28getUcpSkEv@Base 4.2.0
 _ZN3ue28getUcpSmEv@Base 4.2.0
 _ZN3ue28getUcpSoEv@Base 4.2.0
 _ZN3ue28getUcpYiEv@Base 4.2.0
 _ZN3ue28getUcpZlEv@Base 4.2.0
 _ZN3ue28getUcpZpEv@Base 4.2.0
 _ZN3ue28getUcpZsEv@Base 4.2.0
 _ZN3ue28hash_dfaERKNS_7raw_dfaE@Base 4.2.0
 _ZN3ue28hwlmSizeEPK4HWLM@Base 4.2.0
 _ZN3ue28isSuffixERKNS_11ue2_literalES2_@Base 4.2.0
 _ZN3ue28is_equalERKNS_11CastleProtoES2_@Base 4.2.0
 _ZN3ue28is_equalERKNS_11CastleProtoEjS2_j@Base 4.2.0
 _ZN3ue28is_equalERKNS_8NGHolderES2_@Base 4.2.0
 _ZN3ue28is_equalERKNS_8NGHolderEjS2_j@Base 4.2.0
 _ZN3ue28is_floodERKNS_11ue2_literalE@Base 4.2.0
 _ZN3ue28noodSizeEPK9noodTable@Base 4.2.0
 _ZN3ue28num_topsERKNS_7left_idE@Base 4.2.0
 _ZN3ue28overlapsERKNS_9CharReachES2_@Base 4.2.0
 _ZN3ue28roseSizeEPK10RoseEngine@Base 4.2.0
 _ZN3ue28scoreSetERKSt3setINS_11ue2_literalESt4lessIS1_ESaIS1_EE@Base 4.2.0
 _ZN3ue28smwrSizeEPK16SmallWriteEngine@Base 4.2.0
 _ZN3ue28splitLHSERKNS_8NGHolderEPvPS0_PN5boost9unordered13unordered_mapIS3_S3_NS5_4hashIS3_EESt8equal_toIS3_ESaISt4pairIKS3_S3_EEEE@Base 4.2.0
 _ZN3ue28splitRHSERKNS_8NGHolderERKSt6vectorIPvSaIS4_EEPS0_PN5boost9unordered13unordered_mapIS4_S4_NSA_4hashIS4_EESt8equal_toIS4_ESaISt4pairIKS4_S4_EEEE@Base 4.2.0
 _ZN3ue28target_tC1ERK16hs_platform_info@Base 4.2.0
 _ZN3ue28target_tC2ERK16hs_platform_info@Base 4.2.0
 _ZN3ue29CharReach3setERKNSt7__cxx1112basic_stringIcSt11char_traitsIcESaIcEEE@Base 4.2.0
 _ZN3ue29Component15recordPosBoundsEjj@Base 4.2.0
 _ZN3ue29Component8optimiseEb@Base 4.2.0
 _ZN3ue29ComponentC1Ev@Base 4.2.0
 _ZN3ue29ComponentC2Ev@Base 4.2.0
 _ZN3ue29ComponentD0Ev@Base 4.2.0
 _ZN3ue29ComponentD1Ev@Base 4.2.0
 _ZN3ue29ComponentD2Ev@Base 4.2.0
 _ZN3ue29NGWrapperC1Ejbbb8som_typejyyy@Base 4.2.0
 _ZN3ue29NGWrapperC2Ejbbb8som_typejyyy@Base 4.2.0
 _ZN3ue29NGWrapperD0Ev@Base 4.2.0
 _ZN3ue29NGWrapperD1Ev@Base 4.2.0
 _ZN3ue29NGWrapperD2Ev@Base 4.2.0
 _ZN3ue29ParseModeC1Ej@Base 4.2.0
 _ZN3ue29ParseModeC2Ej@Base 4.2.0
 _ZN3ue29RoseBuildD0Ev@Base 4.2.0
 _ZN3ue29RoseBuildD1Ev@Base 4.2.0
 _ZN3ue29RoseBuildD2Ev@Base 4.2.0
 _ZN3ue29SlotCache4findERKNS_8NGHolderERKNS_9CharReachEjb@Base 4.2.0
 _ZN3ue29SlotCache6insertERKNS_8NGHolderERKNS_9CharReachEjbj@Base 4.2.0
 _ZN3ue29case_iterC1ERKNS_11ue2_literalE@Base 4.2.0
 _ZN3ue29case_iterC2ERKNS_11ue2_literalE@Base 4.2.0
 _ZN3ue29case_iterD1Ev@Base 4.2.0
 _ZN3ue29case_iterD2Ev@Base 4.2.0
 _ZN3ue29case_iterppEv@Base 4.2.0
 _ZN3ue29checkRoseERKNS_13ReportManagerERKNS_8NGHolderEbRKNS_14CompileContextE@Base 4.2.0
 _ZN3ue29dump_nameB5cxx11ERKNS_13gough_edge_idE@Base 4.2.0
 _ZN3ue29dump_nameB5cxx11ERKNS_16GoughVertexPropsE@Base 4.2.0
 _ZN3ue29flip_caseEPj@Base 4.2.0
 _ZN3ue29getUcpHanEv@Base 4.2.0
 _ZN3ue29getUcpLaoEv@Base 4.2.0
 _ZN3ue29getUcpMroEv@Base 4.2.0
 _ZN3ue29getUcpNkoEv@Base 4.2.0
 _ZN3ue29getUcpVaiEv@Base 4.2.0
 _ZN3ue29getUcpXanEv@Base 4.2.0
 _ZN3ue29getUcpXpsEv@Base 4.2.0
 _ZN3ue29getUcpXspEv@Base 4.2.0
 _ZN3ue29getUcpXwdEv@Base 4.2.0
 _ZN3ue29has_accelERK3NFA@Base 4.2.0
 _ZN3ue29hwlmBuildERKSt6vectorINS_11hwlmLiteralESaIS1_EEPNS_20hwlmStreamingControlEbRKNS_14CompileContextEy@Base 4.2.0
 _ZN3ue29isAcyclicERKNS_8NGHolderE@Base 4.2.0
 _ZN3ue29isVacuousERKNS_8NGHolderE@Base 4.2.0
 _ZN3ue29mergeDfasERSt6vectorISt10unique_ptrINS_7raw_dfaESt14default_deleteIS2_EESaIS5_EEmPKNS_13ReportManagerERKNS_4GreyE@Base 4.2.0
 _ZN3ue29minPeriodERKSt6vectorIS0_INS_9CharReachESaIS1_EESaIS3_EERKS1_Pb@Base 4.2.0
 _ZN3ue29num_edgesERKNS_8NGHolderE@Base 4.2.0
 _ZN3ue29num_edgesERNS_8NGHolderE@Base 4.2.0
 _ZN3ue29shufti2crEDv2_xS0_@Base 4.2.0
 _ZN3ue29shufti2crEU8__vectorxS0_@Base 4.2.0
 _ZN3ue29suffix_id5graphEv@Base 4.2.0
 _ZN3ue29suffix_idC1ERKNS_14RoseSuffixInfoE@Base 4.2.0
 _ZN3ue29suffix_idC2ERKNS_14RoseSuffixInfoE@Base 4.2.0
 _ZN3ue29write_outEP17scatter_full_planPvRKNS_16scatter_plan_rawEj@Base 4.2.0
 _ZN3ue2ltERKNS_13RoseEdgePropsES2_@Base 4.2.0
 _ZN3ue2plERKNS_11ue2_literalES2_@Base 4.2.0
 _ZN5boost10add_vertexINS_14adjacency_listINS_5listSES2_NS_14bidirectionalSEN3ue215RoseVertexPropsENS4_13RoseEdgePropsES2_S2_EENS_6detail12adj_list_genIS7_S2_S2_S3_S5_S6_S2_S2_E6configENS_40bidirectional_graph_helper_with_propertyISB_EEEENT0_17vertex_descriptorERNS_13adj_list_implIT_SE_T1_EE@Base 4.2.0
 _ZN5boost10add_vertexINS_14adjacency_listINS_5listSES2_NS_14bidirectionalSEN3ue217RoseInVertexPropsENS4_15RoseInEdgePropsENS_11no_propertyES2_EENS_6detail12adj_list_genIS8_S2_S2_S3_S5_S6_S7_S2_E6configENS_40bidirectional_graph_helper_with_propertyISC_EEEENT0_17vertex_descriptorERKNSF_20vertex_property_typeERNS_13adj_list_implIT_SF_T1_EE@Base 4.2.0
 _ZN5boost10lowest_bitImEEiT_@Base 4.2.0
 _ZN5boost11bad_pointerD0Ev@Base 4.2.0
 _ZN5boost11bad_pointerD1Ev@Base 4.2.0
 _ZN5boost11bad_pointerD2Ev@Base 4.2.0
 _ZN5boost11make_uniqueIN3ue210OutfixInfoEINS1_8MpvProtoEEEENS_6detail15up_if_not_arrayIT_E4typeEDpOT0_@Base 4.2.0
 _ZN5boost11make_uniqueIN3ue210OutfixInfoEJNS1_8MpvProtoEEEENS_6detail15up_if_not_arrayIT_E4typeEDpOT0_@Base 4.2.0
 _ZN5boost11make_uniqueIN3ue217ComponentBoundaryEIRNS2_8BoundaryEEEENS_6detail15up_if_not_arrayIT_E4typeEDpOT0_@Base 4.2.0
 _ZN5boost11make_uniqueIN3ue217ComponentBoundaryEJRNS2_8BoundaryEEEENS_6detail15up_if_not_arrayIT_E4typeEDpOT0_@Base 4.2.0
 _ZN5boost11make_uniqueIN3ue217ComponentSequenceEEENS_6detail15up_if_not_arrayIT_E4typeEv@Base 4.2.0
 _ZN5boost11make_uniqueIN3ue218ComponentAssertionEINS2_9DirectionENS2_5SenseEEEENS_6detail15up_if_not_arrayIT_E4typeEDpOT0_@Base 4.2.0
 _ZN5boost11make_uniqueIN3ue218ComponentAssertionEJNS2_9DirectionENS2_5SenseEEEENS_6detail15up_if_not_arrayIT_E4typeEDpOT0_@Base 4.2.0
 _ZN5boost11make_uniqueIN3ue221ComponentWordBoundaryEIlbRNS1_9ParseModeEEEENS_6detail15up_if_not_arrayIT_E4typeEDpOT0_@Base 4.2.0
 _ZN5boost11make_uniqueIN3ue221ComponentWordBoundaryEJlbRNS1_9ParseModeEEEENS_6detail15up_if_not_arrayIT_E4typeEDpOT0_@Base 4.2.0
 _ZN5boost11make_uniqueIN3ue222ComponentBackReferenceEIRNSt7__cxx1112basic_stringIcSt11char_traitsIcESaIcEEEEEENS_6detail15up_if_not_arrayIT_E4typeEDpOT0_@Base 4.2.0
 _ZN5boost11make_uniqueIN3ue222ComponentBackReferenceEIRjEEENS_6detail15up_if_not_arrayIT_E4typeEDpOT0_@Base 4.2.0
 _ZN5boost11make_uniqueIN3ue222ComponentBackReferenceEJRNSt7__cxx1112basic_stringIcSt11char_traitsIcESaIcEEEEEENS_6detail15up_if_not_arrayIT_E4typeEDpOT0_@Base 4.2.0
 _ZN5boost11make_uniqueIN3ue222ComponentBackReferenceEJRjEEENS_6detail15up_if_not_arrayIT_E4typeEDpOT0_@Base 4.2.0
 _ZN5boost11make_uniqueIN3ue222ComponentCondReferenceEISt10unique_ptrINS1_18ComponentAssertionESt14default_deleteIS4_EEEEENS_6detail15up_if_not_arrayIT_E4typeEDpOT0_@Base 4.2.0
 _ZN5boost11make_uniqueIN3ue222ComponentCondReferenceEJSt10unique_ptrINS1_18ComponentAssertionESt14default_deleteIS4_EEEEENS_6detail15up_if_not_arrayIT_E4typeEDpOT0_@Base 4.2.0
 _ZN5boost11make_uniqueIN3ue28NGHolderEINS1_8nfa_kindEEEENS_6detail15up_if_not_arrayIT_E4typeEDpOT0_@Base 4.2.0
 _ZN5boost11make_uniqueIN3ue28NGHolderEJNS1_8nfa_kindEEEENS_6detail15up_if_not_arrayIT_E4typeEDpOT0_@Base 4.2.0
 _ZN5boost11multi_index6detail13ordered_indexINS0_6memberINS_6bimaps8relation6detail16relation_storageINS4_4tags6taggedIKN3ue215rose_literal_idENS5_9member_at4leftEEENS9_IKjNSD_5rightEEELb1EEEjXadL_ZNSJ_5rightEEEEESt4lessIjENS1_9nth_layerILi1ENS5_15mutant_relationISF_SI_N4mpl_2naELb1EEENS4_6detail10bimap_coreISB_jSQ_SQ_SQ_E12core_indicesESaISR_EEENS_3mpl6v_itemISH_NSY_7vector0ISQ_EELi0EEENS1_18ordered_unique_tagEE16delete_all_nodesEPNS1_18ordered_index_nodeINS15_INS1_15index_node_baseISR_SW_EEEEEE@Base 4.2.0
 _ZN5boost11multi_index6detail23ordered_index_node_implISaIcEE11rotate_leftEPS4_NS1_34ordered_index_node_compressed_baseIS3_E10parent_refE@Base 4.2.0
 _ZN5boost11multi_index6detail23ordered_index_node_implISaIcEE12rotate_rightEPS4_NS1_34ordered_index_node_compressed_baseIS3_E10parent_refE@Base 4.2.0
 _ZN5boost11multi_index6detail23ordered_index_node_implISaIcEE19rebalance_for_eraseEPS4_NS1_34ordered_index_node_compressed_baseIS3_E10parent_refERS5_S9_@Base 4.2.0
 _ZN5boost11multi_index6detail23ordered_index_node_implISaIcEE4linkEPS4_NS1_18ordered_index_sideES5_S5_@Base 4.2.0
 _ZN5boost11multi_index6detail23ordered_index_node_implISaIcEE9rebalanceEPS4_NS1_34ordered_index_node_compressed_baseIS3_E10parent_refE@Base 4.2.0
 _ZN5boost12lexical_castINSt7__cxx1112basic_stringIcSt11char_traitsIcESaIcEEEjEET_RKT0_@Base 4.2.0
 _ZN5boost13adj_list_implINS_14adjacency_listINS_4setSENS_5listSENS_11undirectedSENS_8propertyINS_14vertex_index_tEjNS_11no_propertyEEES7_S7_S3_EENS_6detail12adj_list_genIS9_S3_S2_S4_S8_S7_S7_S3_E6configENS_23undirected_graph_helperISD_EEED1Ev@Base 4.2.0
 _ZN5boost13adj_list_implINS_14adjacency_listINS_4setSENS_5listSENS_11undirectedSENS_8propertyINS_14vertex_index_tEjNS_11no_propertyEEES7_S7_S3_EENS_6detail12adj_list_genIS9_S3_S2_S4_S8_S7_S7_S3_E6configENS_23undirected_graph_helperISD_EEED2Ev@Base 4.2.0
 _ZN5boost13adj_list_implINS_14adjacency_listINS_5listSES2_NS_14bidirectionalSEN3ue215RoseVertexPropsENS4_13RoseEdgePropsES2_S2_EENS_6detail12adj_list_genIS7_S2_S2_S3_S5_S6_S2_S2_E6configENS_40bidirectional_graph_helper_with_propertyISB_EEED1Ev@Base 4.2.0
 _ZN5boost13adj_list_implINS_14adjacency_listINS_5listSES2_NS_14bidirectionalSEN3ue215RoseVertexPropsENS4_13RoseEdgePropsES2_S2_EENS_6detail12adj_list_genIS7_S2_S2_S3_S5_S6_S2_S2_E6configENS_40bidirectional_graph_helper_with_propertyISB_EEED2Ev@Base 4.2.0
 _ZN5boost13adj_list_implINS_14adjacency_listINS_5listSES2_NS_14bidirectionalSEN3ue217RoseInVertexPropsENS4_15RoseInEdgePropsENS_11no_propertyES2_EENS_6detail12adj_list_genIS8_S2_S2_S3_S5_S6_S7_S2_E6configENS_40bidirectional_graph_helper_with_propertyISC_EEED1Ev@Base 4.2.0
 _ZN5boost13adj_list_implINS_14adjacency_listINS_5listSES2_NS_14bidirectionalSEN3ue217RoseInVertexPropsENS4_15RoseInEdgePropsENS_11no_propertyES2_EENS_6detail12adj_list_genIS8_S2_S2_S3_S5_S6_S7_S2_E6configENS_40bidirectional_graph_helper_with_propertyISC_EEED2Ev@Base 4.2.0
 _ZN5boost13adj_list_implINS_14adjacency_listINS_5listSES2_NS_14bidirectionalSEN3ue219NFAGraphVertexPropsENS4_17NFAGraphEdgePropsENS_11no_propertyES2_EENS_6detail12adj_list_genIS8_S2_S2_S3_S5_S6_S7_S2_E6configENS_40bidirectional_graph_helper_with_propertyISC_EEED1Ev@Base 4.2.0
 _ZN5boost13adj_list_implINS_14adjacency_listINS_5listSES2_NS_14bidirectionalSEN3ue219NFAGraphVertexPropsENS4_17NFAGraphEdgePropsENS_11no_propertyES2_EENS_6detail12adj_list_genIS8_S2_S2_S3_S5_S6_S7_S2_E6configENS_40bidirectional_graph_helper_with_propertyISC_EEED2Ev@Base 4.2.0
 _ZN5boost14adjacency_listINS_5listSES1_NS_14bidirectionalSEN3ue217RoseInVertexPropsENS3_15RoseInEdgePropsENS_11no_propertyES1_EC1ERKS6_@Base 4.2.0
 _ZN5boost14adjacency_listINS_5listSES1_NS_14bidirectionalSEN3ue217RoseInVertexPropsENS3_15RoseInEdgePropsENS_11no_propertyES1_EC2ERKS6_@Base 4.2.0
 _ZN5boost14dynamic_bitsetImSaImEE3setEmb@Base 4.2.0
 _ZN5boost14dynamic_bitsetImSaImEE4flipEv@Base 4.2.0
 _ZN5boost14dynamic_bitsetImSaImEE5resetEm@Base 4.2.0
 _ZN5boost14dynamic_bitsetImSaImEE6resizeEmb@Base 4.2.0
 _ZN5boost14dynamic_bitsetImSaImEEC1EmmRKS1_@Base 4.2.0
 _ZN5boost14dynamic_bitsetImSaImEEC2EmmRKS1_@Base 4.2.0
 _ZN5boost14dynamic_bitsetImSaImEED1Ev@Base 4.2.0
 _ZN5boost14dynamic_bitsetImSaImEED2Ev@Base 4.2.0
 _ZN5boost14dynamic_bitsetImSaImEEaNERKS2_@Base 4.2.0
 _ZN5boost14dynamic_bitsetImSaImEEaSEOS2_@Base 4.2.0
 _ZN5boost14dynamic_bitsetImSaImEEoRERKS2_@Base 4.2.0
 _ZN5boost15throw_exceptionINS_16bad_lexical_castEEEvRKT_@Base 4.2.0
 _ZN5boost15throw_exceptionINS_16exception_detail19error_info_injectorINS_9not_a_dagEEEEEvRKT_@Base 4.2.0
 _ZN5boost15throw_exceptionISt12out_of_rangeEEvRKT_@Base 4.2.0
 _ZN5boost16bad_lexical_castD0Ev@Base 4.2.0
 _ZN5boost16bad_lexical_castD1Ev@Base 4.2.0
 _ZN5boost16bad_lexical_castD2Ev@Base 4.2.0
 _ZN5boost16exception_detail10clone_implINS0_19error_info_injectorINS_16bad_lexical_castEEEED0Ev@Base 4.2.0
 _ZN5boost16exception_detail10clone_implINS0_19error_info_injectorINS_16bad_lexical_castEEEED1Ev@Base 4.2.0
 _ZN5boost16exception_detail10clone_implINS0_19error_info_injectorINS_9not_a_dagEEEED0Ev@Base 4.2.0
 _ZN5boost16exception_detail10clone_implINS0_19error_info_injectorINS_9not_a_dagEEEED1Ev@Base 4.2.0
 _ZN5boost16exception_detail10clone_implINS0_19error_info_injectorISt12out_of_rangeEEED0Ev@Base 4.2.0
 _ZN5boost16exception_detail10clone_implINS0_19error_info_injectorISt12out_of_rangeEEED1Ev@Base 4.2.0
 _ZN5boost16exception_detail16throw_exception_INS_9not_a_dagEEEvRKT_PKcS7_i@Base 4.2.0
 _ZN5boost16exception_detail19error_info_injectorINS_16bad_lexical_castEEC1ERKS3_@Base 4.2.0
 _ZN5boost16exception_detail19error_info_injectorINS_16bad_lexical_castEEC2ERKS3_@Base 4.2.0
 _ZN5boost16exception_detail19error_info_injectorINS_16bad_lexical_castEED0Ev@Base 4.2.0
 _ZN5boost16exception_detail19error_info_injectorINS_16bad_lexical_castEED1Ev@Base 4.2.0
 _ZN5boost16exception_detail19error_info_injectorINS_16bad_lexical_castEED2Ev@Base 4.2.0
 _ZN5boost16exception_detail19error_info_injectorINS_9not_a_dagEEC1ERKS3_@Base 4.2.0
 _ZN5boost16exception_detail19error_info_injectorINS_9not_a_dagEEC2ERKS3_@Base 4.2.0
 _ZN5boost16exception_detail19error_info_injectorINS_9not_a_dagEED0Ev@Base 4.2.0
 _ZN5boost16exception_detail19error_info_injectorINS_9not_a_dagEED1Ev@Base 4.2.0
 _ZN5boost16exception_detail19error_info_injectorINS_9not_a_dagEED2Ev@Base 4.2.0
 _ZN5boost16exception_detail19error_info_injectorISt12out_of_rangeEC1ERKS3_@Base 4.2.0
 _ZN5boost16exception_detail19error_info_injectorISt12out_of_rangeEC2ERKS3_@Base 4.2.0
 _ZN5boost16exception_detail19error_info_injectorISt12out_of_rangeED0Ev@Base 4.2.0
 _ZN5boost16exception_detail19error_info_injectorISt12out_of_rangeED1Ev@Base 4.2.0
 _ZN5boost16exception_detail19error_info_injectorISt12out_of_rangeED2Ev@Base 4.2.0
 _ZN5boost16exception_detail20copy_boost_exceptionEPNS_9exceptionEPKS1_@Base 4.2.0
 _ZN5boost16topological_sortINS_14filtered_graphINS_14adjacency_listINS_5listSES3_NS_14bidirectionalSEN3ue219NFAGraphVertexPropsENS5_17NFAGraphEdgePropsENS_11no_propertyES3_EENS5_13AcyclicFilterINS_9unordered13unordered_setINS_6detail14edge_desc_implINS_17bidirectional_tagEPvEENS_4hashISH_EESt8equal_toISH_ESaISH_EEEEENS_8keep_allEEESt20back_insert_iteratorISt6vectorISG_SaISG_EEENS_28adj_list_vertex_property_mapIS9_jRKjMS6_jEENS_14vertex_index_tENS_16bgl_named_paramsINS_21iterator_property_mapIN9__gnu_cxx17__normal_iteratorIPNS_18default_color_typeESS_IS16_SaIS16_EEEES10_S16_RS16_EENS_14vertex_color_tES8_EEEEvRT_T0_RKNS12_IT1_T2_T3_EE@Base 4.2.0
 _ZN5boost17adjacent_verticesINS_14adjacency_listINS_5listSES2_NS_14bidirectionalSEN3ue219NFAGraphVertexPropsENS4_17NFAGraphEdgePropsENS_11no_propertyES2_EENS4_13AcyclicFilterINS_9unordered13unordered_setINS_6detail14edge_desc_implINS_17bidirectional_tagEPvEENS_4hashISG_EESt8equal_toISG_ESaISG_EEEEENS_8keep_allEEESt4pairINS_14filtered_graphIT_T0_T1_E18adjacency_iteratorESV_ENSU_17vertex_descriptorERKSU_@Base 4.2.0
 _ZN5boost17vec_adj_list_implINS_14adjacency_listINS_4vecSES2_NS_14bidirectionalSENS_11no_propertyES4_S4_NS_5listSEEENS_6detail12adj_list_genIS6_S2_S2_S3_S4_S4_S4_S5_E6configENS_40bidirectional_graph_helper_with_propertyISA_EEED1Ev@Base 4.2.0
 _ZN5boost17vec_adj_list_implINS_14adjacency_listINS_4vecSES2_NS_14bidirectionalSENS_11no_propertyES4_S4_NS_5listSEEENS_6detail12adj_list_genIS6_S2_S2_S3_S4_S4_S4_S5_E6configENS_40bidirectional_graph_helper_with_propertyISA_EEED2Ev@Base 4.2.0
 _ZN5boost18depth_first_searchINS_13reverse_graphINS_14adjacency_listINS_5listSES3_NS_14bidirectionalSEN3ue219NFAGraphVertexPropsENS5_17NFAGraphEdgePropsENS_11no_propertyES3_EERKS9_EENS5_9BackEdgesISt3setINS_6detail29reverse_graph_edge_descriptorINSF_14edge_desc_implINS_17bidirectional_tagEPvEEEESt4lessISL_ESaISL_EEEENS_25shared_array_property_mapINS_18default_color_typeENS_28adj_list_vertex_property_mapIS9_jRKjMS6_jEEEEEEvRKT_T0_T1_NS_12graph_traitsISZ_E17vertex_descriptorE@Base 4.2.0
 _ZN5boost18depth_first_searchINS_14adjacency_listINS_4setSENS_5listSENS_11undirectedSENS_8propertyINS_14vertex_index_tEjNS_11no_propertyEEES7_S7_S3_EENS_6detail19components_recorderINS_24associative_property_mapINS_9unordered13unordered_mapIPvjNS_4hashISF_EESt8equal_toISF_ESaISt4pairIKSF_jEEEEEEEENS_25shared_array_property_mapINS_18default_color_typeENS_28adj_list_vertex_property_mapIS9_jRKjS6_EEEEEEvRKT_T0_T1_NS_12graph_traitsISY_E17vertex_descriptorE@Base 4.2.0
 _ZN5boost18depth_first_searchINS_14adjacency_listINS_4setSENS_5listSENS_11undirectedSENS_8propertyINS_14vertex_index_tEjNS_11no_propertyEEES7_S7_S3_EENS_6detail19components_recorderINS_24associative_property_mapISt3mapIPvjSt4lessISE_ESaISt4pairIKSE_jEEEEEEENS_25shared_array_property_mapINS_18default_color_typeENS_28adj_list_vertex_property_mapIS9_jRKjS6_EEEEEEvRKT_T0_T1_NS_12graph_traitsISV_E17vertex_descriptorE@Base 4.2.0
 _ZN5boost18depth_first_searchINS_14adjacency_listINS_4vecSES2_NS_14bidirectionalSENS_11no_propertyES4_S4_NS_5listSEEEN3ue217detect_back_edgesENS_25shared_array_property_mapINS_18default_color_typeENS_26vec_adj_list_vertex_id_mapIS4_mEEEEEEvRKT_T0_T1_NS_12graph_traitsISE_E17vertex_descriptorE@Base 4.2.0
 _ZN5boost18depth_first_searchINS_14adjacency_listINS_5listSES2_NS_14bidirectionalSEN3ue217RoseInVertexPropsENS4_15RoseInEdgePropsENS_11no_propertyES2_EENS_17topo_sort_visitorISt20back_insert_iteratorISt6vectorIPvSaISC_EEEEENS_25shared_array_property_mapINS_18default_color_typeENS_24associative_property_mapISt3mapISC_mSt4lessISC_ESaISt4pairIKSC_mEEEEEEEEEvRKT_T0_T1_NS_12graph_traitsISU_E17vertex_descriptorE@Base 4.2.0
 _ZN5boost18depth_first_searchINS_14adjacency_listINS_5listSES2_NS_14bidirectionalSEN3ue219NFAGraphVertexPropsENS4_17NFAGraphEdgePropsENS_11no_propertyES2_EENS4_9BackEdgesISt3setINS_6detail14edge_desc_implINS_17bidirectional_tagEPvEESt4lessISF_ESaISF_EEEENS_25shared_array_property_mapINS_18default_color_typeENS_28adj_list_vertex_property_mapIS8_jRKjMS5_jEEEEEEvRKT_T0_T1_NS_12graph_traitsIST_E17vertex_descriptorE@Base 4.2.0
 _ZN5boost18depth_first_searchINS_14adjacency_listINS_5listSES2_NS_14bidirectionalSEN3ue219NFAGraphVertexPropsENS4_17NFAGraphEdgePropsENS_11no_propertyES2_EENS4_9BackEdgesISt3setINS_6detail14edge_desc_implINS_17bidirectional_tagEPvEESt4lessISF_ESaISF_EEEENS_25shared_array_property_mapINS_18default_color_typeENS_28adj_list_vertex_property_mapIS8_jRjMS5_jEEEEEEvRKT_T0_T1_NS_12graph_traitsISS_E17vertex_descriptorE@Base 4.2.0
 _ZN5boost18depth_first_searchINS_14adjacency_listINS_5listSES2_NS_14bidirectionalSEN3ue219NFAGraphVertexPropsENS4_17NFAGraphEdgePropsENS_11no_propertyES2_EENS_6detail18tarjan_scc_visitorINS_24associative_property_mapISt3mapIPvmSt4lessISD_ESaISt4pairIKSD_mEEEEENS_21iterator_property_mapIN9__gnu_cxx17__normal_iteratorIPSD_St6vectorISD_SaISD_EEEENS_28adj_list_vertex_property_mapIS8_jRKjMS5_jEESD_RSD_EENSM_INSO_IPmSQ_ImSaImEEEESY_mRmEESt5stackISD_St5dequeISD_SR_EEEENS_25shared_array_property_mapINS_18default_color_typeESY_EEEEvRKT_T0_T1_NS_12graph_traitsIS1F_E17vertex_descriptorE@Base 4.2.0
 _ZN5boost18depth_first_searchINS_14filtered_graphINS_13reverse_graphINS_14adjacency_listINS_5listSES4_NS_14bidirectionalSEN3ue219NFAGraphVertexPropsENS6_17NFAGraphEdgePropsENS_11no_propertyES4_EERKSA_EENS6_13AcyclicFilterISt3setINS_6detail29reverse_graph_edge_descriptorINSG_14edge_desc_implINS_17bidirectional_tagEPvEEEESt4lessISM_ESaISM_EEEENS_8keep_allEEENS_17topo_sort_visitorISt20back_insert_iteratorISt6vectorISK_SaISK_EEEEENS_25shared_array_property_mapINS_18default_color_typeENS_28adj_list_vertex_property_mapISA_jRKjMS7_jEEEEEEvRKT_T0_T1_NS_12graph_traitsIS19_E17vertex_descriptorE@Base 4.2.0
 _ZN5boost18depth_first_searchINS_14filtered_graphINS_14adjacency_listINS_5listSES3_NS_14bidirectionalSEN3ue219NFAGraphVertexPropsENS5_17NFAGraphEdgePropsENS_11no_propertyES3_EENS5_13AcyclicFilterISt3setINS_6detail14edge_desc_implINS_17bidirectional_tagEPvEESt4lessISG_ESaISG_EEEENS_8keep_allEEENS_17topo_sort_visitorISt20back_insert_iteratorISt6vectorISF_SaISF_EEEEENS_25shared_array_property_mapINS_18default_color_typeENS_28adj_list_vertex_property_mapIS9_jRKjMS6_jEEEEEEvRKT_T0_T1_NS_12graph_traitsIS13_E17vertex_descriptorE@Base 4.2.0
 _ZN5boost26boykov_kolmogorov_max_flowIKNS_14adjacency_listINS_5listSES2_NS_14bidirectionalSEN3ue219NFAGraphVertexPropsENS4_17NFAGraphEdgePropsENS_11no_propertyES2_EENS_21iterator_property_mapIN9__gnu_cxx17__normal_iteratorIPySt6vectorIySaIyEEEENS_26adj_list_edge_property_mapINS_17bidirectional_tagEjRKjPvKS6_MS6_jEEyRyEESR_NSA_INSC_IPNS_6detail14edge_desc_implISJ_SM_EESE_ISU_SaISU_EEEESP_SU_RSU_EENSA_ISY_NS_28adj_list_vertex_property_mapIS8_jSL_MS5_jEESU_SZ_EENSA_INSC_IPNS_18default_color_typeESE_IS15_SaIS15_EEEES13_S15_RS15_EENSA_INSC_IPiSE_IiSaIiEEEES13_iRiEES13_EENS_15property_traitsIT0_E10value_typeERT_S1J_T1_T2_T3_T4_T5_T6_NS_12graph_traitsIS1M_E17vertex_descriptorES1W_@Base 4.2.0
 _ZN5boost27bad_ptr_container_operationD0Ev@Base 4.2.0
 _ZN5boost27bad_ptr_container_operationD1Ev@Base 4.2.0
 _ZN5boost27bad_ptr_container_operationD2Ev@Base 4.2.0
 _ZN5boost3icl14right_subtractINS0_15closed_intervalIjSt4lessEEEENS_9enable_ifINS0_16is_static_closedIT_EES7_E4typeES7_RKS7_@Base 4.2.0
 _ZN5boost3icl4hullINS0_15closed_intervalIjSt4lessEEEENS_9enable_ifINS0_17has_static_boundsIT_EES7_E4typeES7_RKS7_@Base 4.2.0
 _ZN5boost3icl9non_empty14exclusive_lessINS0_15closed_intervalIjSt4lessEEEENS_9enable_ifINS0_20has_symmetric_boundsIT_EEbE4typeERKS8_SD_@Base 4.2.0
 _ZN5boost3icl9segmental10join_rightINS0_12interval_setIjSt4lessNS0_15closed_intervalIjS4_EESaEEEENT_8iteratorERS8_RS9_@Base 4.2.0
 _ZN5boost3icl9segmental9join_leftINS0_12interval_setIjSt4lessNS0_15closed_intervalIjS4_EESaEEEENT_8iteratorERS8_RS9_@Base 4.2.0
 _ZN5boost3icllsIcSt11char_traitsIcENS0_15closed_intervalIjSt4lessEEEERNS_9enable_ifINS0_11is_intervalIT1_EESt13basic_ostreamIT_T0_EE4typeERSE_RKS9_@Base 4.2.0
 _ZN5boost3iclpLINS0_12interval_setIjSt4lessNS0_15closed_intervalIjS3_EESaEES6_EERNS_9enable_ifINS0_19is_intra_combinableIT_T0_EES9_E4typeERS9_RKSA_@Base 4.2.0
 _ZN5boost6detail11bk_max_flowIKNS_14adjacency_listINS_5listSES3_NS_14bidirectionalSEN3ue219NFAGraphVertexPropsENS5_17NFAGraphEdgePropsENS_11no_propertyES3_EENS_21iterator_property_mapIN9__gnu_cxx17__normal_iteratorIPySt6vectorIySaIyEEEENS_26adj_list_edge_property_mapINS_17bidirectional_tagEjRKjPvKS7_MS7_jEEyRyEESS_NSB_INSD_IPNS0_14edge_desc_implISK_SN_EESF_ISU_SaISU_EEEESQ_SU_RSU_EENSB_ISY_NS_28adj_list_vertex_property_mapIS9_jSM_MS6_jEESU_SZ_EENSB_INSD_IPNS_18default_color_typeESF_IS15_SaIS15_EEEES13_S15_RS15_EENSB_INSD_IPiSF_IiSaIiEEEES13_iRiEES13_E4growEv@Base 4.2.0
 _ZN5boost6detail11bk_max_flowIKNS_14adjacency_listINS_5listSES3_NS_14bidirectionalSEN3ue219NFAGraphVertexPropsENS5_17NFAGraphEdgePropsENS_11no_propertyES3_EENS_21iterator_property_mapIN9__gnu_cxx17__normal_iteratorIPySt6vectorIySaIyEEEENS_26adj_list_edge_property_mapINS_17bidirectional_tagEjRKjPvKS7_MS7_jEEyRyEESS_NSB_INSD_IPNS0_14edge_desc_implISK_SN_EESF_ISU_SaISU_EEEESQ_SU_RSU_EENSB_ISY_NS_28adj_list_vertex_property_mapIS9_jSM_MS6_jEESU_SZ_EENSB_INSD_IPNS_18default_color_typeESF_IS15_SaIS15_EEEES13_S15_RS15_EENSB_INSD_IPiSF_IiSaIiEEEES13_iRiEES13_E5adoptEv@Base 4.2.0
 _ZN5boost6detail11bk_max_flowIKNS_14adjacency_listINS_5listSES3_NS_14bidirectionalSEN3ue219NFAGraphVertexPropsENS5_17NFAGraphEdgePropsENS_11no_propertyES3_EENS_21iterator_property_mapIN9__gnu_cxx17__normal_iteratorIPySt6vectorIySaIyEEEENS_26adj_list_edge_property_mapINS_17bidirectional_tagEjRKjPvKS7_MS7_jEEyRyEESS_NSB_INSD_IPNS0_14edge_desc_implISK_SN_EESF_ISU_SaISU_EEEESQ_SU_RSU_EENSB_ISY_NS_28adj_list_vertex_property_mapIS9_jSM_MS6_jEESU_SZ_EENSB_INSD_IPNS_18default_color_typeESF_IS15_SaIS15_EEEES13_S15_RS15_EENSB_INSD_IPiSF_IiSaIiEEEES13_iRiEES13_ED1Ev@Base 4.2.0
 _ZN5boost6detail11bk_max_flowIKNS_14adjacency_listINS_5listSES3_NS_14bidirectionalSEN3ue219NFAGraphVertexPropsENS5_17NFAGraphEdgePropsENS_11no_propertyES3_EENS_21iterator_property_mapIN9__gnu_cxx17__normal_iteratorIPySt6vectorIySaIyEEEENS_26adj_list_edge_property_mapINS_17bidirectional_tagEjRKjPvKS7_MS7_jEEyRyEESS_NSB_INSD_IPNS0_14edge_desc_implISK_SN_EESF_ISU_SaISU_EEEESQ_SU_RSU_EENSB_ISY_NS_28adj_list_vertex_property_mapIS9_jSM_MS6_jEESU_SZ_EENSB_INSD_IPNS_18default_color_typeESF_IS15_SaIS15_EEEES13_S15_RS15_EENSB_INSD_IPiSF_IiSaIiEEEES13_iRiEES13_ED2Ev@Base 4.2.0
 _ZN5boost6detail12adj_list_genINS_14adjacency_listINS_4vecSES3_NS_14bidirectionalSEN3ue216GoughVertexPropsENS5_14GoughEdgePropsENS5_15GoughGraphPropsENS_5listSEEES3_S3_S4_S6_S7_S8_S9_E6config24bidir_rand_stored_vertexD1Ev@Base 4.2.0
 _ZN5boost6detail12adj_list_genINS_14adjacency_listINS_4vecSES3_NS_14bidirectionalSEN3ue216GoughVertexPropsENS5_14GoughEdgePropsENS5_15GoughGraphPropsENS_5listSEEES3_S3_S4_S6_S7_S8_S9_E6config24bidir_rand_stored_vertexD2Ev@Base 4.2.0
 _ZN5boost6detail12shared_countC1IPNS_18default_color_typeENS_21checked_array_deleterIS3_EEEET_T0_@Base 4.2.0
 _ZN5boost6detail12shared_countC2IPNS_18default_color_typeENS_21checked_array_deleterIS3_EEEET_T0_@Base 4.2.0
 _ZN5boost6detail15sp_counted_base7destroyEv@Base 4.2.0
 _ZN5boost6detail18sp_counted_impl_pdIPNS_18default_color_typeENS_21checked_array_deleterIS2_EEE11get_deleterERKSt9type_info@Base 4.2.0
 _ZN5boost6detail18sp_counted_impl_pdIPNS_18default_color_typeENS_21checked_array_deleterIS2_EEE19get_untyped_deleterEv@Base 4.2.0
 _ZN5boost6detail18sp_counted_impl_pdIPNS_18default_color_typeENS_21checked_array_deleterIS2_EEE7disposeEv@Base 4.2.0
 _ZN5boost6detail18sp_counted_impl_pdIPNS_18default_color_typeENS_21checked_array_deleterIS2_EEED0Ev@Base 4.2.0
 _ZN5boost6detail18sp_counted_impl_pdIPNS_18default_color_typeENS_21checked_array_deleterIS2_EEED1Ev@Base 4.2.0
 _ZN5boost6detail18sp_counted_impl_pdIPNS_18default_color_typeENS_21checked_array_deleterIS2_EEED2Ev@Base 4.2.0
 _ZN5boost6detail18sp_counted_impl_pdIPhNS_21checked_array_deleterIhEEE11get_deleterERKSt9type_info@Base 4.2.0
 _ZN5boost6detail18sp_counted_impl_pdIPhNS_21checked_array_deleterIhEEE19get_untyped_deleterEv@Base 4.2.0
 _ZN5boost6detail18sp_counted_impl_pdIPhNS_21checked_array_deleterIhEEE7disposeEv@Base 4.2.0
 _ZN5boost6detail18sp_counted_impl_pdIPhNS_21checked_array_deleterIhEEED0Ev@Base 4.2.0
 _ZN5boost6detail18sp_counted_impl_pdIPhNS_21checked_array_deleterIhEEED1Ev@Base 4.2.0
 _ZN5boost6detail18sp_counted_impl_pdIPhNS_21checked_array_deleterIhEEED2Ev@Base 4.2.0
 _ZN5boost6detail19dynamic_bitset_impl11count_tableILb1EE5tableE@Base 4.2.0
 _ZN5boost6detail22depth_first_visit_implINS_13reverse_graphINS_14adjacency_listINS_5listSES4_NS_14bidirectionalSEN3ue217RoseInVertexPropsENS6_15RoseInEdgePropsENS_11no_propertyES4_EERSA_EENS_11dfs_visitorINS_12null_visitorEEENS_24associative_property_mapINS_9unordered13unordered_mapIPvNS_18default_color_typeENS_4hashISJ_EESt8equal_toISJ_ESaISt4pairIKSJ_SK_EEEEEENS0_9nontruth2EEEvRKT_NS_12graph_traitsISW_E17vertex_descriptorERT0_T1_T2_@Base 4.2.0
 _ZN5boost6detail22depth_first_visit_implINS_13reverse_graphINS_14adjacency_listINS_5listSES4_NS_14bidirectionalSEN3ue219NFAGraphVertexPropsENS6_17NFAGraphEdgePropsENS_11no_propertyES4_EERKSA_EENS6_9BackEdgesISt3setINS0_29reverse_graph_edge_descriptorINS0_14edge_desc_implINS_17bidirectional_tagEPvEEEESt4lessISL_ESaISL_EEEENS_25shared_array_property_mapINS_18default_color_typeENS_28adj_list_vertex_property_mapISA_jRKjMS7_jEEEENS0_9nontruth2EEEvRKT_NS_12graph_traitsIS10_E17vertex_descriptorERT0_T1_T2_@Base 4.2.0
 _ZN5boost6detail22depth_first_visit_implINS_13reverse_graphINS_14adjacency_listINS_5listSES4_NS_14bidirectionalSEN3ue219NFAGraphVertexPropsENS6_17NFAGraphEdgePropsENS_11no_propertyES4_EERKSA_EENS_11dfs_visitorINS_12null_visitorEEENS_24associative_property_mapINS_9unordered13unordered_mapIPvNS_18default_color_typeENS_4hashISK_EESt8equal_toISK_ESaISt4pairIKSK_SL_EEEEEENS0_9nontruth2EEEvRKT_NS_12graph_traitsISX_E17vertex_descriptorERT0_T1_T2_@Base 4.2.0
 _ZN5boost6detail22depth_first_visit_implINS_13reverse_graphINS_14adjacency_listINS_5listSES4_NS_14bidirectionalSEN3ue219NFAGraphVertexPropsENS6_17NFAGraphEdgePropsENS_11no_propertyES4_EERKSA_EENS_11dfs_visitorISt4pairINS_20predecessor_recorderINS_21iterator_property_mapIN9__gnu_cxx17__normal_iteratorIPPvSt6vectorISK_SaISK_EEEENS_28adj_list_vertex_property_mapISA_jRKjMS7_jEESK_RSK_EENS_12on_tree_edgeEEEN9boost_ue26detail31time_stamper_with_vertex_vectorINSH_INSJ_IPmSM_ImSaImEEEESU_mRmEESO_mNS_18on_discover_vertexEEEEEENSH_INSJ_IPNS_18default_color_typeESM_IS1C_SaIS1C_EEEESU_S1C_RS1C_EENS0_9nontruth2EEEvRKT_NS_12graph_traitsIS1K_E17vertex_descriptorERT0_T1_T2_@Base 4.2.0
 _ZN5boost6detail22depth_first_visit_implINS_13reverse_graphINS_14adjacency_listINS_5listSES4_NS_14bidirectionalSEN3ue219NFAGraphVertexPropsENS6_17NFAGraphEdgePropsENS_11no_propertyES4_EERSA_EENS_11dfs_visitorINS_12null_visitorEEENS_21iterator_property_mapIN9__gnu_cxx17__normal_iteratorIPNS_18default_color_typeESt6vectorISJ_SaISJ_EEEENS_28adj_list_vertex_property_mapISA_jRKjMS7_jEESJ_RSJ_EENS0_9nontruth2EEEvRKT_NS_12graph_traitsISX_E17vertex_descriptorERT0_T1_T2_@Base 4.2.0
 _ZN5boost6detail22depth_first_visit_implINS_13reverse_graphINS_14adjacency_listINS_5listSES4_NS_14bidirectionalSEN3ue219NFAGraphVertexPropsENS6_17NFAGraphEdgePropsENS_11no_propertyES4_EERSA_EENS_11dfs_visitorINS_12null_visitorEEENS_24associative_property_mapISt3mapIPvNS_18default_color_typeESt4lessISI_ESaISt4pairIKSI_SJ_EEEEENS0_9nontruth2EEEvRKT_NS_12graph_traitsIST_E17vertex_descriptorERT0_T1_T2_@Base 4.2.0
 _ZN5boost6detail22depth_first_visit_implINS_14adjacency_listINS_4setSENS_5listSENS_11undirectedSENS_8propertyINS_14vertex_index_tEjNS_11no_propertyEEES8_S8_S4_EENS0_19components_recorderINS_24associative_property_mapINS_9unordered13unordered_mapIPvjNS_4hashISF_EESt8equal_toISF_ESaISt4pairIKSF_jEEEEEEEENS_25shared_array_property_mapINS_18default_color_typeENS_28adj_list_vertex_property_mapISA_jRKjS7_EEEENS0_9nontruth2EEEvRKT_NS_12graph_traitsISZ_E17vertex_descriptorERT0_T1_T2_@Base 4.2.0
 _ZN5boost6detail22depth_first_visit_implINS_14adjacency_listINS_4setSENS_5listSENS_11undirectedSENS_8propertyINS_14vertex_index_tEjNS_11no_propertyEEES8_S8_S4_EENS0_19components_recorderINS_24associative_property_mapISt3mapIPvjSt4lessISE_ESaISt4pairIKSE_jEEEEEEENS_25shared_array_property_mapINS_18default_color_typeENS_28adj_list_vertex_property_mapISA_jRKjS7_EEEENS0_9nontruth2EEEvRKT_NS_12graph_traitsISW_E17vertex_descriptorERT0_T1_T2_@Base 4.2.0
 _ZN5boost6detail22depth_first_visit_implINS_14adjacency_listINS_4vecSES3_NS_14bidirectionalSENS_11no_propertyES5_S5_NS_5listSEEEN3ue217detect_back_edgesENS_25shared_array_property_mapINS_18default_color_typeENS_26vec_adj_list_vertex_id_mapIS5_mEEEENS0_9nontruth2EEEvRKT_NS_12graph_traitsISG_E17vertex_descriptorERT0_T1_T2_@Base 4.2.0
 _ZN5boost6detail22depth_first_visit_implINS_14adjacency_listINS_5listSES3_NS_14bidirectionalSEN3ue215RoseVertexPropsENS5_13RoseEdgePropsES3_S3_EENS_11dfs_visitorINS_12null_visitorEEENS_24associative_property_mapINS_9unordered13unordered_mapIPvNS_18default_color_typeENS_4hashISF_EESt8equal_toISF_ESaISt4pairIKSF_SG_EEEEEENS0_9nontruth2EEEvRKT_NS_12graph_traitsISS_E17vertex_descriptorERT0_T1_T2_@Base 4.2.0
 _ZN5boost6detail22depth_first_visit_implINS_14adjacency_listINS_5listSES3_NS_14bidirectionalSEN3ue217RoseInVertexPropsENS5_15RoseInEdgePropsENS_11no_propertyES3_EENS_11dfs_visitorINS_12null_visitorEEENS_24associative_property_mapINS_9unordered13unordered_mapIPvNS_18default_color_typeENS_4hashISG_EESt8equal_toISG_ESaISt4pairIKSG_SH_EEEEEENS0_9nontruth2EEEvRKT_NS_12graph_traitsIST_E17vertex_descriptorERT0_T1_T2_@Base 4.2.0
 _ZN5boost6detail22depth_first_visit_implINS_14adjacency_listINS_5listSES3_NS_14bidirectionalSEN3ue217RoseInVertexPropsENS5_15RoseInEdgePropsENS_11no_propertyES3_EENS_17topo_sort_visitorISt20back_insert_iteratorISt6vectorIPvSaISD_EEEEENS_25shared_array_property_mapINS_18default_color_typeENS_24associative_property_mapISt3mapISD_mSt4lessISD_ESaISt4pairIKSD_mEEEEEEENS0_9nontruth2EEEvRKT_NS_12graph_traitsISW_E17vertex_descriptorERT0_T1_T2_@Base 4.2.0
 _ZN5boost6detail22depth_first_visit_implINS_14adjacency_listINS_5listSES3_NS_14bidirectionalSEN3ue219NFAGraphVertexPropsENS5_17NFAGraphEdgePropsENS_11no_propertyES3_EENS0_18tarjan_scc_visitorINS_24associative_property_mapISt3mapIPvmSt4lessISD_ESaISt4pairIKSD_mEEEEENS_21iterator_property_mapIN9__gnu_cxx17__normal_iteratorIPSD_St6vectorISD_SaISD_EEEENS_28adj_list_vertex_property_mapIS9_jRKjMS6_jEESD_RSD_EENSM_INSO_IPmSQ_ImSaImEEEESY_mRmEESt5stackISD_St5dequeISD_SR_EEEENS_25shared_array_property_mapINS_18default_color_typeESY_EENS0_9nontruth2EEEvRKT_NS_12graph_traitsIS1G_E17vertex_descriptorERT0_T1_T2_@Base 4.2.0
 _ZN5boost6detail22depth_first_visit_implINS_14adjacency_listINS_5listSES3_NS_14bidirectionalSEN3ue219NFAGraphVertexPropsENS5_17NFAGraphEdgePropsENS_11no_propertyES3_EENS5_9BackEdgesINS_9unordered13unordered_setINS0_14edge_desc_implINS_17bidirectional_tagEPvEENS_4hashISG_EESt8equal_toISG_ESaISG_EEEEENS_21iterator_property_mapIN9__gnu_cxx17__normal_iteratorIPNS_18default_color_typeESt6vectorISR_SaISR_EEEENS_28adj_list_vertex_property_mapIS9_jRKjMS6_jEESR_RSR_EENS0_9nontruth2EEEvRKT_NS_12graph_traitsIS15_E17vertex_descriptorERT0_T1_T2_@Base 4.2.0
 _ZN5boost6detail22depth_first_visit_implINS_14adjacency_listINS_5listSES3_NS_14bidirectionalSEN3ue219NFAGraphVertexPropsENS5_17NFAGraphEdgePropsENS_11no_propertyES3_EENS5_9BackEdgesISt3setINS0_14edge_desc_implINS_17bidirectional_tagEPvEESt4lessISF_ESaISF_EEEENS_25shared_array_property_mapINS_18default_color_typeENS_28adj_list_vertex_property_mapIS9_jRKjMS6_jEEEENS0_9nontruth2EEEvRKT_NS_12graph_traitsISU_E17vertex_descriptorERT0_T1_T2_@Base 4.2.0
 _ZN5boost6detail22depth_first_visit_implINS_14adjacency_listINS_5listSES3_NS_14bidirectionalSEN3ue219NFAGraphVertexPropsENS5_17NFAGraphEdgePropsENS_11no_propertyES3_EENS5_9BackEdgesISt3setINS0_14edge_desc_implINS_17bidirectional_tagEPvEESt4lessISF_ESaISF_EEEENS_25shared_array_property_mapINS_18default_color_typeENS_28adj_list_vertex_property_mapIS9_jRjMS6_jEEEENS0_9nontruth2EEEvRKT_NS_12graph_traitsIST_E17vertex_descriptorERT0_T1_T2_@Base 4.2.0
 _ZN5boost6detail22depth_first_visit_implINS_14adjacency_listINS_5listSES3_NS_14bidirectionalSEN3ue219NFAGraphVertexPropsENS5_17NFAGraphEdgePropsENS_11no_propertyES3_EENS_11dfs_visitorINS_12null_visitorEEENS_21iterator_property_mapIN9__gnu_cxx17__normal_iteratorIPNS_18default_color_typeESt6vectorISG_SaISG_EEEENS_28adj_list_vertex_property_mapIS9_jRKjMS6_jEESG_RSG_EENS0_9nontruth2EEEvRKT_NS_12graph_traitsISU_E17vertex_descriptorERT0_T1_T2_@Base 4.2.0
 _ZN5boost6detail22depth_first_visit_implINS_14adjacency_listINS_5listSES3_NS_14bidirectionalSEN3ue219NFAGraphVertexPropsENS5_17NFAGraphEdgePropsENS_11no_propertyES3_EENS_11dfs_visitorISt4pairINS_20predecessor_recorderINS_21iterator_property_mapIN9__gnu_cxx17__normal_iteratorIPPvSt6vectorISG_SaISG_EEEENS_28adj_list_vertex_property_mapIS9_jRKjMS6_jEESG_RSG_EENS_12on_tree_edgeEEEN9boost_ue26detail31time_stamper_with_vertex_vectorINSD_INSF_IPmSI_ImSaImEEEESQ_mRmEESK_mNS_18on_discover_vertexEEEEEENSD_INSF_IPNS_18default_color_typeESI_IS18_SaIS18_EEEESQ_S18_RS18_EENS0_9nontruth2EEEvRKT_NS_12graph_traitsIS1G_E17vertex_descriptorERT0_T1_T2_@Base 4.2.0
 _ZN5boost6detail22depth_first_visit_implINS_14filtered_graphINS_13reverse_graphINS_14adjacency_listINS_5listSES5_NS_14bidirectionalSEN3ue219NFAGraphVertexPropsENS7_17NFAGraphEdgePropsENS_11no_propertyES5_EERKSB_EENS7_13AcyclicFilterISt3setINS0_29reverse_graph_edge_descriptorINS0_14edge_desc_implINS_17bidirectional_tagEPvEEEESt4lessISM_ESaISM_EEEENS_8keep_allEEENS_17topo_sort_visitorISt20back_insert_iteratorISt6vectorISK_SaISK_EEEEENS_25shared_array_property_mapINS_18default_color_typeENS_28adj_list_vertex_property_mapISB_jRKjMS8_jEEEENS0_9nontruth2EEEvRKT_NS_12graph_traitsIS1A_E17vertex_descriptorERT0_T1_T2_@Base 4.2.0
 _ZN5boost6detail22depth_first_visit_implINS_14filtered_graphINS_14adjacency_listINS_5listSES4_NS_14bidirectionalSEN3ue219NFAGraphVertexPropsENS6_17NFAGraphEdgePropsENS_11no_propertyES4_EENS6_13AcyclicFilterINS_9unordered13unordered_setINS0_14edge_desc_implINS_17bidirectional_tagEPvEENS_4hashISH_EESt8equal_toISH_ESaISH_EEEEENS_8keep_allEEENS_17topo_sort_visitorISt20back_insert_iteratorISt6vectorISG_SaISG_EEEEENS_21iterator_property_mapIN9__gnu_cxx17__normal_iteratorIPNS_18default_color_typeEST_IS11_SaIS11_EEEENS_28adj_list_vertex_property_mapISA_jRKjMS7_jEES11_RS11_EENS0_9nontruth2EEEvRKT_NS_12graph_traitsIS1E_E17vertex_descriptorERT0_T1_T2_@Base 4.2.0
 _ZN5boost6detail22depth_first_visit_implINS_14filtered_graphINS_14adjacency_listINS_5listSES4_NS_14bidirectionalSEN3ue219NFAGraphVertexPropsENS6_17NFAGraphEdgePropsENS_11no_propertyES4_EENS6_13AcyclicFilterISt3setINS0_14edge_desc_implINS_17bidirectional_tagEPvEESt4lessISG_ESaISG_EEEENS_8keep_allEEENS_11dfs_visitorINS_12null_visitorEEENS_21iterator_property_mapIN9__gnu_cxx17__normal_iteratorIPNS_18default_color_typeESt6vectorISU_SaISU_EEEENS_28adj_list_vertex_property_mapISA_jRKjMS7_jEESU_RSU_EENS0_9nontruth2EEEvRKT_NS_12graph_traitsIS18_E17vertex_descriptorERT0_T1_T2_@Base 4.2.0
 _ZN5boost6detail22depth_first_visit_implINS_14filtered_graphINS_14adjacency_listINS_5listSES4_NS_14bidirectionalSEN3ue219NFAGraphVertexPropsENS6_17NFAGraphEdgePropsENS_11no_propertyES4_EENS6_13AcyclicFilterISt3setINS0_14edge_desc_implINS_17bidirectional_tagEPvEESt4lessISG_ESaISG_EEEENS_8keep_allEEENS_17topo_sort_visitorISt20back_insert_iteratorISt6vectorISF_SaISF_EEEEENS_25shared_array_property_mapINS_18default_color_typeENS_28adj_list_vertex_property_mapISA_jRKjMS7_jEEEENS0_9nontruth2EEEvRKT_NS_12graph_traitsIS14_E17vertex_descriptorERT0_T1_T2_@Base 4.2.0
 _ZN5boost6detail22strong_components_implINS_14adjacency_listINS_5listSES3_NS_14bidirectionalSEN3ue219NFAGraphVertexPropsENS5_17NFAGraphEdgePropsENS_11no_propertyES3_EENS_24associative_property_mapISt3mapIPvmSt4lessISC_ESaISt4pairIKSC_mEEEEENS_21iterator_property_mapIN9__gnu_cxx17__normal_iteratorIPSC_St6vectorISC_SaISC_EEEENS_28adj_list_vertex_property_mapIS9_jRKjMS6_jEESC_RSC_EENSL_INSN_IPmSP_ImSaImEEEESX_mRmEESX_NS_14vertex_index_tES8_EENS_15property_traitsIT0_E10value_typeERKT_S18_T1_T2_RKNS_16bgl_named_paramsIT3_T4_T5_EE@Base 4.2.0
 _ZN5boost6detail7variant13forced_returnIPKN3ue28MpvProtoEEET_v@Base 4.2.0
 _ZN5boost6detail7variant13forced_returnIPKNS_5blankEEET_v@Base 4.2.0
 _ZN5boost6detail7variant13forced_returnIPKSt10unique_ptrIN3ue211raw_som_dfaESt14default_deleteIS5_EEEET_v@Base 4.2.0
 _ZN5boost6detail7variant13forced_returnIPKSt10unique_ptrIN3ue27raw_dfaESt14default_deleteIS5_EEEET_v@Base 4.2.0
 _ZN5boost6detail7variant13forced_returnIPKSt10unique_ptrIN3ue28NGHolderESt14default_deleteIS5_EEEET_v@Base 4.2.0
 _ZN5boost6detail7variant13forced_returnIPN3ue28MpvProtoEEET_v@Base 4.2.0
 _ZN5boost6detail7variant13forced_returnIPSt10unique_ptrIN3ue211raw_som_dfaESt14default_deleteIS5_EEEET_v@Base 4.2.0
 _ZN5boost6detail7variant13forced_returnIPSt10unique_ptrIN3ue27raw_dfaESt14default_deleteIS5_EEEET_v@Base 4.2.0
 _ZN5boost6detail7variant13forced_returnIPSt10unique_ptrIN3ue28NGHolderESt14default_deleteIS5_EEEET_v@Base 4.2.0
 _ZN5boost6detail7variant13forced_returnISt10unique_ptrI3NFAN3ue214AlignedDeleterIS4_EEEEET_v@Base 4.2.0
 _ZN5boost6detail7variant13forced_returnISt3setIjSt4lessIjESaIjEEEET_v@Base 4.2.0
 _ZN5boost6detail7variant13forced_returnIbEET_v@Base 4.2.0
 _ZN5boost6detail7variant13forced_returnIvEET_v@Base 4.2.0
 _ZN5boost6detail7variant15visitation_implIN4mpl_4int_ILi0EEENS1_20visitation_impl_stepINS_3mpl6l_iterINS7_6l_itemINS3_5long_ILl5EEENS_5blankENS9_INSA_ILl4EEESt10unique_ptrIN3ue28NGHolderESt14default_deleteISG_EENS9_INSA_ILl3EEESE_INSF_7raw_dfaESH_ISL_EENS9_INSA_ILl2EEESE_INSF_11raw_som_dfaESH_ISP_EENS9_INSA_ILl1EEENSF_8MpvProtoENS7_5l_endEEEEEEEEEEEEENS8_ISU_EEEENS1_12move_storageEPvNS_7variantISC_ISJ_SN_SR_ST_EE18has_fallback_type_EEENT1_11result_typeEiiRS18_T2_NS3_5bool_ILb0EEET3_PT_PT0_@Base 4.2.0
 _ZN5boost6detail7variant15visitation_implIN4mpl_4int_ILi0EEENS1_20visitation_impl_stepINS_3mpl6l_iterINS7_6l_itemINS3_5long_ILl5EEENS_5blankENS9_INSA_ILl4EEESt10unique_ptrIN3ue28NGHolderESt14default_deleteISG_EENS9_INSA_ILl3EEESE_INSF_7raw_dfaESH_ISL_EENS9_INSA_ILl2EEESE_INSF_11raw_som_dfaESH_ISP_EENS9_INSA_ILl1EEENSF_8MpvProtoENS7_5l_endEEEEEEEEEEEEENS8_ISU_EEEENS1_12move_storageEPvNS_7variantISC_JSJ_SN_SR_ST_EE18has_fallback_type_EEENT1_11result_typeEiiRS18_T2_NS3_5bool_ILb0EEET3_PT_PT0_@Base 4.2.0
 _ZN5boost7variantINS_5blankEISt10unique_ptrIN3ue28NGHolderESt14default_deleteIS4_EES2_INS3_7raw_dfaES5_IS8_EES2_INS3_11raw_som_dfaES5_ISB_EENS3_8MpvProtoEEE11move_assignISA_EEvOT_@Base 4.2.0
 _ZN5boost7variantINS_5blankEISt10unique_ptrIN3ue28NGHolderESt14default_deleteIS4_EES2_INS3_7raw_dfaES5_IS8_EES2_INS3_11raw_som_dfaES5_ISB_EENS3_8MpvProtoEEE14variant_assignEOSF_@Base 4.2.0
 _ZN5boost7variantINS_5blankEISt10unique_ptrIN3ue28NGHolderESt14default_deleteIS4_EES2_INS3_7raw_dfaES5_IS8_EES2_INS3_11raw_som_dfaES5_ISB_EENS3_8MpvProtoEEE22internal_apply_visitorINS_6detail7variant14invoke_visitorINSI_11get_visitorIS7_EEEEEENT_11result_typeERSN_@Base 4.2.0
 _ZN5boost7variantINS_5blankEISt10unique_ptrIN3ue28NGHolderESt14default_deleteIS4_EES2_INS3_7raw_dfaES5_IS8_EES2_INS3_11raw_som_dfaES5_ISB_EENS3_8MpvProtoEEE22internal_apply_visitorINS_6detail7variant14invoke_visitorINSI_11get_visitorISA_EEEEEENT_11result_typeERSN_@Base 4.2.0
 _ZN5boost7variantINS_5blankEISt10unique_ptrIN3ue28NGHolderESt14default_deleteIS4_EES2_INS3_7raw_dfaES5_IS8_EES2_INS3_11raw_som_dfaES5_ISB_EENS3_8MpvProtoEEE22internal_apply_visitorINS_6detail7variant14invoke_visitorINSI_11get_visitorISD_EEEEEENT_11result_typeERSN_@Base 4.2.0
 _ZN5boost7variantINS_5blankEISt10unique_ptrIN3ue28NGHolderESt14default_deleteIS4_EES2_INS3_7raw_dfaES5_IS8_EES2_INS3_11raw_som_dfaES5_ISB_EENS3_8MpvProtoEEE22internal_apply_visitorINS_6detail7variant14invoke_visitorINSI_11get_visitorISE_EEEEEENT_11result_typeERSN_@Base 4.2.0
 _ZN5boost7variantINS_5blankEISt10unique_ptrIN3ue28NGHolderESt14default_deleteIS4_EES2_INS3_7raw_dfaES5_IS8_EES2_INS3_11raw_som_dfaES5_ISB_EENS3_8MpvProtoEEE22internal_apply_visitorINS_6detail7variant9destroyerEEENT_11result_typeERSK_@Base 4.2.0
 _ZN5boost7variantINS_5blankEJSt10unique_ptrIN3ue28NGHolderESt14default_deleteIS4_EES2_INS3_7raw_dfaES5_IS8_EES2_INS3_11raw_som_dfaES5_ISB_EENS3_8MpvProtoEEE11move_assignISA_EEvOT_@Base 4.2.0
 _ZN5boost7variantINS_5blankEJSt10unique_ptrIN3ue28NGHolderESt14default_deleteIS4_EES2_INS3_7raw_dfaES5_IS8_EES2_INS3_11raw_som_dfaES5_ISB_EENS3_8MpvProtoEEE14variant_assignEOSF_@Base 4.2.0
 _ZN5boost7variantINS_5blankEJSt10unique_ptrIN3ue28NGHolderESt14default_deleteIS4_EES2_INS3_7raw_dfaES5_IS8_EES2_INS3_11raw_som_dfaES5_ISB_EENS3_8MpvProtoEEE22internal_apply_visitorINS_6detail7variant14invoke_visitorINSI_11get_visitorIS7_EEEEEENT_11result_typeERSN_@Base 4.2.0
 _ZN5boost7variantINS_5blankEJSt10unique_ptrIN3ue28NGHolderESt14default_deleteIS4_EES2_INS3_7raw_dfaES5_IS8_EES2_INS3_11raw_som_dfaES5_ISB_EENS3_8MpvProtoEEE22internal_apply_visitorINS_6detail7variant14invoke_visitorINSI_11get_visitorISA_EEEEEENT_11result_typeERSN_@Base 4.2.0
 _ZN5boost7variantINS_5blankEJSt10unique_ptrIN3ue28NGHolderESt14default_deleteIS4_EES2_INS3_7raw_dfaES5_IS8_EES2_INS3_11raw_som_dfaES5_ISB_EENS3_8MpvProtoEEE22internal_apply_visitorINS_6detail7variant14invoke_visitorINSI_11get_visitorISD_EEEEEENT_11result_typeERSN_@Base 4.2.0
 _ZN5boost7variantINS_5blankEJSt10unique_ptrIN3ue28NGHolderESt14default_deleteIS4_EES2_INS3_7raw_dfaES5_IS8_EES2_INS3_11raw_som_dfaES5_ISB_EENS3_8MpvProtoEEE22internal_apply_visitorINS_6detail7variant14invoke_visitorINSI_11get_visitorISE_EEEEEENT_11result_typeERSN_@Base 4.2.0
 _ZN5boost7variantINS_5blankEJSt10unique_ptrIN3ue28NGHolderESt14default_deleteIS4_EES2_INS3_7raw_dfaES5_IS8_EES2_INS3_11raw_som_dfaES5_ISB_EENS3_8MpvProtoEEE22internal_apply_visitorINS_6detail7variant9destroyerEEENT_11result_typeERSK_@Base 4.2.0
 _ZN5boost8add_edgeINS_6detail12adj_list_genINS_14adjacency_listINS_5listSES4_NS_14bidirectionalSEN3ue215RoseVertexPropsENS6_13RoseEdgePropsES4_S4_EES4_S4_S5_S7_S8_S4_S4_E6configEEESt4pairINT_15edge_descriptorEbENSD_17vertex_descriptorESG_RKNSD_18edge_property_typeERNS_40bidirectional_graph_helper_with_propertyISD_EE@Base 4.2.0
 _ZN5boost8add_edgeINS_6detail12adj_list_genINS_14adjacency_listINS_5listSES4_NS_14bidirectionalSEN3ue217RoseInVertexPropsENS6_15RoseInEdgePropsENS_11no_propertyES4_EES4_S4_S5_S7_S8_S9_S4_E6configEEESt4pairINT_15edge_descriptorEbENSE_17vertex_descriptorESH_RKNSE_18edge_property_typeERNS_40bidirectional_graph_helper_with_propertyISE_EE@Base 4.2.0
 _ZN5boost8add_edgeINS_6detail12adj_list_genINS_14adjacency_listINS_5listSES4_NS_14bidirectionalSEN3ue217RoseInVertexPropsENS6_15RoseInEdgePropsENS_11no_propertyES4_EES4_S4_S5_S7_S8_S9_S4_E6configEEESt4pairINT_15edge_descriptorEbENSE_17vertex_descriptorESH_RNS_40bidirectional_graph_helper_with_propertyISE_EE@Base 4.2.0
 _ZN5boost8in_edgesINS_14adjacency_listINS_5listSES2_NS_14bidirectionalSEN3ue219NFAGraphVertexPropsENS4_17NFAGraphEdgePropsENS_11no_propertyES2_EENS4_13AcyclicFilterINS_9unordered13unordered_setINS_6detail14edge_desc_implINS_17bidirectional_tagEPvEENS_4hashISG_EESt8equal_toISG_ESaISG_EEEEENS_8keep_allEEESt4pairINS_14filtered_graphIT_T0_T1_E16in_edge_iteratorESV_ENSU_17vertex_descriptorERKSU_@Base 4.2.0
 _ZN5boost9bad_graphD0Ev@Base 4.2.0
 _ZN5boost9bad_graphD1Ev@Base 4.2.0
 _ZN5boost9bad_graphD2Ev@Base 4.2.0
 _ZN5boost9in_degreeINS_14adjacency_listINS_5listSES2_NS_14bidirectionalSEN3ue219NFAGraphVertexPropsENS4_17NFAGraphEdgePropsENS_11no_propertyES2_EENS4_13AcyclicFilterINS_9unordered13unordered_setINS_6detail14edge_desc_implINS_17bidirectional_tagEPvEENS_4hashISG_EESt8equal_toISG_ESaISG_EEEEENS_8keep_allEEENS_14filtered_graphIT_T0_T1_E16degree_size_typeENST_17vertex_descriptorERKST_@Base 4.2.0
 _ZN5boost9not_a_dagC1Ev@Base 4.2.0
 _ZN5boost9not_a_dagC2Ev@Base 4.2.0
 _ZN5boost9not_a_dagD0Ev@Base 4.2.0
 _ZN5boost9not_a_dagD1Ev@Base 4.2.0
 _ZN5boost9not_a_dagD2Ev@Base 4.2.0
 _ZN5boost9out_edgesINS_13reverse_graphINS_14adjacency_listINS_5listSES3_NS_14bidirectionalSEN3ue219NFAGraphVertexPropsENS5_17NFAGraphEdgePropsENS_11no_propertyES3_EERKS9_EENS5_13AcyclicFilterISt3setINS_6detail29reverse_graph_edge_descriptorINSF_14edge_desc_implINS_17bidirectional_tagEPvEEEESt4lessISL_ESaISL_EEEENS_8keep_allEEESt4pairINS_14filtered_graphIT_T0_T1_E17out_edge_iteratorESY_ENSX_17vertex_descriptorERKSX_@Base 4.2.0
 _ZN5boost9out_edgesINS_14adjacency_listINS_5listSES2_NS_14bidirectionalSEN3ue219NFAGraphVertexPropsENS4_17NFAGraphEdgePropsENS_11no_propertyES2_EENS4_13AcyclicFilterINS_9unordered13unordered_setINS_6detail14edge_desc_implINS_17bidirectional_tagEPvEENS_4hashISG_EESt8equal_toISG_ESaISG_EEEEENS_8keep_allEEESt4pairINS_14filtered_graphIT_T0_T1_E17out_edge_iteratorESV_ENSU_17vertex_descriptorERKSU_@Base 4.2.0
 _ZN5boost9out_edgesINS_14adjacency_listINS_5listSES2_NS_14bidirectionalSEN3ue219NFAGraphVertexPropsENS4_17NFAGraphEdgePropsENS_11no_propertyES2_EENS4_13AcyclicFilterISt3setINS_6detail14edge_desc_implINS_17bidirectional_tagEPvEESt4lessISF_ESaISF_EEEENS_8keep_allEEESt4pairINS_14filtered_graphIT_T0_T1_E17out_edge_iteratorESS_ENSR_17vertex_descriptorERKSR_@Base 4.2.0
 _ZN5boost9unordered13unordered_setIPvNS_4hashIS2_EESt8equal_toIS2_ESaIS2_EE6insertINS_22inv_adjacency_iteratorINS_14adjacency_listINS_5listSESC_NS_14bidirectionalSEN3ue219NFAGraphVertexPropsENSE_17NFAGraphEdgePropsENS_11no_propertyESC_EES2_NS_6detail12in_edge_iterISt14_List_iteratorINSJ_16stored_edge_iterIS2_SL_INS_9list_edgeIS2_SG_EEESG_EEES2_NSJ_14edge_desc_implINS_17bidirectional_tagES2_EElEElEEEEvT_SX_@Base 4.2.0
 _ZN5boost9unordered13unordered_setIPvNS_4hashIS2_EESt8equal_toIS2_ESaIS2_EEC1IN9__gnu_cxx17__normal_iteratorIPS2_St6vectorIS2_S7_EEEEET_SG_@Base 4.2.0
 _ZN5boost9unordered13unordered_setIPvNS_4hashIS2_EESt8equal_toIS2_ESaIS2_EEC1ISt14_List_iteratorIS2_EEET_SC_@Base 4.2.0
 _ZN5boost9unordered13unordered_setIPvNS_4hashIS2_EESt8equal_toIS2_ESaIS2_EEC2IN9__gnu_cxx17__normal_iteratorIPS2_St6vectorIS2_S7_EEEEET_SG_@Base 4.2.0
 _ZN5boost9unordered13unordered_setIPvNS_4hashIS2_EESt8equal_toIS2_ESaIS2_EEC2ISt14_List_iteratorIS2_EEET_SC_@Base 4.2.0
 _ZN5boost9unordered6detail10table_implINS1_3mapISaISt4pairIKN3ue27left_idESt3setIPvSt4lessIS9_ESaIS9_EEEES6_SD_NS_4hashIS6_EESt8equal_toIS6_EEEEixERS7_@Base 4.2.0
 _ZN5boost9unordered6detail10table_implINS1_3mapISaISt4pairIKN3ue27left_idESt5dequeIPvSaIS9_EEEES6_SB_NS_4hashIS6_EESt8equal_toIS6_EEEE8add_nodeERNS1_16node_constructorISaINS1_8ptr_nodeISC_EEEEEm@Base 4.2.0
 _ZN5boost9unordered6detail10table_implINS1_3mapISaISt4pairIKN3ue27left_idESt5dequeIPvSaIS9_EEEES6_SB_NS_4hashIS6_EESt8equal_toIS6_EEEE9erase_keyERS7_@Base 4.2.0
 _ZN5boost9unordered6detail10table_implINS1_3mapISaISt4pairIKN3ue27left_idEjEES6_jNS_4hashIS6_EESt8equal_toIS6_EEEE8add_nodeERNS1_16node_constructorISaINS1_8ptr_nodeIS8_EEEEEm@Base 4.2.0
 _ZN5boost9unordered6detail10table_implINS1_3mapISaISt4pairIKN3ue27left_idEjEES6_jNS_4hashIS6_EESt8equal_toIS6_EEEEixERS7_@Base 4.2.0
 _ZN5boost9unordered6detail10table_implINS1_3mapISaISt4pairIKN3ue27left_idEyEES6_yNS_4hashIS6_EESt8equal_toIS6_EEEEixERS7_@Base 4.2.0
 _ZN5boost9unordered6detail10table_implINS1_3mapISaISt4pairIKN3ue28bitfieldILm256EEEtEES7_tNS_4hashIS7_EESt8equal_toIS7_EEEEixERS8_@Base 4.2.0
 _ZN5boost9unordered6detail10table_implINS1_3mapISaISt4pairIKN3ue29suffix_idESt3setIPvSt4lessIS9_ESaIS9_EEEES6_SD_NS_4hashIS6_EESt8equal_toIS6_EEEEixERS7_@Base 4.2.0
 _ZN5boost9unordered6detail10table_implINS1_3mapISaISt4pairIKN3ue29suffix_idESt5dequeIPvSaIS9_EEEES6_SB_NS_4hashIS6_EESt8equal_toIS6_EEEE8add_nodeERNS1_16node_constructorISaINS1_8ptr_nodeISC_EEEEEm@Base 4.2.0
 _ZN5boost9unordered6detail10table_implINS1_3mapISaISt4pairIKN3ue29suffix_idEjEES6_jNS_4hashIS6_EESt8equal_toIS6_EEEEixERS7_@Base 4.2.0
 _ZN5boost9unordered6detail10table_implINS1_3mapISaISt4pairIKNS_6detail14edge_desc_implINS_17bidirectional_tagEPvEESt6vectorIS8_SaIS8_EEEES9_SD_NS_4hashIS9_EESt8equal_toIS9_EEEEixERSA_@Base 4.2.0
 _ZN5boost9unordered6detail10table_implINS1_3mapISaISt4pairIKNS_6detail14edge_desc_implINS_17bidirectional_tagEmEES8_EES8_S8_NS_4hashIS8_EESt8equal_toIS8_EEEE11rehash_implEm@Base 4.2.0
 _ZN5boost9unordered6detail10table_implINS1_3mapISaISt4pairIKNS_6detail14edge_desc_implINS_17bidirectional_tagEmEES8_EES8_S8_NS_4hashIS8_EESt8equal_toIS8_EEEEixERS9_@Base 4.2.0
 _ZN5boost9unordered6detail10table_implINS1_3mapISaISt4pairIKNS_6detail14edge_desc_implINS_17bidirectional_tagEmEEyEES8_yNS_4hashIS8_EESt8equal_toIS8_EEEE11rehash_implEm@Base 4.2.0
 _ZN5boost9unordered6detail10table_implINS1_3mapISaISt4pairIKNS_6detail14edge_desc_implINS_17bidirectional_tagEmEEyEES8_yNS_4hashIS8_EESt8equal_toIS8_EEEEixERS9_@Base 4.2.0
 _ZN5boost9unordered6detail10table_implINS1_3mapISaISt4pairIKPKN3ue28NGHolderESt10shared_ptrINS5_11CastleProtoEEEES8_SC_NS_4hashIS8_EESt8equal_toIS8_EEEEixERS9_@Base 4.2.0
 _ZN5boost9unordered6detail10table_implINS1_3mapISaISt4pairIKPKN3ue28NGHolderEjEES8_jNS_4hashIS8_EESt8equal_toIS8_EEEEixERS9_@Base 4.2.0
 _ZN5boost9unordered6detail10table_implINS1_3mapISaISt4pairIKPN3ue211raw_som_dfaEmEES7_mNS_4hashIS7_EESt8equal_toIS7_EEEEixERS8_@Base 4.2.0
 _ZN5boost9unordered6detail10table_implINS1_3mapISaISt4pairIKPN3ue27raw_dfaEmEES7_mNS_4hashIS7_EESt8equal_toIS7_EEEEixERS8_@Base 4.2.0
 _ZN5boost9unordered6detail10table_implINS1_3mapISaISt4pairIKPvN3ue214NFAVertexDepthEEES5_S8_NS_4hashIS5_EESt8equal_toIS5_EEEE8add_nodeERNS1_16node_constructorISaINS1_8ptr_nodeIS9_EEEEEm@Base 4.2.0
 _ZN5boost9unordered6detail10table_implINS1_3mapISaISt4pairIKPvN3ue214NFAVertexDepthEEES5_S8_NS_4hashIS5_EESt8equal_toIS5_EEEEixERS6_@Base 4.2.0
 _ZN5boost9unordered6detail10table_implINS1_3mapISaISt4pairIKPvNS_18default_color_typeEEES5_S7_NS_4hashIS5_EESt8equal_toIS5_EEEEixERS6_@Base 4.2.0
 _ZN5boost9unordered6detail10table_implINS1_3mapISaISt4pairIKPvS5_EES5_S5_NS_4hashIS5_EESt8equal_toIS5_EEEE8add_nodeERNS1_16node_constructorISaINS1_8ptr_nodeIS7_EEEEEm@Base 4.2.0
 _ZN5boost9unordered6detail10table_implINS1_3mapISaISt4pairIKPvS5_EES5_S5_NS_4hashIS5_EESt8equal_toIS5_EEEEixERS6_@Base 4.2.0
 _ZN5boost9unordered6detail10table_implINS1_3mapISaISt4pairIKPvSt6vectorIS4_INS_6detail14edge_desc_implINS_17bidirectional_tagES5_EES5_ESaISC_EEEES5_SE_NS_4hashIS5_EESt8equal_toIS5_EEEEixERS6_@Base 4.2.0
 _ZN5boost9unordered6detail10table_implINS1_3mapISaISt4pairIKPvSt6vectorIS5_SaIS5_EEEES5_S9_NS_4hashIS5_EESt8equal_toIS5_EEEEixERS6_@Base 4.2.0
 _ZN5boost9unordered6detail10table_implINS1_3mapISaISt4pairIKPvjEES5_jNS_4hashIS5_EESt8equal_toIS5_EEEE12emplace_implIIRS5_jEEES4_INS0_15iterator_detail8iteratorINS1_8ptr_nodeIS7_EEEEbERS6_DpOT_@Base 4.2.0
 _ZN5boost9unordered6detail10table_implINS1_3mapISaISt4pairIKPvjEES5_jNS_4hashIS5_EESt8equal_toIS5_EEEE12emplace_implIIRS6_RKjEEES4_INS0_15iterator_detail8iteratorINS1_8ptr_nodeIS7_EEEEbESG_DpOT_@Base 4.2.0
 _ZN5boost9unordered6detail10table_implINS1_3mapISaISt4pairIKPvjEES5_jNS_4hashIS5_EESt8equal_toIS5_EEEE12emplace_implIJRS5_jEEES4_INS0_15iterator_detail8iteratorINS1_8ptr_nodeIS7_EEEEbERS6_DpOT_@Base 4.2.0
 _ZN5boost9unordered6detail10table_implINS1_3mapISaISt4pairIKPvjEES5_jNS_4hashIS5_EESt8equal_toIS5_EEEE12emplace_implIJRS6_RKjEEES4_INS0_15iterator_detail8iteratorINS1_8ptr_nodeIS7_EEEEbESG_DpOT_@Base 4.2.0
 _ZN5boost9unordered6detail10table_implINS1_3mapISaISt4pairIKPvjEES5_jNS_4hashIS5_EESt8equal_toIS5_EEEE8add_nodeERNS1_16node_constructorISaINS1_8ptr_nodeIS7_EEEEEm@Base 4.2.0
 _ZN5boost9unordered6detail10table_implINS1_3mapISaISt4pairIKPvjEES5_jNS_4hashIS5_EESt8equal_toIS5_EEEEixERS6_@Base 4.2.0
 _ZN5boost9unordered6detail10table_implINS1_3mapISaISt4pairIKPvmEES5_mNS_4hashIS5_EESt8equal_toIS5_EEEEixERS6_@Base 4.2.0
 _ZN5boost9unordered6detail10table_implINS1_3mapISaISt4pairIKSt6vectorItSaItEEtEES7_tNS_4hashIS7_EESt8equal_toIS7_EEEEixERS8_@Base 4.2.0
 _ZN5boost9unordered6detail10table_implINS1_3mapISaISt4pairIKjPvEEjS6_NS_4hashIjEESt8equal_toIjEEEEixERS5_@Base 4.2.0
 _ZN5boost9unordered6detail10table_implINS1_3setISaIN3ue27left_idEES5_NS_4hashIS5_EESt8equal_toIS5_EEEE12emplace_implIIRKS5_EEESt4pairINS0_15iterator_detail8iteratorINS1_8ptr_nodeIS5_EEEEbESF_DpOT_@Base 4.2.0
 _ZN5boost9unordered6detail10table_implINS1_3setISaIN3ue27left_idEES5_NS_4hashIS5_EESt8equal_toIS5_EEEE12emplace_implIJRKS5_EEESt4pairINS0_15iterator_detail8iteratorINS1_8ptr_nodeIS5_EEEEbESF_DpOT_@Base 4.2.0
 _ZN5boost9unordered6detail10table_implINS1_3setISaINS_6detail14edge_desc_implINS_17bidirectional_tagEPvEEES8_NS_4hashIS8_EESt8equal_toIS8_EEEE12emplace_implIIRKS8_EEESt4pairINS0_15iterator_detail8iteratorINS1_8ptr_nodeIS8_EEEEbESI_DpOT_@Base 4.2.0
 _ZN5boost9unordered6detail10table_implINS1_3setISaINS_6detail14edge_desc_implINS_17bidirectional_tagEPvEEES8_NS_4hashIS8_EESt8equal_toIS8_EEEE12emplace_implIJRKS8_EEESt4pairINS0_15iterator_detail8iteratorINS1_8ptr_nodeIS8_EEEEbESI_DpOT_@Base 4.2.0
 _ZN5boost9unordered6detail10table_implINS1_3setISaIPvES4_NS_4hashIS4_EESt8equal_toIS4_EEEE12emplace_implIIRKS4_EEESt4pairINS0_15iterator_detail8iteratorINS1_8ptr_nodeIS4_EEEEbESE_DpOT_@Base 4.2.0
 _ZN5boost9unordered6detail10table_implINS1_3setISaIPvES4_NS_4hashIS4_EESt8equal_toIS4_EEEE12emplace_implIIS4_EEESt4pairINS0_15iterator_detail8iteratorINS1_8ptr_nodeIS4_EEEEbERKS4_DpOT_@Base 4.2.0
 _ZN5boost9unordered6detail10table_implINS1_3setISaIPvES4_NS_4hashIS4_EESt8equal_toIS4_EEEE12emplace_implIJRKS4_EEESt4pairINS0_15iterator_detail8iteratorINS1_8ptr_nodeIS4_EEEEbESE_DpOT_@Base 4.2.0
 _ZN5boost9unordered6detail10table_implINS1_3setISaIPvES4_NS_4hashIS4_EESt8equal_toIS4_EEEE12emplace_implIJS4_EEESt4pairINS0_15iterator_detail8iteratorINS1_8ptr_nodeIS4_EEEEbERKS4_DpOT_@Base 4.2.0
 _ZN5boost9unordered6detail10table_implINS1_3setISaIPvES4_NS_4hashIS4_EESt8equal_toIS4_EEEE17insert_range_implIN9__gnu_cxx17__normal_iteratorIPKS4_St6vectorIS4_S5_EEEEEvRSF_T_SL_@Base 4.2.0
 _ZN5boost9unordered6detail10table_implINS1_3setISaIPvES4_NS_4hashIS4_EESt8equal_toIS4_EEEE17insert_range_implIN9__gnu_cxx17__normal_iteratorIPS4_St6vectorIS4_S5_EEEEEvRKS4_T_SL_@Base 4.2.0
 _ZN5boost9unordered6detail10table_implINS1_3setISaIPvES4_NS_4hashIS4_EESt8equal_toIS4_EEEE17insert_range_implISt23_Rb_tree_const_iteratorIS4_EEEvRKS4_T_SH_@Base 4.2.0
 _ZN5boost9unordered6detail10table_implINS1_3setISaIPvES4_NS_4hashIS4_EESt8equal_toIS4_EEEE18insert_range_impl2ISt14_List_iteratorIS4_EEEvRNS1_16node_constructorISaINS1_8ptr_nodeIS4_EEEEERKS4_T_SN_@Base 4.2.0
 _ZN5boost9unordered6detail10table_implINS1_3setISaIPvES4_NS_4hashIS4_EESt8equal_toIS4_EEEE18insert_range_impl2ISt23_Rb_tree_const_iteratorIS4_EEEvRNS1_16node_constructorISaINS1_8ptr_nodeIS4_EEEEERKS4_T_SN_@Base 4.2.0
 _ZN5boost9unordered6detail10table_implINS1_3setISaIPvES4_NS_4hashIS4_EESt8equal_toIS4_EEEE8add_nodeERNS1_16node_constructorISaINS1_8ptr_nodeIS4_EEEEEm@Base 4.2.0
 _ZN5boost9unordered6detail10table_implINS1_3setISaIPvES4_NS_4hashIS4_EESt8equal_toIS4_EEEE9erase_keyERKS4_@Base 4.2.0
 _ZN5boost9unordered6detail10table_implINS1_3setISaIjEjNS_4hashIjEESt8equal_toIjEEEE12emplace_implIIRKjEEESt4pairINS0_15iterator_detail8iteratorINS1_8ptr_nodeIjEEEEbESD_DpOT_@Base 4.2.0
 _ZN5boost9unordered6detail10table_implINS1_3setISaIjEjNS_4hashIjEESt8equal_toIjEEEE12emplace_implIJRKjEEESt4pairINS0_15iterator_detail8iteratorINS1_8ptr_nodeIjEEEEbESD_DpOT_@Base 4.2.0
 _ZN5boost9unordered6detail11node_holderISaINS1_8ptr_nodeIPvEEEED1Ev@Base 4.2.0
 _ZN5boost9unordered6detail11node_holderISaINS1_8ptr_nodeIPvEEEED2Ev@Base 4.2.0
 _ZN5boost9unordered6detail16node_constructorISaINS1_8ptr_nodeIN3ue214SlotCacheEntryEEEEED1Ev@Base 4.2.0
 _ZN5boost9unordered6detail16node_constructorISaINS1_8ptr_nodeIN3ue214SlotCacheEntryEEEEED2Ev@Base 4.2.0
 _ZN5boost9unordered6detail16node_constructorISaINS1_8ptr_nodeIPvEEEE9constructEv@Base 4.2.0
 _ZN5boost9unordered6detail16node_constructorISaINS1_8ptr_nodeISt10shared_ptrIKN3ue28NGHolderEEEEEED1Ev@Base 4.2.0
 _ZN5boost9unordered6detail16node_constructorISaINS1_8ptr_nodeISt10shared_ptrIKN3ue28NGHolderEEEEEED2Ev@Base 4.2.0
 _ZN5boost9unordered6detail16node_constructorISaINS1_8ptr_nodeISt4pairIKN3ue27left_idESt3setIPvSt4lessIS9_ESaIS9_EEEEEEED1Ev@Base 4.2.0
 _ZN5boost9unordered6detail16node_constructorISaINS1_8ptr_nodeISt4pairIKN3ue27left_idESt3setIPvSt4lessIS9_ESaIS9_EEEEEEED2Ev@Base 4.2.0
 _ZN5boost9unordered6detail16node_constructorISaINS1_8ptr_nodeISt4pairIKN3ue27left_idESt3setIjSt4lessIjESaIjEEEEEEED1Ev@Base 4.2.0
 _ZN5boost9unordered6detail16node_constructorISaINS1_8ptr_nodeISt4pairIKN3ue27left_idESt3setIjSt4lessIjESaIjEEEEEEED2Ev@Base 4.2.0
 _ZN5boost9unordered6detail16node_constructorISaINS1_8ptr_nodeISt4pairIKN3ue27left_idESt5dequeIPvSaIS9_EEEEEEED1Ev@Base 4.2.0
 _ZN5boost9unordered6detail16node_constructorISaINS1_8ptr_nodeISt4pairIKN3ue27left_idESt5dequeIPvSaIS9_EEEEEEED2Ev@Base 4.2.0
 _ZN5boost9unordered6detail16node_constructorISaINS1_8ptr_nodeISt4pairIKN3ue29suffix_idESt3setIPvSt4lessIS9_ESaIS9_EEEEEEED1Ev@Base 4.2.0
 _ZN5boost9unordered6detail16node_constructorISaINS1_8ptr_nodeISt4pairIKN3ue29suffix_idESt3setIPvSt4lessIS9_ESaIS9_EEEEEEED2Ev@Base 4.2.0
 _ZN5boost9unordered6detail16node_constructorISaINS1_8ptr_nodeISt4pairIKN3ue29suffix_idESt3setIjSt4lessIjESaIjEEEEEEED1Ev@Base 4.2.0
 _ZN5boost9unordered6detail16node_constructorISaINS1_8ptr_nodeISt4pairIKN3ue29suffix_idESt3setIjSt4lessIjESaIjEEEEEEED2Ev@Base 4.2.0
 _ZN5boost9unordered6detail16node_constructorISaINS1_8ptr_nodeISt4pairIKN3ue29suffix_idESt5dequeIPvSaIS9_EEEEEEED1Ev@Base 4.2.0
 _ZN5boost9unordered6detail16node_constructorISaINS1_8ptr_nodeISt4pairIKN3ue29suffix_idESt5dequeIPvSaIS9_EEEEEEED2Ev@Base 4.2.0
 _ZN5boost9unordered6detail16node_constructorISaINS1_8ptr_nodeISt4pairIKNS_6detail14edge_desc_implINS_17bidirectional_tagEPvEESt6vectorIS8_SaIS8_EEEEEEED1Ev@Base 4.2.0
 _ZN5boost9unordered6detail16node_constructorISaINS1_8ptr_nodeISt4pairIKNS_6detail14edge_desc_implINS_17bidirectional_tagEPvEESt6vectorIS8_SaIS8_EEEEEEED2Ev@Base 4.2.0
 _ZN5boost9unordered6detail16node_constructorISaINS1_8ptr_nodeISt4pairIKPKN3ue211raw_som_dfaESt10shared_ptrIS6_EEEEEED1Ev@Base 4.2.0
 _ZN5boost9unordered6detail16node_constructorISaINS1_8ptr_nodeISt4pairIKPKN3ue211raw_som_dfaESt10shared_ptrIS6_EEEEEED2Ev@Base 4.2.0
 _ZN5boost9unordered6detail16node_constructorISaINS1_8ptr_nodeISt4pairIKPKN3ue28NGHolderESt10shared_ptrINS5_11CastleProtoEEEEEEED1Ev@Base 4.2.0
 _ZN5boost9unordered6detail16node_constructorISaINS1_8ptr_nodeISt4pairIKPKN3ue28NGHolderESt10shared_ptrINS5_11CastleProtoEEEEEEED2Ev@Base 4.2.0
 _ZN5boost9unordered6detail16node_constructorISaINS1_8ptr_nodeISt4pairIKPKN3ue28NGHolderESt10shared_ptrINS5_7raw_dfaEEEEEEED1Ev@Base 4.2.0
 _ZN5boost9unordered6detail16node_constructorISaINS1_8ptr_nodeISt4pairIKPKN3ue28NGHolderESt10shared_ptrINS5_7raw_dfaEEEEEEED2Ev@Base 4.2.0
 _ZN5boost9unordered6detail16node_constructorISaINS1_8ptr_nodeISt4pairIKPKN3ue28NGHolderESt10shared_ptrIS6_EEEEEED1Ev@Base 4.2.0
 _ZN5boost9unordered6detail16node_constructorISaINS1_8ptr_nodeISt4pairIKPKN3ue28NGHolderESt10shared_ptrIS6_EEEEEED2Ev@Base 4.2.0
 _ZN5boost9unordered6detail16node_constructorISaINS1_8ptr_nodeISt4pairIKPN3ue211CastleProtoESt6vectorIPvSaISA_EEEEEEED1Ev@Base 4.2.0
 _ZN5boost9unordered6detail16node_constructorISaINS1_8ptr_nodeISt4pairIKPN3ue211CastleProtoESt6vectorIPvSaISA_EEEEEEED2Ev@Base 4.2.0
 _ZN5boost9unordered6detail16node_constructorISaINS1_8ptr_nodeISt4pairIKPvN3ue211AccelSchemeEEEEEED1Ev@Base 4.2.0
 _ZN5boost9unordered6detail16node_constructorISaINS1_8ptr_nodeISt4pairIKPvN3ue211AccelSchemeEEEEEED2Ev@Base 4.2.0
 _ZN5boost9unordered6detail16node_constructorISaINS1_8ptr_nodeISt4pairIKPvN3ue28flat_setIS5_St4lessIS5_ESaIS5_EEEEEEEED1Ev@Base 4.2.0
 _ZN5boost9unordered6detail16node_constructorISaINS1_8ptr_nodeISt4pairIKPvN3ue28flat_setIS5_St4lessIS5_ESaIS5_EEEEEEEED2Ev@Base 4.2.0
 _ZN5boost9unordered6detail16node_constructorISaINS1_8ptr_nodeISt4pairIKPvNS0_13unordered_setIS5_NS_4hashIS5_EESt8equal_toIS5_ESaIS5_EEEEEEEED1Ev@Base 4.2.0
 _ZN5boost9unordered6detail16node_constructorISaINS1_8ptr_nodeISt4pairIKPvNS0_13unordered_setIS5_NS_4hashIS5_EESt8equal_toIS5_ESaIS5_EEEEEEEED2Ev@Base 4.2.0
 _ZN5boost9unordered6detail16node_constructorISaINS1_8ptr_nodeISt4pairIKPvSt6vectorIS4_INS_6detail14edge_desc_implINS_17bidirectional_tagES5_EES5_ESaISC_EEEEEEED1Ev@Base 4.2.0
 _ZN5boost9unordered6detail16node_constructorISaINS1_8ptr_nodeISt4pairIKPvSt6vectorIS4_INS_6detail14edge_desc_implINS_17bidirectional_tagES5_EES5_ESaISC_EEEEEEED2Ev@Base 4.2.0
 _ZN5boost9unordered6detail16node_constructorISaINS1_8ptr_nodeISt4pairIKPvSt6vectorIS5_SaIS5_EEEEEEED1Ev@Base 4.2.0
 _ZN5boost9unordered6detail16node_constructorISaINS1_8ptr_nodeISt4pairIKPvSt6vectorIS5_SaIS5_EEEEEEED2Ev@Base 4.2.0
 _ZN5boost9unordered6detail16node_constructorISaINS1_8ptr_nodeISt4pairIKSt6vectorIN3ue29LookEntryESaIS7_EEmEEEEED1Ev@Base 4.2.0
 _ZN5boost9unordered6detail16node_constructorISaINS1_8ptr_nodeISt4pairIKSt6vectorIN3ue29LookEntryESaIS7_EEmEEEEED2Ev@Base 4.2.0
 _ZN5boost9unordered6detail16node_constructorISaINS1_8ptr_nodeISt4pairIKSt6vectorItSaItEEtEEEEED1Ev@Base 4.2.0
 _ZN5boost9unordered6detail16node_constructorISaINS1_8ptr_nodeISt4pairIKSt6vectorItSaItEEtEEEEED2Ev@Base 4.2.0
 _ZN5boost9unordered6detail16node_constructorISaINS1_8ptr_nodeISt4pairIKjN3ue28flat_setIjSt4lessIjESaIjEEEEEEEED1Ev@Base 4.2.0
 _ZN5boost9unordered6detail16node_constructorISaINS1_8ptr_nodeISt4pairIKjN3ue28flat_setIjSt4lessIjESaIjEEEEEEEED2Ev@Base 4.2.0
 _ZN5boost9unordered6detail16node_constructorISaINS1_8ptr_nodeISt6vectorIN3ue29CharReachESaIS6_EEEEEED1Ev@Base 4.2.0
 _ZN5boost9unordered6detail16node_constructorISaINS1_8ptr_nodeISt6vectorIN3ue29CharReachESaIS6_EEEEEED2Ev@Base 4.2.0
 _ZN5boost9unordered6detail17array_constructorISaINS1_10ptr_bucketEEE9constructIS3_EEvRKT_m@Base 4.2.0
 _ZN5boost9unordered6detail19prime_list_templateImE5valueE@Base 4.2.0
 _ZN5boost9unordered6detail5tableINS1_3mapISaISt4pairIKN3ue27left_idESt3setIPvSt4lessIS9_ESaIS9_EEEES6_SD_NS_4hashIS6_EESt8equal_toIS6_EEEE14create_bucketsEm@Base 4.2.0
 _ZN5boost9unordered6detail5tableINS1_3mapISaISt4pairIKN3ue27left_idESt3setIPvSt4lessIS9_ESaIS9_EEEES6_SD_NS_4hashIS6_EESt8equal_toIS6_EEEE14delete_bucketsEv@Base 4.2.0
 _ZN5boost9unordered6detail5tableINS1_3mapISaISt4pairIKN3ue27left_idESt3setIjSt4lessIjESaIjEEEES6_SC_NS_4hashIS6_EESt8equal_toIS6_EEEE14create_bucketsEm@Base 4.2.0
 _ZN5boost9unordered6detail5tableINS1_3mapISaISt4pairIKN3ue27left_idESt3setIjSt4lessIjESaIjEEEES6_SC_NS_4hashIS6_EESt8equal_toIS6_EEEE14delete_bucketsEv@Base 4.2.0
 _ZN5boost9unordered6detail5tableINS1_3mapISaISt4pairIKN3ue27left_idESt5dequeIPvSaIS9_EEEES6_SB_NS_4hashIS6_EESt8equal_toIS6_EEEE14create_bucketsEm@Base 4.2.0
 _ZN5boost9unordered6detail5tableINS1_3mapISaISt4pairIKN3ue27left_idESt5dequeIPvSaIS9_EEEES6_SB_NS_4hashIS6_EESt8equal_toIS6_EEEE14delete_bucketsEv@Base 4.2.0
 _ZN5boost9unordered6detail5tableINS1_3mapISaISt4pairIKN3ue27left_idESt5dequeIPvSaIS9_EEEES6_SB_NS_4hashIS6_EESt8equal_toIS6_EEEE18reserve_for_insertEm@Base 4.2.0
 _ZN5boost9unordered6detail5tableINS1_3mapISaISt4pairIKN3ue27left_idEjEES6_jNS_4hashIS6_EESt8equal_toIS6_EEEE14create_bucketsEm@Base 4.2.0
 _ZN5boost9unordered6detail5tableINS1_3mapISaISt4pairIKN3ue27left_idEjEES6_jNS_4hashIS6_EESt8equal_toIS6_EEEE14delete_bucketsEv@Base 4.2.0
 _ZN5boost9unordered6detail5tableINS1_3mapISaISt4pairIKN3ue27left_idEjEES6_jNS_4hashIS6_EESt8equal_toIS6_EEEE18reserve_for_insertEm@Base 4.2.0
 _ZN5boost9unordered6detail5tableINS1_3mapISaISt4pairIKN3ue27left_idEyEES6_yNS_4hashIS6_EESt8equal_toIS6_EEEE14create_bucketsEm@Base 4.2.0
 _ZN5boost9unordered6detail5tableINS1_3mapISaISt4pairIKN3ue28bitfieldILm256EEEtEES7_tNS_4hashIS7_EESt8equal_toIS7_EEEE14create_bucketsEm@Base 4.2.0
 _ZN5boost9unordered6detail5tableINS1_3mapISaISt4pairIKN3ue28bitfieldILm256EEEtEES7_tNS_4hashIS7_EESt8equal_toIS7_EEEE14delete_bucketsEv@Base 4.2.0
 _ZN5boost9unordered6detail5tableINS1_3mapISaISt4pairIKN3ue29suffix_idESt3setIPvSt4lessIS9_ESaIS9_EEEES6_SD_NS_4hashIS6_EESt8equal_toIS6_EEEE14create_bucketsEm@Base 4.2.0
 _ZN5boost9unordered6detail5tableINS1_3mapISaISt4pairIKN3ue29suffix_idESt3setIPvSt4lessIS9_ESaIS9_EEEES6_SD_NS_4hashIS6_EESt8equal_toIS6_EEEE14delete_bucketsEv@Base 4.2.0
 _ZN5boost9unordered6detail5tableINS1_3mapISaISt4pairIKN3ue29suffix_idESt3setIjSt4lessIjESaIjEEEES6_SC_NS_4hashIS6_EESt8equal_toIS6_EEEE14create_bucketsEm@Base 4.2.0
 _ZN5boost9unordered6detail5tableINS1_3mapISaISt4pairIKN3ue29suffix_idESt3setIjSt4lessIjESaIjEEEES6_SC_NS_4hashIS6_EESt8equal_toIS6_EEEE14delete_bucketsEv@Base 4.2.0
 _ZN5boost9unordered6detail5tableINS1_3mapISaISt4pairIKN3ue29suffix_idESt5dequeIPvSaIS9_EEEES6_SB_NS_4hashIS6_EESt8equal_toIS6_EEEE12delete_nodesEPNS1_10ptr_bucketESL_@Base 4.2.0
 _ZN5boost9unordered6detail5tableINS1_3mapISaISt4pairIKN3ue29suffix_idESt5dequeIPvSaIS9_EEEES6_SB_NS_4hashIS6_EESt8equal_toIS6_EEEE14create_bucketsEm@Base 4.2.0
 _ZN5boost9unordered6detail5tableINS1_3mapISaISt4pairIKN3ue29suffix_idESt5dequeIPvSaIS9_EEEES6_SB_NS_4hashIS6_EESt8equal_toIS6_EEEE14delete_bucketsEv@Base 4.2.0
 _ZN5boost9unordered6detail5tableINS1_3mapISaISt4pairIKN3ue29suffix_idESt5dequeIPvSaIS9_EEEES6_SB_NS_4hashIS6_EESt8equal_toIS6_EEEE18reserve_for_insertEm@Base 4.2.0
 _ZN5boost9unordered6detail5tableINS1_3mapISaISt4pairIKN3ue29suffix_idEjEES6_jNS_4hashIS6_EESt8equal_toIS6_EEEE14create_bucketsEm@Base 4.2.0
 _ZN5boost9unordered6detail5tableINS1_3mapISaISt4pairIKN3ue29suffix_idEjEES6_jNS_4hashIS6_EESt8equal_toIS6_EEEE14delete_bucketsEv@Base 4.2.0
 _ZN5boost9unordered6detail5tableINS1_3mapISaISt4pairIKNS_6detail14edge_desc_implINS_17bidirectional_tagEPvEESt6vectorIS8_SaIS8_EEEES9_SD_NS_4hashIS9_EESt8equal_toIS9_EEEE14create_bucketsEm@Base 4.2.0
 _ZN5boost9unordered6detail5tableINS1_3mapISaISt4pairIKNS_6detail14edge_desc_implINS_17bidirectional_tagEPvEESt6vectorIS8_SaIS8_EEEES9_SD_NS_4hashIS9_EESt8equal_toIS9_EEEE14delete_bucketsEv@Base 4.2.0
 _ZN5boost9unordered6detail5tableINS1_3mapISaISt4pairIKNS_6detail14edge_desc_implINS_17bidirectional_tagEmEES8_EES8_S8_NS_4hashIS8_EESt8equal_toIS8_EEEE14create_bucketsEm@Base 4.2.0
 _ZN5boost9unordered6detail5tableINS1_3mapISaISt4pairIKNS_6detail14edge_desc_implINS_17bidirectional_tagEmEES8_EES8_S8_NS_4hashIS8_EESt8equal_toIS8_EEEE14delete_bucketsEv@Base 4.2.0
 _ZN5boost9unordered6detail5tableINS1_3mapISaISt4pairIKNS_6detail14edge_desc_implINS_17bidirectional_tagEmEEyEES8_yNS_4hashIS8_EESt8equal_toIS8_EEEE14create_bucketsEm@Base 4.2.0
 _ZN5boost9unordered6detail5tableINS1_3mapISaISt4pairIKNS_6detail14edge_desc_implINS_17bidirectional_tagEmEEyEES8_yNS_4hashIS8_EESt8equal_toIS8_EEEE14delete_bucketsEv@Base 4.2.0
 _ZN5boost9unordered6detail5tableINS1_3mapISaISt4pairIKPKN3ue211raw_som_dfaESt10shared_ptrIS6_EEES8_SB_NS_4hashIS8_EESt8equal_toIS8_EEEE14create_bucketsEm@Base 4.2.0
 _ZN5boost9unordered6detail5tableINS1_3mapISaISt4pairIKPKN3ue211raw_som_dfaESt10shared_ptrIS6_EEES8_SB_NS_4hashIS8_EESt8equal_toIS8_EEEE14delete_bucketsEv@Base 4.2.0
 _ZN5boost9unordered6detail5tableINS1_3mapISaISt4pairIKPKN3ue28NGHolderESt10shared_ptrINS5_11CastleProtoEEEES8_SC_NS_4hashIS8_EESt8equal_toIS8_EEEE14delete_bucketsEv@Base 4.2.0
 _ZN5boost9unordered6detail5tableINS1_3mapISaISt4pairIKPKN3ue28NGHolderESt10shared_ptrINS5_7raw_dfaEEEES8_SC_NS_4hashIS8_EESt8equal_toIS8_EEEE14create_bucketsEm@Base 4.2.0
 _ZN5boost9unordered6detail5tableINS1_3mapISaISt4pairIKPKN3ue28NGHolderESt10shared_ptrINS5_7raw_dfaEEEES8_SC_NS_4hashIS8_EESt8equal_toIS8_EEEE14delete_bucketsEv@Base 4.2.0
 _ZN5boost9unordered6detail5tableINS1_3mapISaISt4pairIKPKN3ue28NGHolderESt10shared_ptrIS6_EEES8_SB_NS_4hashIS8_EESt8equal_toIS8_EEEE14create_bucketsEm@Base 4.2.0
 _ZN5boost9unordered6detail5tableINS1_3mapISaISt4pairIKPKN3ue28NGHolderESt10shared_ptrIS6_EEES8_SB_NS_4hashIS8_EESt8equal_toIS8_EEEE14delete_bucketsEv@Base 4.2.0
 _ZN5boost9unordered6detail5tableINS1_3mapISaISt4pairIKPKN3ue28NGHolderEjEES8_jNS_4hashIS8_EESt8equal_toIS8_EEEE14create_bucketsEm@Base 4.2.0
 _ZN5boost9unordered6detail5tableINS1_3mapISaISt4pairIKPKN3ue28NGHolderEjEES8_jNS_4hashIS8_EESt8equal_toIS8_EEEE14delete_bucketsEv@Base 4.2.0
 _ZN5boost9unordered6detail5tableINS1_3mapISaISt4pairIKPN3ue211CastleProtoESt6vectorIPvSaISA_EEEES7_SC_NS_4hashIS7_EESt8equal_toIS7_EEEE14delete_bucketsEv@Base 4.2.0
 _ZN5boost9unordered6detail5tableINS1_3mapISaISt4pairIKPN3ue211raw_som_dfaEmEES7_mNS_4hashIS7_EESt8equal_toIS7_EEEE14create_bucketsEm@Base 4.2.0
 _ZN5boost9unordered6detail5tableINS1_3mapISaISt4pairIKPN3ue211raw_som_dfaEmEES7_mNS_4hashIS7_EESt8equal_toIS7_EEEE14delete_bucketsEv@Base 4.2.0
 _ZN5boost9unordered6detail5tableINS1_3mapISaISt4pairIKPN3ue27raw_dfaEmEES7_mNS_4hashIS7_EESt8equal_toIS7_EEEE14create_bucketsEm@Base 4.2.0
 _ZN5boost9unordered6detail5tableINS1_3mapISaISt4pairIKPN3ue27raw_dfaEmEES7_mNS_4hashIS7_EESt8equal_toIS7_EEEE14delete_bucketsEv@Base 4.2.0
 _ZN5boost9unordered6detail5tableINS1_3mapISaISt4pairIKPvN3ue211AccelSchemeEEES5_S8_NS_4hashIS5_EESt8equal_toIS5_EEEE14create_bucketsEm@Base 4.2.0
 _ZN5boost9unordered6detail5tableINS1_3mapISaISt4pairIKPvN3ue211AccelSchemeEEES5_S8_NS_4hashIS5_EESt8equal_toIS5_EEEE14delete_bucketsEv@Base 4.2.0
 _ZN5boost9unordered6detail5tableINS1_3mapISaISt4pairIKPvN3ue214NFAVertexDepthEEES5_S8_NS_4hashIS5_EESt8equal_toIS5_EEEE14create_bucketsEm@Base 4.2.0
 _ZN5boost9unordered6detail5tableINS1_3mapISaISt4pairIKPvN3ue214NFAVertexDepthEEES5_S8_NS_4hashIS5_EESt8equal_toIS5_EEEE14delete_bucketsEv@Base 4.2.0
 _ZN5boost9unordered6detail5tableINS1_3mapISaISt4pairIKPvN3ue214NFAVertexDepthEEES5_S8_NS_4hashIS5_EESt8equal_toIS5_EEEE18reserve_for_insertEm@Base 4.2.0
 _ZN5boost9unordered6detail5tableINS1_3mapISaISt4pairIKPvN3ue25depthEEES5_S8_NS_4hashIS5_EESt8equal_toIS5_EEEE14create_bucketsEm@Base 4.2.0
 _ZN5boost9unordered6detail5tableINS1_3mapISaISt4pairIKPvN3ue25depthEEES5_S8_NS_4hashIS5_EESt8equal_toIS5_EEEE14delete_bucketsEv@Base 4.2.0
 _ZN5boost9unordered6detail5tableINS1_3mapISaISt4pairIKPvN3ue28flat_setIS5_St4lessIS5_ESaIS5_EEEEES5_SC_NS_4hashIS5_EESt8equal_toIS5_EEEE14create_bucketsEm@Base 4.2.0
 _ZN5boost9unordered6detail5tableINS1_3mapISaISt4pairIKPvNS_18default_color_typeEEES5_S7_NS_4hashIS5_EESt8equal_toIS5_EEEE14create_bucketsEm@Base 4.2.0
 _ZN5boost9unordered6detail5tableINS1_3mapISaISt4pairIKPvNS_18default_color_typeEEES5_S7_NS_4hashIS5_EESt8equal_toIS5_EEEE14delete_bucketsEv@Base 4.2.0
 _ZN5boost9unordered6detail5tableINS1_3mapISaISt4pairIKPvS5_EES5_S5_NS_4hashIS5_EESt8equal_toIS5_EEEE14create_bucketsEm@Base 4.2.0
 _ZN5boost9unordered6detail5tableINS1_3mapISaISt4pairIKPvS5_EES5_S5_NS_4hashIS5_EESt8equal_toIS5_EEEE14delete_bucketsEv@Base 4.2.0
 _ZN5boost9unordered6detail5tableINS1_3mapISaISt4pairIKPvS5_EES5_S5_NS_4hashIS5_EESt8equal_toIS5_EEEE18reserve_for_insertEm@Base 4.2.0
 _ZN5boost9unordered6detail5tableINS1_3mapISaISt4pairIKPvSt6vectorIS4_INS_6detail14edge_desc_implINS_17bidirectional_tagES5_EES5_ESaISC_EEEES5_SE_NS_4hashIS5_EESt8equal_toIS5_EEEE14create_bucketsEm@Base 4.2.0
 _ZN5boost9unordered6detail5tableINS1_3mapISaISt4pairIKPvSt6vectorIS4_INS_6detail14edge_desc_implINS_17bidirectional_tagES5_EES5_ESaISC_EEEES5_SE_NS_4hashIS5_EESt8equal_toIS5_EEEE14delete_bucketsEv@Base 4.2.0
 _ZN5boost9unordered6detail5tableINS1_3mapISaISt4pairIKPvSt6vectorIS5_SaIS5_EEEES5_S9_NS_4hashIS5_EESt8equal_toIS5_EEEE14create_bucketsEm@Base 4.2.0
 _ZN5boost9unordered6detail5tableINS1_3mapISaISt4pairIKPvSt6vectorIS5_SaIS5_EEEES5_S9_NS_4hashIS5_EESt8equal_toIS5_EEEE14delete_bucketsEv@Base 4.2.0
 _ZN5boost9unordered6detail5tableINS1_3mapISaISt4pairIKPvjEES5_jNS_4hashIS5_EESt8equal_toIS5_EEEE14create_bucketsEm@Base 4.2.0
 _ZN5boost9unordered6detail5tableINS1_3mapISaISt4pairIKPvjEES5_jNS_4hashIS5_EESt8equal_toIS5_EEEE14delete_bucketsEv@Base 4.2.0
 _ZN5boost9unordered6detail5tableINS1_3mapISaISt4pairIKPvjEES5_jNS_4hashIS5_EESt8equal_toIS5_EEEE18reserve_for_insertEm@Base 4.2.0
 _ZN5boost9unordered6detail5tableINS1_3mapISaISt4pairIKPvmEES5_mNS_4hashIS5_EESt8equal_toIS5_EEEE14create_bucketsEm@Base 4.2.0
 _ZN5boost9unordered6detail5tableINS1_3mapISaISt4pairIKPvmEES5_mNS_4hashIS5_EESt8equal_toIS5_EEEE14delete_bucketsEv@Base 4.2.0
 _ZN5boost9unordered6detail5tableINS1_3mapISaISt4pairIKSt6vectorIN3ue29LookEntryESaIS7_EEmEES9_mNS_4hashIS9_EESt8equal_toIS9_EEEE14create_bucketsEm@Base 4.2.0
 _ZN5boost9unordered6detail5tableINS1_3mapISaISt4pairIKSt6vectorItSaItEEtEES7_tNS_4hashIS7_EESt8equal_toIS7_EEEE14create_bucketsEm@Base 4.2.0
 _ZN5boost9unordered6detail5tableINS1_3mapISaISt4pairIKSt6vectorItSaItEEtEES7_tNS_4hashIS7_EESt8equal_toIS7_EEEE14delete_bucketsEv@Base 4.2.0
 _ZN5boost9unordered6detail5tableINS1_3mapISaISt4pairIKjN3ue28flat_setIjSt4lessIjESaIjEEEEEjSB_NS_4hashIjEESt8equal_toIjEEEE14delete_bucketsEv@Base 4.2.0
 _ZN5boost9unordered6detail5tableINS1_3mapISaISt4pairIKjPvEEjS6_NS_4hashIjEESt8equal_toIjEEEE14create_bucketsEm@Base 4.2.0
 _ZN5boost9unordered6detail5tableINS1_3mapISaISt4pairIKjPvEEjS6_NS_4hashIjEESt8equal_toIjEEEE14delete_bucketsEv@Base 4.2.0
 _ZN5boost9unordered6detail5tableINS1_3mapISaISt4pairIKjjEEjjNS_4hashIjEESt8equal_toIjEEEE14create_bucketsEm@Base 4.2.0
 _ZN5boost9unordered6detail5tableINS1_3setISaIN3ue27left_idEES5_NS_4hashIS5_EESt8equal_toIS5_EEEE14create_bucketsEm@Base 4.2.0
 _ZN5boost9unordered6detail5tableINS1_3setISaIN3ue27left_idEES5_NS_4hashIS5_EESt8equal_toIS5_EEEE14delete_bucketsEv@Base 4.2.0
 _ZN5boost9unordered6detail5tableINS1_3setISaIN3ue29suffix_idEES5_NS_4hashIS5_EESt8equal_toIS5_EEEE14create_bucketsEm@Base 4.2.0
 _ZN5boost9unordered6detail5tableINS1_3setISaIN3ue29suffix_idEES5_NS_4hashIS5_EESt8equal_toIS5_EEEE14delete_bucketsEv@Base 4.2.0
 _ZN5boost9unordered6detail5tableINS1_3setISaINS_6detail14edge_desc_implINS_17bidirectional_tagEPvEEES8_NS_4hashIS8_EESt8equal_toIS8_EEEE14create_bucketsEm@Base 4.2.0
 _ZN5boost9unordered6detail5tableINS1_3setISaINS_6detail14edge_desc_implINS_17bidirectional_tagEPvEEES8_NS_4hashIS8_EESt8equal_toIS8_EEEE14delete_bucketsEv@Base 4.2.0
 _ZN5boost9unordered6detail5tableINS1_3setISaIPvES4_NS_4hashIS4_EESt8equal_toIS4_EEEE14create_bucketsEm@Base 4.2.0
 _ZN5boost9unordered6detail5tableINS1_3setISaIPvES4_NS_4hashIS4_EESt8equal_toIS4_EEEE14delete_bucketsEv@Base 4.2.0
 _ZN5boost9unordered6detail5tableINS1_3setISaIPvES4_NS_4hashIS4_EESt8equal_toIS4_EEEE18reserve_for_insertEm@Base 4.2.0
 _ZN5boost9unordered6detail5tableINS1_3setISaISt10shared_ptrIKN3ue28NGHolderEEES8_NS5_14NGHolderHasherENS5_13NGHolderEqualEEEE14create_bucketsEm@Base 4.2.0
 _ZN5boost9unordered6detail5tableINS1_3setISaISt4pairIPvS5_EES6_NS_4hashIS6_EESt8equal_toIS6_EEEE14delete_bucketsEv@Base 4.2.0
 _ZN5boost9unordered6detail5tableINS1_3setISaISt4pairIjiEES5_NS_4hashIS5_EESt8equal_toIS5_EEEE14delete_bucketsEv@Base 4.2.0
 _ZN5boost9unordered6detail5tableINS1_3setISaISt6vectorIN3ue29CharReachESaIS6_EEES8_NS_4hashIS8_EESt8equal_toIS8_EEEE14create_bucketsEm@Base 4.2.0
 _ZN5boost9unordered6detail5tableINS1_3setISaISt6vectorIN3ue29CharReachESaIS6_EEES8_NS_4hashIS8_EESt8equal_toIS8_EEEE14delete_bucketsEv@Base 4.2.0
 _ZN5boost9unordered6detail5tableINS1_3setISaIjEjNS_4hashIjEESt8equal_toIjEEEE14create_bucketsEm@Base 4.2.0
 _ZN5boost9unordered6detail5tableINS1_3setISaIjEjNS_4hashIjEESt8equal_toIjEEEE14delete_bucketsEv@Base 4.2.0
 _ZN5boost9unordered6detail5tableINS1_3setISaImEmNS_4hashImEESt8equal_toImEEEE14delete_bucketsEv@Base 4.2.0
 _ZN5boost9unordered6detail5tableINS1_3setISaItEtNS_4hashItEESt8equal_toItEEEE14delete_bucketsEv@Base 4.2.0
 _ZN5boostanImSaImEEENS_14dynamic_bitsetIT_T0_EERKS5_S7_@Base 4.2.0
 _ZN5boostltImSaImEEEbRKNS_14dynamic_bitsetIT_T0_EES7_@Base 4.2.0
 _ZN9boost_ue242lengauer_tarjan_dominator_tree_without_dfsIN5boost13reverse_graphINS1_14adjacency_listINS1_5listSES4_NS1_14bidirectionalSEN3ue219NFAGraphVertexPropsENS6_17NFAGraphEdgePropsENS1_11no_propertyES4_EERKSA_EENS1_28adj_list_vertex_property_mapISA_jRKjMS7_jEENS1_21iterator_property_mapIN9__gnu_cxx17__normal_iteratorIPmSt6vectorImSaImEEEESI_mRmEENSJ_INSL_IPPvSN_IST_SaIST_EEEESI_ST_RST_EESW_NS1_24associative_property_mapINS1_9unordered13unordered_mapIST_ST_NS1_4hashIST_EESt8equal_toIST_ESaISt4pairIKST_ST_EEEEEEEEvRKT_RKNS1_12graph_traitsIS1D_E17vertex_descriptorERKT0_T1_T2_RT3_T4_@Base 4.2.0
 _ZN9boost_ue242lengauer_tarjan_dominator_tree_without_dfsIN5boost14adjacency_listINS1_5listSES3_NS1_14bidirectionalSEN3ue219NFAGraphVertexPropsENS5_17NFAGraphEdgePropsENS1_11no_propertyES3_EENS1_28adj_list_vertex_property_mapIS9_jRKjMS6_jEENS1_21iterator_property_mapIN9__gnu_cxx17__normal_iteratorIPmSt6vectorImSaImEEEESE_mRmEENSF_INSH_IPPvSJ_ISP_SaISP_EEEESE_SP_RSP_EESS_NS1_24associative_property_mapINS1_9unordered13unordered_mapISP_SP_NS1_4hashISP_EESt8equal_toISP_ESaISt4pairIKSP_SP_EEEEEEEEvRKT_RKNS1_12graph_traitsIS19_E17vertex_descriptorERKT0_T1_T2_RT3_T4_@Base 4.2.0
 _ZN9boost_ue26detail17dominator_visitorIN5boost13reverse_graphINS2_14adjacency_listINS2_5listSES5_NS2_14bidirectionalSEN3ue219NFAGraphVertexPropsENS7_17NFAGraphEdgePropsENS2_11no_propertyES5_EERKSB_EENS2_28adj_list_vertex_property_mapISB_jRKjMS8_jEENS2_21iterator_property_mapIN9__gnu_cxx17__normal_iteratorIPmSt6vectorImSaImEEEESJ_mRmEENSK_INSM_IPPvSO_ISU_SaISU_EEEESJ_SU_RSU_EENS2_24associative_property_mapINS2_9unordered13unordered_mapISU_SU_NS2_4hashISU_EESt8equal_toISU_ESaISt4pairIKSU_SU_EEEEEEE26ancestor_with_lowest_semi_ERS19_RKST_@Base 4.2.0
 _ZN9boost_ue26detail17dominator_visitorIN5boost14adjacency_listINS2_5listSES4_NS2_14bidirectionalSEN3ue219NFAGraphVertexPropsENS6_17NFAGraphEdgePropsENS2_11no_propertyES4_EENS2_28adj_list_vertex_property_mapISA_jRKjMS7_jEENS2_21iterator_property_mapIN9__gnu_cxx17__normal_iteratorIPmSt6vectorImSaImEEEESF_mRmEENSG_INSI_IPPvSK_ISQ_SaISQ_EEEESF_SQ_RSQ_EENS2_24associative_property_mapINS2_9unordered13unordered_mapISQ_SQ_NS2_4hashISQ_EESt8equal_toISQ_ESaISt4pairIKSQ_SQ_EEEEEEE26ancestor_with_lowest_semi_ERS15_RKSP_@Base 4.2.0
 _ZNK3ue210OutfixInfo15is_nonempty_mpvEv@Base 4.2.0
 _ZNK3ue210OutfixInfo7is_deadEv@Base 4.2.0
 _ZNK3ue210PureRepeatltERKS0_@Base 4.2.0
 _ZNK3ue211CastleProto5reachEv@Base 4.2.0
 _ZNK3ue211DepthMinMax3strB5cxx11Ev@Base 4.2.0
 _ZNK3ue211LeftEngInfocvbEv@Base 4.2.0
 _ZNK3ue211LeftEngInfoeqERKS0_@Base 4.2.0
 _ZNK3ue211ue2_literal10any_nocaseEv@Base 4.2.0
 _ZNK3ue211ue2_literal4elemcvNS_9CharReachEEv@Base 4.2.0
 _ZNK3ue211ue2_literal6substrEmm@Base 4.2.0
 _ZNK3ue211ue2_literalltERKS0_@Base 4.2.0
 _ZNK3ue212ComponentEUS4lastEv@Base 4.2.0
 _ZNK3ue212ComponentEUS5cloneEv@Base 4.2.0
 _ZNK3ue212ComponentEUS5emptyEv@Base 4.2.0
 _ZNK3ue212ComponentEUS5firstEv@Base 4.2.0
 _ZNK3ue212ComponentEUS6acceptERNS_21ConstComponentVisitorE@Base 4.2.0
 _ZNK3ue212DAccelSchemeltERKS0_@Base 4.2.0
 _ZNK3ue213ComponentByte4lastEv@Base 4.2.0
 _ZNK3ue213ComponentByte5cloneEv@Base 4.2.0
 _ZNK3ue213ComponentByte5emptyEv@Base 4.2.0
 _ZNK3ue213ComponentByte5firstEv@Base 4.2.0
 _ZNK3ue213ComponentByte6acceptERNS_21ConstComponentVisitorE@Base 4.2.0
 _ZNK3ue213ReportManager10numReportsEv@Base 4.2.0
 _ZNK3ue213ReportManager16getProgramOffsetEj@Base 4.2.0
 _ZNK3ue213ReportManager20getDkeyToReportTableEv@Base 4.2.0
 _ZNK3ue213ReportManager20patternSetCanExhaustEv@Base 4.2.0
 _ZNK3ue213ReportManager7getDkeyERKNS_6ReportE@Base 4.2.0
 _ZNK3ue213ReportManager8numDkeysEv@Base 4.2.0
 _ZNK3ue213ReportManager8numEkeysEv@Base 4.2.0
 _ZNK3ue213ReportManager9getReportEj@Base 4.2.0
 _ZNK3ue213RoseBuildImpl10hasFinalIdEj@Base 4.2.0
 _ZNK3ue213RoseBuildImpl10hasLiteralERKNS_11ue2_literalENS_18rose_literal_tableE@Base 4.2.0
 _ZNK3ue213RoseBuildImpl10isAnchoredEPv@Base 4.2.0
 _ZNK3ue213RoseBuildImpl10isFloatingEPv@Base 4.2.0
 _ZNK3ue213RoseBuildImpl10isInETableEPv@Base 4.2.0
 _ZNK3ue213RoseBuildImpl12hasDelayPredEPv@Base 4.2.0
 _ZNK3ue213RoseBuildImpl12isPseudoStarERKN5boost6detail14edge_desc_implINS1_17bidirectional_tagEPvEE@Base 4.2.0
 _ZNK3ue213RoseBuildImpl12validateMaskERKSt6vectorINS_9CharReachESaIS2_EERKNS_8flat_setIjSt4lessIjESaIjEEEbb@Base 4.2.0
 _ZNK3ue213RoseBuildImpl13getSuccGroupsEPv@Base 4.2.0
 _ZNK3ue213RoseBuildImpl13maxLiteralLenEPv@Base 4.2.0
 _ZNK3ue213RoseBuildImpl13minLiteralLenEPv@Base 4.2.0
 _ZNK3ue213RoseBuildImpl14isDirectReportEj@Base 4.2.0
 _ZNK3ue213RoseBuildImpl15isRootSuccessorERKPv@Base 4.2.0
 _ZNK3ue213RoseBuildImpl16calcSuccMaxBoundEPv@Base 4.2.0
 _ZNK3ue213RoseBuildImpl16getInitialGroupsEv@Base 4.2.0
 _ZNK3ue213RoseBuildImpl17generateDedupeAuxEv@Base 4.2.0
 _ZNK3ue213RoseBuildImpl17hasDelayedLiteralEPv@Base 4.2.0
 _ZNK3ue213RoseBuildImpl17hasLiteralInTableEPvNS_18rose_literal_tableE@Base 4.2.0
 _ZNK3ue213RoseBuildImpl17maxLiteralOverlapEPvS1_@Base 4.2.0
 _ZNK3ue213RoseBuildImpl18hasNoFloatingRootsEv@Base 4.2.0
 _ZNK3ue213RoseBuildImpl18isNonRootSuccessorERKPv@Base 4.2.0
 _ZNK3ue213RoseBuildImpl19calcHistoryRequiredEv@Base 4.2.0
 _ZNK3ue213RoseBuildImpl20hasAnchoredTablePredEPv@Base 4.2.0
 _ZNK3ue213RoseBuildImpl23isPseudoStarOrFirstOnlyERKN5boost6detail14edge_desc_implINS1_17bidirectional_tagEPvEE@Base 4.2.0
 _ZNK3ue213RoseBuildImpl24hasOnlyPseudoStarInEdgesEPv@Base 4.2.0
 _ZNK3ue213RoseBuildImpl9getGroupsEPv@Base 4.2.0
 _ZNK3ue213RoseBuildImpl9isDelayedEj@Base 4.2.0
 _ZNK3ue214ComponentClass5emptyEv@Base 4.2.0
 _ZNK3ue214ComponentEmpty10repeatableEv@Base 4.2.0
 _ZNK3ue214ComponentEmpty18vacuous_everywhereEv@Base 4.2.0
 _ZNK3ue214ComponentEmpty22checkEmbeddedEndAnchorEb@Base 4.2.0
 _ZNK3ue214ComponentEmpty24checkEmbeddedStartAnchorEb@Base 4.2.0
 _ZNK3ue214ComponentEmpty4lastEv@Base 4.2.0
 _ZNK3ue214ComponentEmpty5cloneEv@Base 4.2.0
 _ZNK3ue214ComponentEmpty5emptyEv@Base 4.2.0
 _ZNK3ue214ComponentEmpty5firstEv@Base 4.2.0
 _ZNK3ue214ComponentEmpty6acceptERNS_21ConstComponentVisitorE@Base 4.2.0
 _ZNK3ue214GoughSSAVarMin8generateEPSt6vectorI9gough_insSaIS2_EE@Base 4.2.0
 _ZNK3ue214GoughSSAVarNew8generateEPSt6vectorI9gough_insSaIS2_EE@Base 4.2.0
 _ZNK3ue214RoseSuffixInfoeqERKS0_@Base 4.2.0
 _ZNK3ue214RoseSuffixInfoltERKS0_@Base 4.2.0
 _ZNK3ue214SlotEntryEqualclERKNS_14SlotCacheEntryES3_@Base 4.2.0
 _ZNK3ue214SomSlotManager11numSomSlotsEv@Base 4.2.0
 _ZNK3ue215ComponentRepeat10repeatableEv@Base 4.2.0
 _ZNK3ue215ComponentRepeat18vacuous_everywhereEv@Base 4.2.0
 _ZNK3ue215ComponentRepeat22checkEmbeddedEndAnchorEb@Base 4.2.0
 _ZNK3ue215ComponentRepeat24checkEmbeddedStartAnchorEb@Base 4.2.0
 _ZNK3ue215ComponentRepeat4lastEv@Base 4.2.0
 _ZNK3ue215ComponentRepeat5cloneEv@Base 4.2.0
 _ZNK3ue215ComponentRepeat5emptyEv@Base 4.2.0
 _ZNK3ue215ComponentRepeat5firstEv@Base 4.2.0
 _ZNK3ue215ComponentRepeat6acceptERNS_21ConstComponentVisitorE@Base 4.2.0
 _ZNK3ue215ComponentRepeat9getBoundsEv@Base 4.2.0
 _ZNK3ue215GoughSSAVarJoin13get_input_mapEv@Base 4.2.0
 _ZNK3ue215GoughSSAVarJoin19get_edges_for_inputEPNS_11GoughSSAVarE@Base 4.2.0
 _ZNK3ue215GoughSSAVarJoin8generateEPSt6vectorI9gough_insSaIS2_EE@Base 4.2.0
 _ZNK3ue215GoughSSAVarJoin9get_inputERKN5boost6detail14edge_desc_implINS1_17bidirectional_tagEmEE@Base 4.2.0
 _ZNK3ue215RoseVertexProps11fixedOffsetEv@Base 4.2.0
 _ZNK3ue215RoseVertexProps8isBoringEv@Base 4.2.0
 _ZNK3ue215SlotEntryHasherclERKNS_14SlotCacheEntryE@Base 4.2.0
 _ZNK3ue217ComponentBoundary10repeatableEv@Base 4.2.0
 _ZNK3ue217ComponentBoundary22checkEmbeddedEndAnchorEb@Base 4.2.0
 _ZNK3ue217ComponentBoundary24checkEmbeddedStartAnchorEb@Base 4.2.0
 _ZNK3ue217ComponentBoundary4lastEv@Base 4.2.0
 _ZNK3ue217ComponentBoundary5cloneEv@Base 4.2.0
 _ZNK3ue217ComponentBoundary5emptyEv@Base 4.2.0
 _ZNK3ue217ComponentBoundary5firstEv@Base 4.2.0
 _ZNK3ue217ComponentBoundary6acceptERNS_21ConstComponentVisitorE@Base 4.2.0
 _ZNK3ue217ComponentSequence11getChildrenEv@Base 4.2.0
 _ZNK3ue217ComponentSequence18vacuous_everywhereEv@Base 4.2.0
 _ZNK3ue217ComponentSequence22checkEmbeddedEndAnchorEb@Base 4.2.0
 _ZNK3ue217ComponentSequence24checkEmbeddedStartAnchorEb@Base 4.2.0
 _ZNK3ue217ComponentSequence4lastEv@Base 4.2.0
 _ZNK3ue217ComponentSequence5cloneEv@Base 4.2.0
 _ZNK3ue217ComponentSequence5emptyEv@Base 4.2.0
 _ZNK3ue217ComponentSequence5firstEv@Base 4.2.0
 _ZNK3ue217ComponentSequence6acceptERNS_21ConstComponentVisitorE@Base 4.2.0
 _ZNK3ue217EngineDescription15isValidOnTargetERKNS_8target_tE@Base 4.2.0
 _ZNK3ue217EngineDescription25typicallyHoldsOneCharLitsEv@Base 4.2.0
 _ZNK3ue217RoseDedupeAuxImpl21requiresDedupeSupportERKNS_8flat_setIjSt4lessIjESaIjEEE@Base 4.2.0
 _ZNK3ue218ComponentAssertion10repeatableEv@Base 4.2.0
 _ZNK3ue218ComponentAssertion4lastEv@Base 4.2.0
 _ZNK3ue218ComponentAssertion5cloneEv@Base 4.2.0
 _ZNK3ue218ComponentAssertion5emptyEv@Base 4.2.0
 _ZNK3ue218ComponentAssertion5firstEv@Base 4.2.0
 _ZNK3ue218ComponentAssertion6acceptERNS_21ConstComponentVisitorE@Base 4.2.0
 _ZNK3ue218UTF8ComponentClass11class_emptyEv@Base 4.2.0
 _ZNK3ue218UTF8ComponentClass4lastEv@Base 4.2.0
 _ZNK3ue218UTF8ComponentClass5cloneEv@Base 4.2.0
 _ZNK3ue218UTF8ComponentClass5firstEv@Base 4.2.0
 _ZNK3ue218UTF8ComponentClass6acceptERNS_21ConstComponentVisitorE@Base 4.2.0
 _ZNK3ue219AsciiComponentClass11class_emptyEv@Base 4.2.0
 _ZNK3ue219AsciiComponentClass4lastEv@Base 4.2.0
 _ZNK3ue219AsciiComponentClass5cloneEv@Base 4.2.0
 _ZNK3ue219AsciiComponentClass5firstEv@Base 4.2.0
 _ZNK3ue219AsciiComponentClass6acceptERNS_21ConstComponentVisitorE@Base 4.2.0
 _ZNK3ue220ComponentAlternation18vacuous_everywhereEv@Base 4.2.0
 _ZNK3ue220ComponentAlternation22checkEmbeddedEndAnchorEb@Base 4.2.0
 _ZNK3ue220ComponentAlternation24checkEmbeddedStartAnchorEb@Base 4.2.0
 _ZNK3ue220ComponentAlternation4lastEv@Base 4.2.0
 _ZNK3ue220ComponentAlternation5cloneEv@Base 4.2.0
 _ZNK3ue220ComponentAlternation5emptyEv@Base 4.2.0
 _ZNK3ue220ComponentAlternation5firstEv@Base 4.2.0
 _ZNK3ue220ComponentAlternation6acceptERNS_21ConstComponentVisitorE@Base 4.2.0
 _ZNK3ue220ComponentAtomicGroup5cloneEv@Base 4.2.0
 _ZNK3ue220ComponentAtomicGroup6acceptERNS_21ConstComponentVisitorE@Base 4.2.0
 _ZNK3ue220FDREngineDescription12getSchemeBitEjj@Base 4.2.0
 _ZNK3ue220FDREngineDescription14getBucketWidthEj@Base 4.2.0
 _ZNK3ue220FDREngineDescription25typicallyHoldsOneCharLitsEv@Base 4.2.0
 _ZNK3ue220FDREngineDescription27getDefaultFloodSuffixLengthEv@Base 4.2.0
 _ZNK3ue221ComponentWordBoundary10repeatableEv@Base 4.2.0
 _ZNK3ue221ComponentWordBoundary4lastEv@Base 4.2.0
 _ZNK3ue221ComponentWordBoundary5cloneEv@Base 4.2.0
 _ZNK3ue221ComponentWordBoundary5emptyEv@Base 4.2.0
 _ZNK3ue221ComponentWordBoundary5firstEv@Base 4.2.0
 _ZNK3ue221ComponentWordBoundary6acceptERNS_21ConstComponentVisitorE@Base 4.2.0
 _ZNK3ue221mcclellan_build_strat13gatherReportsERSt6vectorIjSaIjEES4_PhPj@Base 4.2.0
 _ZNK3ue221mcclellan_build_strat19find_escape_stringsEt@Base 4.2.0
 _ZNK3ue221mcclellan_build_strat24max_allowed_offset_accelEv@Base 4.2.0
 _ZNK3ue221mcclellan_build_strat7get_rawEv@Base 4.2.0
 _ZNK3ue221mcclellan_build_strat9accelSizeEv@Base 4.2.0
 _ZNK3ue222ComponentBackReference4lastEv@Base 4.2.0
 _ZNK3ue222ComponentBackReference5cloneEv@Base 4.2.0
 _ZNK3ue222ComponentBackReference5emptyEv@Base 4.2.0
 _ZNK3ue222ComponentBackReference5firstEv@Base 4.2.0
 _ZNK3ue222ComponentBackReference6acceptERNS_21ConstComponentVisitorE@Base 4.2.0
 _ZNK3ue222ComponentCondReference10repeatableEv@Base 4.2.0
 _ZNK3ue222ComponentCondReference4lastEv@Base 4.2.0
 _ZNK3ue222ComponentCondReference5cloneEv@Base 4.2.0
 _ZNK3ue222ComponentCondReference5emptyEv@Base 4.2.0
 _ZNK3ue222ComponentCondReference5firstEv@Base 4.2.0
 _ZNK3ue222ComponentCondReference6acceptERNS_21ConstComponentVisitorE@Base 4.2.0
 _ZNK3ue222TeddyEngineDescription11needConfirmERKSt6vectorINS_11hwlmLiteralESaIS2_EE@Base 4.2.0
 _ZNK3ue222TeddyEngineDescription27getDefaultFloodSuffixLengthEv@Base 4.2.0
 _ZNK3ue25depth3strB5cxx11Ev@Base 4.2.0
 _ZNK3ue25depthcvjEv@Base 4.2.0
 _ZNK3ue25depthplERKS0_@Base 4.2.0
 _ZNK3ue25depthplEi@Base 4.2.0
 _ZNK3ue27left_id4hashEv@Base 4.2.0
 _ZNK3ue27left_id5graphEv@Base 4.2.0
 _ZNK3ue27left_id6castleEv@Base 4.2.0
 _ZNK3ue27left_ideqERKS0_@Base 4.2.0
 _ZNK3ue27left_idltERKS0_@Base 4.2.0
 _ZNK3ue27raw_dfa13hasEodReportsEv@Base 4.2.0
 _ZNK3ue27raw_dfa16getImplAlphaSizeEv@Base 4.2.0
 _ZNK3ue28NGHolder16getSpecialVertexEj@Base 4.2.0
 _ZNK3ue28bitfieldILm256EE10find_firstEv@Base 4.2.0
 _ZNK3ue28bitfieldILm256EE5countEv@Base 4.2.0
 _ZNK3ue28flat_mapIjPNS_15GoughSSAVarJoinESt4lessIjESaISt4pairIjS2_EEE2atERKj@Base 4.2.0
 _ZNK3ue28target_t13is_atom_classEv@Base 4.2.0
 _ZNK3ue28target_t25can_run_on_code_built_forERKS0_@Base 4.2.0
 _ZNK3ue28target_t8has_avx2Ev@Base 4.2.0
 _ZNK3ue29CharReach10isSubsetOfERKS0_@Base 4.2.0
 _ZNK3ue29CharReach14isCaselessCharEv@Base 4.2.0
 _ZNK3ue29CharReach17isBit5InsensitiveEv@Base 4.2.0
 _ZNK3ue29CharReach7isAlphaEv@Base 4.2.0
 _ZNK3ue29CharReach9to_stringB5cxx11Ev@Base 4.2.0
 _ZNK3ue29Component10repeatableEv@Base 4.2.0
 _ZNK3ue29Component18vacuous_everywhereEv@Base 4.2.0
 _ZNK3ue29Component22checkEmbeddedEndAnchorEb@Base 4.2.0
 _ZNK3ue29Component24checkEmbeddedStartAnchorEb@Base 4.2.0
 _ZNK3ue29suffix_id4hashEv@Base 4.2.0
 _ZNK3ue29suffix_id5graphEv@Base 4.2.0
 _ZNK3ue29suffix_id6castleEv@Base 4.2.0
 _ZNK3ue29suffix_ideqERKS0_@Base 4.2.0
 _ZNK3ue29suffix_idltERKS0_@Base 4.2.0
 _ZNK5boost14dynamic_bitsetImSaImEE10intersectsERKS2_@Base 4.2.0
 _ZNK5boost14dynamic_bitsetImSaImEE14m_do_find_fromEm@Base 4.2.0
 _ZNK5boost14dynamic_bitsetImSaImEE18m_check_invariantsEv@Base 4.2.0
 _ZNK5boost14dynamic_bitsetImSaImEE4testEm@Base 4.2.0
 _ZNK5boost16bad_lexical_cast4whatEv@Base 4.2.0
 _ZNK5boost16exception_detail10clone_implINS0_19error_info_injectorINS_16bad_lexical_castEEEE5cloneEv@Base 4.2.0
 _ZNK5boost16exception_detail10clone_implINS0_19error_info_injectorINS_16bad_lexical_castEEEE7rethrowEv@Base 4.2.0
 _ZNK5boost16exception_detail10clone_implINS0_19error_info_injectorINS_9not_a_dagEEEE5cloneEv@Base 4.2.0
 _ZNK5boost16exception_detail10clone_implINS0_19error_info_injectorINS_9not_a_dagEEEE7rethrowEv@Base 4.2.0
 _ZNK5boost16exception_detail10clone_implINS0_19error_info_injectorISt12out_of_rangeEEE5cloneEv@Base 4.2.0
 _ZNK5boost16exception_detail10clone_implINS0_19error_info_injectorISt12out_of_rangeEEE7rethrowEv@Base 4.2.0
 _ZNK5boost27bad_ptr_container_operation4whatEv@Base 4.2.0
 _ZNK5boost7variantINS_5blankEISt10unique_ptrIN3ue28NGHolderESt14default_deleteIS4_EES2_INS3_7raw_dfaES5_IS8_EES2_INS3_11raw_som_dfaES5_ISB_EENS3_8MpvProtoEEE22internal_apply_visitorINS_6detail7variant14invoke_visitorINSI_11get_visitorIKS7_EEEEEENT_11result_typeERSO_@Base 4.2.0
 _ZNK5boost7variantINS_5blankEISt10unique_ptrIN3ue28NGHolderESt14default_deleteIS4_EES2_INS3_7raw_dfaES5_IS8_EES2_INS3_11raw_som_dfaES5_ISB_EENS3_8MpvProtoEEE22internal_apply_visitorINS_6detail7variant14invoke_visitorINSI_11get_visitorIKSD_EEEEEENT_11result_typeERSO_@Base 4.2.0
 _ZNK5boost7variantINS_5blankEJSt10unique_ptrIN3ue28NGHolderESt14default_deleteIS4_EES2_INS3_7raw_dfaES5_IS8_EES2_INS3_11raw_som_dfaES5_ISB_EENS3_8MpvProtoEEE22internal_apply_visitorINS_6detail7variant14invoke_visitorINSI_11get_visitorIKS7_EEEEEENT_11result_typeERSO_@Base 4.2.0
 _ZNK5boost7variantINS_5blankEJSt10unique_ptrIN3ue28NGHolderESt14default_deleteIS4_EES2_INS3_7raw_dfaES5_IS8_EES2_INS3_11raw_som_dfaES5_ISB_EENS3_8MpvProtoEEE22internal_apply_visitorINS_6detail7variant14invoke_visitorINSI_11get_visitorIKSD_EEEEEENT_11result_typeERSO_@Base 4.2.0
 _ZNK5boost9unordered6detail10table_implINS1_3mapISaISt4pairIKN3ue27left_idESt5dequeIPvSaIS9_EEEES6_SB_NS_4hashIS6_EESt8equal_toIS6_EEEE14find_node_implIS6_SH_EENS0_15iterator_detail8iteratorINS1_8ptr_nodeISC_EEEEmRKT_RKT0_@Base 4.2.0
 _ZNK5boost9unordered6detail10table_implINS1_3mapISaISt4pairIKN3ue29suffix_idESt5dequeIPvSaIS9_EEEES6_SB_NS_4hashIS6_EESt8equal_toIS6_EEEE14find_node_implIS6_SH_EENS0_15iterator_detail8iteratorINS1_8ptr_nodeISC_EEEEmRKT_RKT0_@Base 4.2.0
 _ZNK5boost9unordered6detail10table_implINS1_3mapISaISt4pairIKPvN3ue214NFAVertexDepthEEES5_S8_NS_4hashIS5_EESt8equal_toIS5_EEEE2atERS6_@Base 4.2.0
 _ZNK5boost9unordered6detail10table_implINS1_3mapISaISt4pairIKPvS5_EES5_S5_NS_4hashIS5_EESt8equal_toIS5_EEEE2atERS6_@Base 4.2.0
 _ZNK5boost9unordered6detail10table_implINS1_3mapISaISt4pairIKPvjEES5_jNS_4hashIS5_EESt8equal_toIS5_EEEE2atERS6_@Base 4.2.0
 _ZNK5boost9unordered6detail10table_implINS1_3setISaIPvES4_NS_4hashIS4_EESt8equal_toIS4_EEEE14find_node_implIS4_S9_EENS0_15iterator_detail8iteratorINS1_8ptr_nodeIS4_EEEEmRKT_RKT0_@Base 4.2.0
 _ZNK5boost9unordered6detail5tableINS1_3mapISaISt4pairIKN3ue27left_idESt5dequeIPvSaIS9_EEEES6_SB_NS_4hashIS6_EESt8equal_toIS6_EEEE9find_nodeERS7_@Base 4.2.0
 _ZNK5boost9unordered6detail5tableINS1_3mapISaISt4pairIKPvS5_EES5_S5_NS_4hashIS5_EESt8equal_toIS5_EEEE9find_nodeERS6_@Base 4.2.0
 _ZNK5boost9unordered6detail5tableINS1_3mapISaISt4pairIKPvjEES5_jNS_4hashIS5_EESt8equal_toIS5_EEEE9find_nodeERS6_@Base 4.2.0
 _ZNK5boost9unordered6detail5tableINS1_3setISaIN3ue27left_idEES5_NS_4hashIS5_EESt8equal_toIS5_EEEE9find_nodeERKS5_@Base 4.2.0
 _ZNK5boost9unordered6detail5tableINS1_3setISaIPvES4_NS_4hashIS4_EESt8equal_toIS4_EEEE9find_nodeERKS4_@Base 4.2.0
 _ZNKSt15_Deque_iteratorIN3ue217rose_literal_infoERS1_PS1_EplEl@Base 4.2.0
 _ZNKSt15_Deque_iteratorIPvRS0_PS0_EmiEl@Base 4.2.0
 _ZNKSt15_Deque_iteratorIPvRS0_PS0_EplEl@Base 4.2.0
 _ZNKSt5ctypeIcE8do_widenEc@Base 4.2.0
 _ZNKSt8_Rb_treeIN3ue213gough_edge_idESt4pairIKS1_St6vectorI9gough_insSaIS5_EEESt10_Select1stIS8_ESt4lessIS1_ESaIS8_EE4findERS3_@Base 4.2.0
 _ZNKSt8_Rb_treeIN3ue29suffix_idESt4pairIKS1_jESt10_Select1stIS4_ESt4lessIS1_ESaIS4_EE4findERS3_@Base 4.2.0
 _ZNKSt8_Rb_treeISt4pairIjjES0_IKS1_bESt10_Select1stIS3_ESt4lessIS1_ESaIS3_EE4findERS2_@Base 4.2.0
 _ZNSt10unique_ptrIN3ue29SlotCacheESt14default_deleteIS1_EED1Ev@Base 4.2.0
 _ZNSt10unique_ptrIN3ue29SlotCacheESt14default_deleteIS1_EED2Ev@Base 4.2.0
 _ZNSt10unique_ptrIN5boost14adjacency_listINS0_4vecSES2_NS0_14bidirectionalSEN3ue216GoughVertexPropsENS4_14GoughEdgePropsENS4_15GoughGraphPropsENS0_5listSEEESt14default_deleteIS9_EED1Ev@Base 4.2.0
 _ZNSt10unique_ptrIN5boost14adjacency_listINS0_4vecSES2_NS0_14bidirectionalSEN3ue216GoughVertexPropsENS4_14GoughEdgePropsENS4_15GoughGraphPropsENS0_5listSEEESt14default_deleteIS9_EED2Ev@Base 4.2.0
 _ZNSt11_Deque_baseIN3ue27left_idESaIS1_EE17_M_initialize_mapEm@Base 4.2.0
 _ZNSt11_Deque_baseIN3ue27left_idESaIS1_EED1Ev@Base 4.2.0
 _ZNSt11_Deque_baseIN3ue27left_idESaIS1_EED2Ev@Base 4.2.0
 _ZNSt11_Deque_baseIN3ue29suffix_idESaIS1_EED1Ev@Base 4.2.0
 _ZNSt11_Deque_baseIN3ue29suffix_idESaIS1_EED2Ev@Base 4.2.0
 _ZNSt11_Deque_baseIPvSaIS0_EE17_M_initialize_mapEm@Base 4.2.0
 _ZNSt11_Deque_baseIPvSaIS0_EEC1EOS2_St17integral_constantIbLb1EE@Base 4.2.0
 _ZNSt11_Deque_baseIPvSaIS0_EEC2EOS2_St17integral_constantIbLb1EE@Base 4.2.0
 _ZNSt11_Deque_baseIPvSaIS0_EED1Ev@Base 4.2.0
 _ZNSt11_Deque_baseIPvSaIS0_EED2Ev@Base 4.2.0
 _ZNSt11_Deque_baseISt10unique_ptrIN3ue27raw_dfaESt14default_deleteIS2_EESaIS5_EE17_M_initialize_mapEm@Base 4.2.0
 _ZNSt11_Deque_baseISt10unique_ptrIN3ue28NGHolderESt14default_deleteIS2_EESaIS5_EE17_M_initialize_mapEm@Base 4.2.0
 _ZNSt11_Deque_baseISt4pairIPvS1_ESaIS2_EED1Ev@Base 4.2.0
 _ZNSt11_Deque_baseISt4pairIPvS1_ESaIS2_EED2Ev@Base 4.2.0
 _ZNSt11_Deque_baseISt4pairIjjESaIS1_EED1Ev@Base 4.2.0
 _ZNSt11_Deque_baseISt4pairIjjESaIS1_EED2Ev@Base 4.2.0
 _ZNSt11_Deque_baseISt4pairImPvESaIS2_EE17_M_initialize_mapEm@Base 4.2.0
 _ZNSt11_Deque_baseISt4pairImPvESaIS2_EED1Ev@Base 4.2.0
 _ZNSt11_Deque_baseISt4pairImPvESaIS2_EED2Ev@Base 4.2.0
 _ZNSt11_Deque_baseISt5dequeIPvSaIS1_EESaIS3_EE17_M_initialize_mapEm@Base 4.2.0
 _ZNSt11_Deque_baseISt6vectorIjSaIjEESaIS2_EE17_M_initialize_mapEm@Base 4.2.0
 _ZNSt11_Deque_baseImSaImEE17_M_initialize_mapEm@Base 4.2.0
 _ZNSt11_Deque_baseImSaImEED1Ev@Base 4.2.0
 _ZNSt11_Deque_baseImSaImEED2Ev@Base 4.2.0
 _ZNSt11_Deque_baseItSaItEE17_M_initialize_mapEm@Base 4.2.0
 _ZNSt11_Deque_baseItSaItEED1Ev@Base 4.2.0
 _ZNSt11_Deque_baseItSaItEED2Ev@Base 4.2.0
 _ZNSt12__shared_ptrIN3ue211CastleProtoELN9__gnu_cxx12_Lock_policyE2EEC1ERKS4_@Base 4.2.0
 _ZNSt12__shared_ptrIN3ue211CastleProtoELN9__gnu_cxx12_Lock_policyE2EEC1ISaIS1_EIRS1_EEESt19_Sp_make_shared_tagRKT_DpOT0_@Base 4.2.0
 _ZNSt12__shared_ptrIN3ue211CastleProtoELN9__gnu_cxx12_Lock_policyE2EEC1ISaIS1_EJRS1_EEESt19_Sp_make_shared_tagRKT_DpOT0_@Base 4.2.0
 _ZNSt12__shared_ptrIN3ue211CastleProtoELN9__gnu_cxx12_Lock_policyE2EEC2ERKS4_@Base 4.2.0
 _ZNSt12__shared_ptrIN3ue211CastleProtoELN9__gnu_cxx12_Lock_policyE2EEC2ISaIS1_EIRS1_EEESt19_Sp_make_shared_tagRKT_DpOT0_@Base 4.2.0
 _ZNSt12__shared_ptrIN3ue211CastleProtoELN9__gnu_cxx12_Lock_policyE2EEC2ISaIS1_EJRS1_EEESt19_Sp_make_shared_tagRKT_DpOT0_@Base 4.2.0
 _ZNSt12__shared_ptrIN3ue211raw_som_dfaELN9__gnu_cxx12_Lock_policyE2EEC1ERKS4_@Base 4.2.0
 _ZNSt12__shared_ptrIN3ue211raw_som_dfaELN9__gnu_cxx12_Lock_policyE2EEC1IS1_St14default_deleteIS1_EvEEOSt10unique_ptrIT_T0_E@Base 4.2.0
 _ZNSt12__shared_ptrIN3ue211raw_som_dfaELN9__gnu_cxx12_Lock_policyE2EEC2ERKS4_@Base 4.2.0
 _ZNSt12__shared_ptrIN3ue211raw_som_dfaELN9__gnu_cxx12_Lock_policyE2EEC2IS1_St14default_deleteIS1_EvEEOSt10unique_ptrIT_T0_E@Base 4.2.0
 _ZNSt12__shared_ptrIN3ue28NGHolderELN9__gnu_cxx12_Lock_policyE2EEC1ERKS4_@Base 4.2.0
 _ZNSt12__shared_ptrIN3ue28NGHolderELN9__gnu_cxx12_Lock_policyE2EEC1IS1_St14default_deleteIS1_EvEEOSt10unique_ptrIT_T0_E@Base 4.2.0
 _ZNSt12__shared_ptrIN3ue28NGHolderELN9__gnu_cxx12_Lock_policyE2EEC1ISaIS1_EIEEESt19_Sp_make_shared_tagRKT_DpOT0_@Base 4.2.0
 _ZNSt12__shared_ptrIN3ue28NGHolderELN9__gnu_cxx12_Lock_policyE2EEC1ISaIS1_EJEEESt19_Sp_make_shared_tagRKT_DpOT0_@Base 4.2.0
 _ZNSt12__shared_ptrIN3ue28NGHolderELN9__gnu_cxx12_Lock_policyE2EEC2ERKS4_@Base 4.2.0
 _ZNSt12__shared_ptrIN3ue28NGHolderELN9__gnu_cxx12_Lock_policyE2EEC2IS1_St14default_deleteIS1_EvEEOSt10unique_ptrIT_T0_E@Base 4.2.0
 _ZNSt12__shared_ptrIN3ue28NGHolderELN9__gnu_cxx12_Lock_policyE2EEC2ISaIS1_EIEEESt19_Sp_make_shared_tagRKT_DpOT0_@Base 4.2.0
 _ZNSt12__shared_ptrIN3ue28NGHolderELN9__gnu_cxx12_Lock_policyE2EEC2ISaIS1_EJEEESt19_Sp_make_shared_tagRKT_DpOT0_@Base 4.2.0
 _ZNSt12__shared_ptrIN3ue28NGHolderELN9__gnu_cxx12_Lock_policyE2EEaSIS1_St14default_deleteIS1_EEERS4_OSt10unique_ptrIT_T0_E@Base 4.2.0
 _ZNSt13_Bvector_baseISaIbEE13_M_deallocateEv@Base 4.2.0
 _ZNSt14__shared_countILN9__gnu_cxx12_Lock_policyE2EEaSERKS2_@Base 4.2.0
 _ZNSt15_Deque_iteratorIPvRKS0_PS1_EpLEl@Base 4.2.0
 _ZNSt15_Deque_iteratorIPvRS0_PS0_EpLEl@Base 4.2.0
 _ZNSt15_Sp_counted_ptrIDnLN9__gnu_cxx12_Lock_policyE2EE10_M_disposeEv@Base 4.2.0
 _ZNSt15__tuple_compareISt5tupleIIRKmRKSt3setISt4pairImjESt4lessIS5_ESaIS5_EEEESC_Lm0ELm2EE6__lessERKSC_SF_@Base 4.2.0
 _ZNSt15__tuple_compareISt5tupleIJRKmRKSt3setISt4pairImjESt4lessIS5_ESaIS5_EEEESC_Lm0ELm2EE6__lessERKSC_SF_@Base 4.2.0
 _ZNSt16_Sp_counted_baseILN9__gnu_cxx12_Lock_policyE2EE10_M_destroyEv@Base 4.2.0
 _ZNSt16_Sp_counted_baseILN9__gnu_cxx12_Lock_policyE2EE10_M_releaseEv@Base 4.2.0
 _ZNSt19_Sp_counted_deleterIP3FDRN3ue214AlignedDeleterIS0_EESaIvELN9__gnu_cxx12_Lock_policyE2EE10_M_destroyEv@Base 4.2.0
 _ZNSt19_Sp_counted_deleterIP3FDRN3ue214AlignedDeleterIS0_EESaIvELN9__gnu_cxx12_Lock_policyE2EE10_M_disposeEv@Base 4.2.0
 _ZNSt19_Sp_counted_deleterIP3FDRN3ue214AlignedDeleterIS0_EESaIvELN9__gnu_cxx12_Lock_policyE2EE14_M_get_deleterERKSt9type_info@Base 4.2.0
 _ZNSt19_Sp_counted_deleterIP3FDRN3ue214AlignedDeleterIS0_EESaIvELN9__gnu_cxx12_Lock_policyE2EED0Ev@Base 4.2.0
 _ZNSt19_Sp_counted_deleterIP3FDRN3ue214AlignedDeleterIS0_EESaIvELN9__gnu_cxx12_Lock_policyE2EED1Ev@Base 4.2.0
 _ZNSt19_Sp_counted_deleterIP3FDRN3ue214AlignedDeleterIS0_EESaIvELN9__gnu_cxx12_Lock_policyE2EED2Ev@Base 4.2.0
 _ZNSt19_Sp_counted_deleterIP9noodTableN3ue214AlignedDeleterIS0_EESaIvELN9__gnu_cxx12_Lock_policyE2EE10_M_destroyEv@Base 4.2.0
 _ZNSt19_Sp_counted_deleterIP9noodTableN3ue214AlignedDeleterIS0_EESaIvELN9__gnu_cxx12_Lock_policyE2EE10_M_disposeEv@Base 4.2.0
 _ZNSt19_Sp_counted_deleterIP9noodTableN3ue214AlignedDeleterIS0_EESaIvELN9__gnu_cxx12_Lock_policyE2EE14_M_get_deleterERKSt9type_info@Base 4.2.0
 _ZNSt19_Sp_counted_deleterIP9noodTableN3ue214AlignedDeleterIS0_EESaIvELN9__gnu_cxx12_Lock_policyE2EED0Ev@Base 4.2.0
 _ZNSt19_Sp_counted_deleterIP9noodTableN3ue214AlignedDeleterIS0_EESaIvELN9__gnu_cxx12_Lock_policyE2EED1Ev@Base 4.2.0
 _ZNSt19_Sp_counted_deleterIP9noodTableN3ue214AlignedDeleterIS0_EESaIvELN9__gnu_cxx12_Lock_policyE2EED2Ev@Base 4.2.0
 _ZNSt19_Sp_counted_deleterIPN3ue211raw_som_dfaESt14default_deleteIS1_ESaIvELN9__gnu_cxx12_Lock_policyE2EE10_M_destroyEv@Base 4.2.0
 _ZNSt19_Sp_counted_deleterIPN3ue211raw_som_dfaESt14default_deleteIS1_ESaIvELN9__gnu_cxx12_Lock_policyE2EE10_M_disposeEv@Base 4.2.0
 _ZNSt19_Sp_counted_deleterIPN3ue211raw_som_dfaESt14default_deleteIS1_ESaIvELN9__gnu_cxx12_Lock_policyE2EE14_M_get_deleterERKSt9type_info@Base 4.2.0
 _ZNSt19_Sp_counted_deleterIPN3ue211raw_som_dfaESt14default_deleteIS1_ESaIvELN9__gnu_cxx12_Lock_policyE2EED0Ev@Base 4.2.0
 _ZNSt19_Sp_counted_deleterIPN3ue211raw_som_dfaESt14default_deleteIS1_ESaIvELN9__gnu_cxx12_Lock_policyE2EED1Ev@Base 4.2.0
 _ZNSt19_Sp_counted_deleterIPN3ue211raw_som_dfaESt14default_deleteIS1_ESaIvELN9__gnu_cxx12_Lock_policyE2EED2Ev@Base 4.2.0
 _ZNSt19_Sp_counted_deleterIPN3ue27raw_dfaESt14default_deleteIS1_ESaIvELN9__gnu_cxx12_Lock_policyE2EE10_M_destroyEv@Base 4.2.0
 _ZNSt19_Sp_counted_deleterIPN3ue27raw_dfaESt14default_deleteIS1_ESaIvELN9__gnu_cxx12_Lock_policyE2EE10_M_disposeEv@Base 4.2.0
 _ZNSt19_Sp_counted_deleterIPN3ue27raw_dfaESt14default_deleteIS1_ESaIvELN9__gnu_cxx12_Lock_policyE2EE14_M_get_deleterERKSt9type_info@Base 4.2.0
 _ZNSt19_Sp_counted_deleterIPN3ue27raw_dfaESt14default_deleteIS1_ESaIvELN9__gnu_cxx12_Lock_policyE2EED0Ev@Base 4.2.0
 _ZNSt19_Sp_counted_deleterIPN3ue27raw_dfaESt14default_deleteIS1_ESaIvELN9__gnu_cxx12_Lock_policyE2EED1Ev@Base 4.2.0
 _ZNSt19_Sp_counted_deleterIPN3ue27raw_dfaESt14default_deleteIS1_ESaIvELN9__gnu_cxx12_Lock_policyE2EED2Ev@Base 4.2.0
 _ZNSt19_Sp_counted_deleterIPN3ue28NGHolderESt14default_deleteIS1_ESaIvELN9__gnu_cxx12_Lock_policyE2EE10_M_destroyEv@Base 4.2.0
 _ZNSt19_Sp_counted_deleterIPN3ue28NGHolderESt14default_deleteIS1_ESaIvELN9__gnu_cxx12_Lock_policyE2EE10_M_disposeEv@Base 4.2.0
 _ZNSt19_Sp_counted_deleterIPN3ue28NGHolderESt14default_deleteIS1_ESaIvELN9__gnu_cxx12_Lock_policyE2EE14_M_get_deleterERKSt9type_info@Base 4.2.0
 _ZNSt19_Sp_counted_deleterIPN3ue28NGHolderESt14default_deleteIS1_ESaIvELN9__gnu_cxx12_Lock_policyE2EED0Ev@Base 4.2.0
 _ZNSt19_Sp_counted_deleterIPN3ue28NGHolderESt14default_deleteIS1_ESaIvELN9__gnu_cxx12_Lock_policyE2EED1Ev@Base 4.2.0
 _ZNSt19_Sp_counted_deleterIPN3ue28NGHolderESt14default_deleteIS1_ESaIvELN9__gnu_cxx12_Lock_policyE2EED2Ev@Base 4.2.0
 _ZNSt20__uninitialized_copyILb0EE13__uninit_copyIN5boost9unordered15iterator_detail10c_iteratorINS3_6detail8ptr_nodeISt6vectorIN3ue29CharReachESaISA_EEEEEEPSC_EET0_T_SH_SG_@Base 4.2.0
 _ZNSt20__uninitialized_copyILb0EE13__uninit_copyIN9__gnu_cxx17__normal_iteratorIPKSt6vectorIPvSaIS5_EES4_IS7_SaIS7_EEEEPS7_EET0_T_SF_SE_@Base 4.2.0
 _ZNSt20__uninitialized_copyILb0EE13__uninit_copyIPKN5boost14dynamic_bitsetImSaImEEEPS5_EET0_T_SA_S9_@Base 4.2.0
 _ZNSt20__uninitialized_copyILb0EE13__uninit_copyISt13move_iteratorIPSt6vectorIN3ue29CharReachESaIS5_EEES8_EET0_T_SB_SA_@Base 4.2.0
 _ZNSt20__uninitialized_copyILb0EE13__uninit_copyISt13move_iteratorIPSt6vectorIPvSaIS4_EEES7_EET0_T_SA_S9_@Base 4.2.0
 _ZNSt23_Sp_counted_ptr_inplaceIN3ue211CastleProtoESaIS1_ELN9__gnu_cxx12_Lock_policyE2EE10_M_destroyEv@Base 4.2.0
 _ZNSt23_Sp_counted_ptr_inplaceIN3ue211CastleProtoESaIS1_ELN9__gnu_cxx12_Lock_policyE2EE10_M_disposeEv@Base 4.2.0
 _ZNSt23_Sp_counted_ptr_inplaceIN3ue211CastleProtoESaIS1_ELN9__gnu_cxx12_Lock_policyE2EE14_M_get_deleterERKSt9type_info@Base 4.2.0
 _ZNSt23_Sp_counted_ptr_inplaceIN3ue211CastleProtoESaIS1_ELN9__gnu_cxx12_Lock_policyE2EED0Ev@Base 4.2.0
 _ZNSt23_Sp_counted_ptr_inplaceIN3ue211CastleProtoESaIS1_ELN9__gnu_cxx12_Lock_policyE2EED1Ev@Base 4.2.0
 _ZNSt23_Sp_counted_ptr_inplaceIN3ue211CastleProtoESaIS1_ELN9__gnu_cxx12_Lock_policyE2EED2Ev@Base 4.2.0
 _ZNSt23_Sp_counted_ptr_inplaceIN3ue211raw_som_dfaESaIS1_ELN9__gnu_cxx12_Lock_policyE2EE10_M_destroyEv@Base 4.2.0
 _ZNSt23_Sp_counted_ptr_inplaceIN3ue211raw_som_dfaESaIS1_ELN9__gnu_cxx12_Lock_policyE2EE10_M_disposeEv@Base 4.2.0
 _ZNSt23_Sp_counted_ptr_inplaceIN3ue211raw_som_dfaESaIS1_ELN9__gnu_cxx12_Lock_policyE2EE14_M_get_deleterERKSt9type_info@Base 4.2.0
 _ZNSt23_Sp_counted_ptr_inplaceIN3ue211raw_som_dfaESaIS1_ELN9__gnu_cxx12_Lock_policyE2EED0Ev@Base 4.2.0
 _ZNSt23_Sp_counted_ptr_inplaceIN3ue211raw_som_dfaESaIS1_ELN9__gnu_cxx12_Lock_policyE2EED1Ev@Base 4.2.0
 _ZNSt23_Sp_counted_ptr_inplaceIN3ue211raw_som_dfaESaIS1_ELN9__gnu_cxx12_Lock_policyE2EED2Ev@Base 4.2.0
 _ZNSt23_Sp_counted_ptr_inplaceIN3ue214GoughSSAVarMinESaIS1_ELN9__gnu_cxx12_Lock_policyE2EE10_M_destroyEv@Base 4.2.0
 _ZNSt23_Sp_counted_ptr_inplaceIN3ue214GoughSSAVarMinESaIS1_ELN9__gnu_cxx12_Lock_policyE2EE10_M_disposeEv@Base 4.2.0
 _ZNSt23_Sp_counted_ptr_inplaceIN3ue214GoughSSAVarMinESaIS1_ELN9__gnu_cxx12_Lock_policyE2EE14_M_get_deleterERKSt9type_info@Base 4.2.0
 _ZNSt23_Sp_counted_ptr_inplaceIN3ue214GoughSSAVarMinESaIS1_ELN9__gnu_cxx12_Lock_policyE2EED0Ev@Base 4.2.0
 _ZNSt23_Sp_counted_ptr_inplaceIN3ue214GoughSSAVarMinESaIS1_ELN9__gnu_cxx12_Lock_policyE2EED1Ev@Base 4.2.0
 _ZNSt23_Sp_counted_ptr_inplaceIN3ue214GoughSSAVarMinESaIS1_ELN9__gnu_cxx12_Lock_policyE2EED2Ev@Base 4.2.0
 _ZNSt23_Sp_counted_ptr_inplaceIN3ue214GoughSSAVarNewESaIS1_ELN9__gnu_cxx12_Lock_policyE2EE10_M_destroyEv@Base 4.2.0
 _ZNSt23_Sp_counted_ptr_inplaceIN3ue214GoughSSAVarNewESaIS1_ELN9__gnu_cxx12_Lock_policyE2EE10_M_disposeEv@Base 4.2.0
 _ZNSt23_Sp_counted_ptr_inplaceIN3ue214GoughSSAVarNewESaIS1_ELN9__gnu_cxx12_Lock_policyE2EE14_M_get_deleterERKSt9type_info@Base 4.2.0
 _ZNSt23_Sp_counted_ptr_inplaceIN3ue214GoughSSAVarNewESaIS1_ELN9__gnu_cxx12_Lock_policyE2EED0Ev@Base 4.2.0
 _ZNSt23_Sp_counted_ptr_inplaceIN3ue214GoughSSAVarNewESaIS1_ELN9__gnu_cxx12_Lock_policyE2EED1Ev@Base 4.2.0
 _ZNSt23_Sp_counted_ptr_inplaceIN3ue214GoughSSAVarNewESaIS1_ELN9__gnu_cxx12_Lock_policyE2EED2Ev@Base 4.2.0
 _ZNSt23_Sp_counted_ptr_inplaceIN3ue215GoughSSAVarJoinESaIS1_ELN9__gnu_cxx12_Lock_policyE2EE10_M_destroyEv@Base 4.2.0
 _ZNSt23_Sp_counted_ptr_inplaceIN3ue215GoughSSAVarJoinESaIS1_ELN9__gnu_cxx12_Lock_policyE2EE10_M_disposeEv@Base 4.2.0
 _ZNSt23_Sp_counted_ptr_inplaceIN3ue215GoughSSAVarJoinESaIS1_ELN9__gnu_cxx12_Lock_policyE2EE14_M_get_deleterERKSt9type_info@Base 4.2.0
 _ZNSt23_Sp_counted_ptr_inplaceIN3ue215GoughSSAVarJoinESaIS1_ELN9__gnu_cxx12_Lock_policyE2EED0Ev@Base 4.2.0
 _ZNSt23_Sp_counted_ptr_inplaceIN3ue215GoughSSAVarJoinESaIS1_ELN9__gnu_cxx12_Lock_policyE2EED1Ev@Base 4.2.0
 _ZNSt23_Sp_counted_ptr_inplaceIN3ue215GoughSSAVarJoinESaIS1_ELN9__gnu_cxx12_Lock_policyE2EED2Ev@Base 4.2.0
 _ZNSt23_Sp_counted_ptr_inplaceIN3ue28NGHolderESaIS1_ELN9__gnu_cxx12_Lock_policyE2EE10_M_destroyEv@Base 4.2.0
 _ZNSt23_Sp_counted_ptr_inplaceIN3ue28NGHolderESaIS1_ELN9__gnu_cxx12_Lock_policyE2EE10_M_disposeEv@Base 4.2.0
 _ZNSt23_Sp_counted_ptr_inplaceIN3ue28NGHolderESaIS1_ELN9__gnu_cxx12_Lock_policyE2EE14_M_get_deleterERKSt9type_info@Base 4.2.0
 _ZNSt23_Sp_counted_ptr_inplaceIN3ue28NGHolderESaIS1_ELN9__gnu_cxx12_Lock_policyE2EED0Ev@Base 4.2.0
 _ZNSt23_Sp_counted_ptr_inplaceIN3ue28NGHolderESaIS1_ELN9__gnu_cxx12_Lock_policyE2EED1Ev@Base 4.2.0
 _ZNSt23_Sp_counted_ptr_inplaceIN3ue28NGHolderESaIS1_ELN9__gnu_cxx12_Lock_policyE2EED2Ev@Base 4.2.0
 _ZNSt25__lexicographical_compareILb1EE4__lcIhhEEbPKT_S4_PKT0_S7_@Base 4.2.0
 _ZNSt3_V28__rotateIN9__gnu_cxx17__normal_iteratorIPN3ue211hwlmLiteralESt6vectorIS4_SaIS4_EEEEEET_SA_SA_SA_St26random_access_iterator_tag@Base 4.2.0
 _ZNSt3_V28__rotateIN9__gnu_cxx17__normal_iteratorIPjSt6vectorIjSaIjEEEEEET_S8_S8_S8_St26random_access_iterator_tag@Base 4.2.0
 _ZNSt3_V28__rotateISt15_Deque_iteratorISt4pairIjjERS3_PS3_EEET_S7_S7_S7_St26random_access_iterator_tag@Base 4.2.0
 _ZNSt3mapIN5boost14dynamic_bitsetImSaImEEEtSt4lessIS3_ESaISt4pairIKS3_tEEEixERS7_@Base 4.2.0
 _ZNSt3mapIPN3ue211GoughSSAVarENS0_8flat_setIN5boost6detail14edge_desc_implINS4_17bidirectional_tagEmEESt4lessIS8_ESaIS8_EEES9_IS2_ESaISt4pairIKS2_SC_EEEixERSF_@Base 4.2.0
 _ZNSt3mapIPvN3ue213RoseEdgePropsESt4lessIS0_ESaISt4pairIKS0_S2_EEEixEOS0_@Base 4.2.0
 _ZNSt3mapIPvS0_St4lessIS0_ESaISt4pairIKS0_S0_EEEixERS4_@Base 4.2.0
 _ZNSt3mapIPvSt3setIS0_St4lessIS0_ESaIS0_EES3_SaISt4pairIKS0_S5_EEEixERS7_@Base 4.2.0
 _ZNSt3mapIPvSt6vectorIN3ue211ue2_literalESaIS3_EESt4lessIS0_ESaISt4pairIKS0_S5_EEEixERS9_@Base 4.2.0
 _ZNSt3mapIPvSt6vectorIS0_SaIS0_EESt4lessIS0_ESaISt4pairIKS0_S3_EEEixERS7_@Base 4.2.0
 _ZNSt3mapISt6vectorI9gough_insSaIS1_EEjSt4lessIS3_ESaISt4pairIKS3_jEEEixERS7_@Base 4.2.0
 _ZNSt3mapIhjSt4lessIhESaISt4pairIKhjEEEixEOh@Base 4.2.0
 _ZNSt3mapIjN3ue210PureRepeatESt4lessIjESaISt4pairIKjS1_EEEixERS5_@Base 4.2.0
 _ZNSt3mapIjN3ue211DepthMinMaxESt4lessIjESaISt4pairIKjS1_EEEixERS5_@Base 4.2.0
 _ZNSt3mapIjSt3setIjSt4lessIjESaIjEES2_SaISt4pairIKjS4_EEEixERS6_@Base 4.2.0
 _ZNSt4pairIN3ue28flat_setIjSt4lessIjESaIjEEENS0_14RoseSuffixInfoEED1Ev@Base 4.2.0
 _ZNSt4pairIN3ue28flat_setIjSt4lessIjESaIjEEENS0_14RoseSuffixInfoEED2Ev@Base 4.2.0
 _ZNSt5dequeIN3ue217rose_literal_infoESaIS1_EE12emplace_backIIS1_EEEvDpOT_@Base 4.2.0
 _ZNSt5dequeIN3ue217rose_literal_infoESaIS1_EE12emplace_backIJS1_EEEvDpOT_@Base 4.2.0
 _ZNSt5dequeIN3ue217rose_literal_infoESaIS1_EE16_M_push_back_auxIIS1_EEEvDpOT_@Base 4.2.0
 _ZNSt5dequeIN3ue217rose_literal_infoESaIS1_EE16_M_push_back_auxIJS1_EEEvDpOT_@Base 4.2.0
 _ZNSt5dequeIN3ue217rose_literal_infoESaIS1_EE23_M_new_elements_at_backEm@Base 4.2.0
 _ZNSt5dequeIN3ue217rose_literal_infoESaIS1_EE2atEm@Base 4.2.0
 _ZNSt5dequeIN3ue27left_idESaIS1_EE16_M_push_back_auxIIRKS1_EEEvDpOT_@Base 4.2.0
 _ZNSt5dequeIN3ue27left_idESaIS1_EE16_M_push_back_auxIJRKS1_EEEvDpOT_@Base 4.2.0
 _ZNSt5dequeIPvSaIS0_EE13_M_insert_auxIN3ue211flat_detail12iter_wrapperIN9__gnu_cxx17__normal_iteratorIPS0_St6vectorIS0_S1_EEEKS0_EEEEvSt15_Deque_iteratorIS0_RS0_S9_ET_SI_m@Base 4.2.0
 _ZNSt5dequeIPvSaIS0_EE13_M_insert_auxISt14_List_iteratorIS0_EEEvSt15_Deque_iteratorIS0_RS0_PS0_ET_SA_m@Base 4.2.0
 _ZNSt5dequeIPvSaIS0_EE13_M_insert_auxISt15_Deque_iteratorIS0_RKS0_PS5_EEEvS4_IS0_RS0_PS0_ET_SC_m@Base 4.2.0
 _ZNSt5dequeIPvSaIS0_EE16_M_push_back_auxIIRKS0_EEEvDpOT_@Base 4.2.0
 _ZNSt5dequeIPvSaIS0_EE16_M_push_back_auxIJRKS0_EEEvDpOT_@Base 4.2.0
 _ZNSt5dequeIPvSaIS0_EE17_M_reallocate_mapEmb@Base 4.2.0
 _ZNSt5dequeIPvSaIS0_EE19_M_range_insert_auxIN3ue211flat_detail12iter_wrapperIN9__gnu_cxx17__normal_iteratorIPS0_St6vectorIS0_S1_EEEKS0_EEEEvSt15_Deque_iteratorIS0_RS0_S9_ET_SI_St20forward_iterator_tag@Base 4.2.0
 _ZNSt5dequeIPvSaIS0_EE19_M_range_insert_auxISt14_List_iteratorIS0_EEEvSt15_Deque_iteratorIS0_RS0_PS0_ET_SA_St20forward_iterator_tag@Base 4.2.0
 _ZNSt5dequeIPvSaIS0_EE23_M_new_elements_at_backEm@Base 4.2.0
 _ZNSt5dequeIPvSaIS0_EE24_M_new_elements_at_frontEm@Base 4.2.0
 _ZNSt5dequeIPvSaIS0_EE6insertIN3ue211flat_detail12iter_wrapperIN9__gnu_cxx17__normal_iteratorIPS0_St6vectorIS0_S1_EEEKS0_EEvEESt15_Deque_iteratorIS0_RS0_S9_ESF_IS0_RSD_PSD_ET_SL_@Base 4.2.0
 _ZNSt5dequeIPvSaIS0_EE6insertISt15_Deque_iteratorIS0_RKS0_PS5_EvEES4_IS0_RS0_PS0_ES8_T_SC_@Base 4.2.0
 _ZNSt5dequeIPvSaIS0_EE9push_backERKS0_@Base 4.2.0
 _ZNSt5dequeIPvSaIS0_EEC1ERKS2_@Base 4.2.0
 _ZNSt5dequeIPvSaIS0_EEC2ERKS2_@Base 4.2.0
 _ZNSt5dequeIS_IPvSaIS0_EESaIS2_EE16_M_push_back_auxIIRKS2_EEEvDpOT_@Base 4.2.0
 _ZNSt5dequeIS_IPvSaIS0_EESaIS2_EE16_M_push_back_auxIIS2_EEEvDpOT_@Base 4.2.0
 _ZNSt5dequeIS_IPvSaIS0_EESaIS2_EE16_M_push_back_auxIJRKS2_EEEvDpOT_@Base 4.2.0
 _ZNSt5dequeIS_IPvSaIS0_EESaIS2_EE16_M_push_back_auxIJS2_EEEvDpOT_@Base 4.2.0
 _ZNSt5dequeIS_IPvSaIS0_EESaIS2_EE17_M_reallocate_mapEmb@Base 4.2.0
 _ZNSt5dequeIS_IPvSaIS0_EESaIS2_EED1Ev@Base 4.2.0
 _ZNSt5dequeIS_IPvSaIS0_EESaIS2_EED2Ev@Base 4.2.0
 _ZNSt5dequeISt10unique_ptrI3NFAN3ue214AlignedDeleterIS1_EEESaIS5_EE16_M_push_back_auxIIS5_EEEvDpOT_@Base 4.2.0
 _ZNSt5dequeISt10unique_ptrI3NFAN3ue214AlignedDeleterIS1_EEESaIS5_EE16_M_push_back_auxIJS5_EEEvDpOT_@Base 4.2.0
 _ZNSt5dequeISt10unique_ptrIN3ue27raw_dfaESt14default_deleteIS2_EESaIS5_EE12emplace_backIIS5_EEEvDpOT_@Base 4.2.0
 _ZNSt5dequeISt10unique_ptrIN3ue27raw_dfaESt14default_deleteIS2_EESaIS5_EE12emplace_backIJS5_EEEvDpOT_@Base 4.2.0
 _ZNSt5dequeISt10unique_ptrIN3ue27raw_dfaESt14default_deleteIS2_EESaIS5_EE16_M_pop_front_auxEv@Base 4.2.0
 _ZNSt5dequeISt10unique_ptrIN3ue27raw_dfaESt14default_deleteIS2_EESaIS5_EE19_M_destroy_data_auxESt15_Deque_iteratorIS5_RS5_PS5_ESB_@Base 4.2.0
 _ZNSt5dequeISt10unique_ptrIN3ue27raw_dfaESt14default_deleteIS2_EESaIS5_EED1Ev@Base 4.2.0
 _ZNSt5dequeISt10unique_ptrIN3ue27raw_dfaESt14default_deleteIS2_EESaIS5_EED2Ev@Base 4.2.0
 _ZNSt5dequeISt10unique_ptrIN3ue28NGHolderESt14default_deleteIS2_EESaIS5_EE12emplace_backIIS5_EEEvDpOT_@Base 4.2.0
 _ZNSt5dequeISt10unique_ptrIN3ue28NGHolderESt14default_deleteIS2_EESaIS5_EE12emplace_backIJS5_EEEvDpOT_@Base 4.2.0
 _ZNSt5dequeISt10unique_ptrIN3ue28NGHolderESt14default_deleteIS2_EESaIS5_EE16_M_push_back_auxIIS5_EEEvDpOT_@Base 4.2.0
 _ZNSt5dequeISt10unique_ptrIN3ue28NGHolderESt14default_deleteIS2_EESaIS5_EE16_M_push_back_auxIJS5_EEEvDpOT_@Base 4.2.0
 _ZNSt5dequeISt10unique_ptrIN3ue28NGHolderESt14default_deleteIS2_EESaIS5_EE19_M_destroy_data_auxESt15_Deque_iteratorIS5_RS5_PS5_ESB_@Base 4.2.0
 _ZNSt5dequeISt10unique_ptrIN3ue28NGHolderESt14default_deleteIS2_EESaIS5_EED1Ev@Base 4.2.0
 _ZNSt5dequeISt10unique_ptrIN3ue28NGHolderESt14default_deleteIS2_EESaIS5_EED2Ev@Base 4.2.0
 _ZNSt5dequeISt4pairIPvS1_ESaIS2_EE16_M_push_back_auxIIS2_EEEvDpOT_@Base 4.2.0
 _ZNSt5dequeISt4pairIPvS1_ESaIS2_EE16_M_push_back_auxIJS2_EEEvDpOT_@Base 4.2.0
 _ZNSt5dequeISt6vectorIjSaIjEESaIS2_EE16_M_push_back_auxIIRKS2_EEEvDpOT_@Base 4.2.0
 _ZNSt5dequeISt6vectorIjSaIjEESaIS2_EE16_M_push_back_auxIJRKS2_EEEvDpOT_@Base 4.2.0
 _ZNSt5dequeISt6vectorIjSaIjEESaIS2_EED1Ev@Base 4.2.0
 _ZNSt5dequeISt6vectorIjSaIjEESaIS2_EED2Ev@Base 4.2.0
 _ZNSt5dequeImSaImEE16_M_push_back_auxIIRKmEEEvDpOT_@Base 4.2.0
 _ZNSt5dequeImSaImEE16_M_push_back_auxIImEEEvDpOT_@Base 4.2.0
 _ZNSt5dequeImSaImEE16_M_push_back_auxIJRKmEEEvDpOT_@Base 4.2.0
 _ZNSt5dequeImSaImEE16_M_push_back_auxIJmEEEvDpOT_@Base 4.2.0
 _ZNSt5dequeItSaItEE16_M_push_back_auxIItEEEvDpOT_@Base 4.2.0
 _ZNSt5dequeItSaItEE16_M_push_back_auxIJtEEEvDpOT_@Base 4.2.0
 _ZNSt6vectorI11LeftNfaInfoSaIS0_EE17_M_default_appendEm@Base 4.2.0
 _ZNSt6vectorI15scatter_unit_u8SaIS0_EE15_M_range_insertIN9__gnu_cxx17__normal_iteratorIPKS0_S2_EEEEvNS5_IPS0_S2_EET_SB_St20forward_iterator_tag@Base 4.2.0
 _ZNSt6vectorI16mpv_counter_infoSaIS0_EE12emplace_backIIS0_EEEvDpOT_@Base 4.2.0
 _ZNSt6vectorI16mpv_counter_infoSaIS0_EE12emplace_backIJS0_EEEvDpOT_@Base 4.2.0
 _ZNSt6vectorI16mpv_counter_infoSaIS0_EE19_M_emplace_back_auxIIS0_EEEvDpOT_@Base 4.2.0
 _ZNSt6vectorI16mpv_counter_infoSaIS0_EE19_M_emplace_back_auxIJS0_EEEvDpOT_@Base 4.2.0
 _ZNSt6vectorI16scatter_unit_u16SaIS0_EE15_M_range_insertIN9__gnu_cxx17__normal_iteratorIPKS0_S2_EEEEvNS5_IPS0_S2_EET_SB_St20forward_iterator_tag@Base 4.2.0
 _ZNSt6vectorI16scatter_unit_u32SaIS0_EE15_M_range_insertIN9__gnu_cxx17__normal_iteratorIPKS0_S2_EEEEvNS5_IPS0_S2_EET_SB_St20forward_iterator_tag@Base 4.2.0
 _ZNSt6vectorI17mmbit_sparse_iterSaIS0_EE19_M_emplace_back_auxIIS0_EEEvDpOT_@Base 4.2.0
 _ZNSt6vectorI17mmbit_sparse_iterSaIS0_EE19_M_emplace_back_auxIJS0_EEEvDpOT_@Base 4.2.0
 _ZNSt6vectorI17scatter_unit_u64aSaIS0_EE15_M_range_insertIN9__gnu_cxx17__normal_iteratorIPKS0_S2_EEEEvNS5_IPS0_S2_EET_SB_St20forward_iterator_tag@Base 4.2.0
 _ZNSt6vectorI17scatter_unit_u64aSaIS0_EE19_M_emplace_back_auxIIRKS0_EEEvDpOT_@Base 4.2.0
 _ZNSt6vectorI17scatter_unit_u64aSaIS0_EE19_M_emplace_back_auxIJRKS0_EEEvDpOT_@Base 4.2.0
 _ZNSt6vectorI8AccelAuxN3ue216AlignedAllocatorIS0_Lm16EEEE19_M_emplace_back_auxIIS0_EEEvDpOT_@Base 4.2.0
 _ZNSt6vectorI8AccelAuxN3ue216AlignedAllocatorIS0_Lm16EEEE19_M_emplace_back_auxIJS0_EEEvDpOT_@Base 4.2.0
 _ZNSt6vectorI9NFAAcceptSaIS0_EE19_M_emplace_back_auxIIS0_EEEvDpOT_@Base 4.2.0
 _ZNSt6vectorI9NFAAcceptSaIS0_EE19_M_emplace_back_auxIJS0_EEEvDpOT_@Base 4.2.0
 _ZNSt6vectorI9gough_insSaIS0_EE12emplace_backIIS0_EEEvDpOT_@Base 4.2.0
 _ZNSt6vectorI9gough_insSaIS0_EE12emplace_backIJS0_EEEvDpOT_@Base 4.2.0
 _ZNSt6vectorI9gough_insSaIS0_EE15_M_range_insertIN9__gnu_cxx17__normal_iteratorIPKS0_S2_EEEEvNS5_IPS0_S2_EET_SB_St20forward_iterator_tag@Base 4.2.0
 _ZNSt6vectorI9gough_insSaIS0_EE19_M_emplace_back_auxIIS0_EEEvDpOT_@Base 4.2.0
 _ZNSt6vectorI9gough_insSaIS0_EE19_M_emplace_back_auxIJS0_EEEvDpOT_@Base 4.2.0
 _ZNSt6vectorIN3ue210OutfixInfoESaIS1_EE12emplace_backIIS1_EEEvDpOT_@Base 4.2.0
 _ZNSt6vectorIN3ue210OutfixInfoESaIS1_EE12emplace_backIJS1_EEEvDpOT_@Base 4.2.0
 _ZNSt6vectorIN3ue210OutfixInfoESaIS1_EE19_M_emplace_back_auxIIS1_EEEvDpOT_@Base 4.2.0
 _ZNSt6vectorIN3ue210OutfixInfoESaIS1_EE19_M_emplace_back_auxIJS1_EEEvDpOT_@Base 4.2.0
 _ZNSt6vectorIN3ue210accel_dataESaIS1_EE17_M_default_appendEm@Base 4.2.0
 _ZNSt6vectorIN3ue210dstate_somESaIS1_EE12emplace_backIIS1_EEEvDpOT_@Base 4.2.0
 _ZNSt6vectorIN3ue210dstate_somESaIS1_EE12emplace_backIJS1_EEEvDpOT_@Base 4.2.0
 _ZNSt6vectorIN3ue210dstate_somESaIS1_EE19_M_emplace_back_auxIIS1_EEEvDpOT_@Base 4.2.0
 _ZNSt6vectorIN3ue210dstate_somESaIS1_EE19_M_emplace_back_auxIJS1_EEEvDpOT_@Base 4.2.0
 _ZNSt6vectorIN3ue210dstate_somESaIS1_EE7reserveEm@Base 4.2.0
 _ZNSt6vectorIN3ue211DepthMinMaxESaIS1_EE19_M_emplace_back_auxIIS1_EEEvDpOT_@Base 4.2.0
 _ZNSt6vectorIN3ue211DepthMinMaxESaIS1_EE19_M_emplace_back_auxIJS1_EEEvDpOT_@Base 4.2.0
 _ZNSt6vectorIN3ue211hwlmLiteralESaIS1_EE12emplace_backIIRKNSt7__cxx1112basic_stringIcSt11char_traitsIcESaIcEEEbRbRjRyRS_IhSaIhEESI_EEEvDpOT_@Base 4.2.0
 _ZNSt6vectorIN3ue211hwlmLiteralESaIS1_EE12emplace_backIJRKNSt7__cxx1112basic_stringIcSt11char_traitsIcESaIcEEEbRbRjRyRS_IhSaIhEESI_EEEvDpOT_@Base 4.2.0
 _ZNSt6vectorIN3ue211hwlmLiteralESaIS1_EE15_M_range_insertIN9__gnu_cxx17__normal_iteratorIPS1_S3_EEEEvS8_T_S9_St20forward_iterator_tag@Base 4.2.0
 _ZNSt6vectorIN3ue211hwlmLiteralESaIS1_EE19_M_emplace_back_auxIIRKNSt7__cxx1112basic_stringIcSt11char_traitsIcESaIcEEEbRbRjRyRS_IhSaIhEESI_EEEvDpOT_@Base 4.2.0
 _ZNSt6vectorIN3ue211hwlmLiteralESaIS1_EE19_M_emplace_back_auxIIRKS1_EEEvDpOT_@Base 4.2.0
 _ZNSt6vectorIN3ue211hwlmLiteralESaIS1_EE19_M_emplace_back_auxIJRKNSt7__cxx1112basic_stringIcSt11char_traitsIcESaIcEEEbRbRjRyRS_IhSaIhEESI_EEEvDpOT_@Base 4.2.0
 _ZNSt6vectorIN3ue211hwlmLiteralESaIS1_EE19_M_emplace_back_auxIJRKS1_EEEvDpOT_@Base 4.2.0
 _ZNSt6vectorIN3ue211hwlmLiteralESaIS1_EED1Ev@Base 4.2.0
 _ZNSt6vectorIN3ue211hwlmLiteralESaIS1_EED2Ev@Base 4.2.0
 _ZNSt6vectorIN3ue211ue2_literalESaIS1_EE12emplace_backIIRcRbEEEvDpOT_@Base 4.2.0
 _ZNSt6vectorIN3ue211ue2_literalESaIS1_EE12emplace_backIJRcRbEEEvDpOT_@Base 4.2.0
 _ZNSt6vectorIN3ue211ue2_literalESaIS1_EE15_M_range_insertIN9__gnu_cxx17__normal_iteratorIPKS1_S3_EEEEvNS6_IPS1_S3_EET_SC_St20forward_iterator_tag@Base 4.2.0
 _ZNSt6vectorIN3ue211ue2_literalESaIS1_EE19_M_emplace_back_auxIIRKNSt7__cxx1112basic_stringIcSt11char_traitsIcESaIcEEEbEEEvDpOT_@Base 4.2.0
 _ZNSt6vectorIN3ue211ue2_literalESaIS1_EE19_M_emplace_back_auxIIRKS1_EEEvDpOT_@Base 4.2.0
 _ZNSt6vectorIN3ue211ue2_literalESaIS1_EE19_M_emplace_back_auxIIRcRbEEEvDpOT_@Base 4.2.0
 _ZNSt6vectorIN3ue211ue2_literalESaIS1_EE19_M_emplace_back_auxIIS1_EEEvDpOT_@Base 4.2.0
 _ZNSt6vectorIN3ue211ue2_literalESaIS1_EE19_M_emplace_back_auxIJRKNSt7__cxx1112basic_stringIcSt11char_traitsIcESaIcEEEbEEEvDpOT_@Base 4.2.0
 _ZNSt6vectorIN3ue211ue2_literalESaIS1_EE19_M_emplace_back_auxIJRKS1_EEEvDpOT_@Base 4.2.0
 _ZNSt6vectorIN3ue211ue2_literalESaIS1_EE19_M_emplace_back_auxIJRcRbEEEvDpOT_@Base 4.2.0
 _ZNSt6vectorIN3ue211ue2_literalESaIS1_EE19_M_emplace_back_auxIJS1_EEEvDpOT_@Base 4.2.0
 _ZNSt6vectorIN3ue211ue2_literalESaIS1_EED1Ev@Base 4.2.0
 _ZNSt6vectorIN3ue211ue2_literalESaIS1_EED2Ev@Base 4.2.0
 _ZNSt6vectorIN3ue212DAccelSchemeESaIS1_EE19_M_emplace_back_auxIIS1_EEEvDpOT_@Base 4.2.0
 _ZNSt6vectorIN3ue212DAccelSchemeESaIS1_EE19_M_emplace_back_auxIJS1_EEEvDpOT_@Base 4.2.0
 _ZNSt6vectorIN3ue212PositionInfoESaIS1_EE12emplace_backIIS1_EEEvDpOT_@Base 4.2.0
 _ZNSt6vectorIN3ue212PositionInfoESaIS1_EE12emplace_backIJS1_EEEvDpOT_@Base 4.2.0
 _ZNSt6vectorIN3ue212PositionInfoESaIS1_EE13_M_insert_auxIIRKS1_EEEvN9__gnu_cxx17__normal_iteratorIPS1_S3_EEDpOT_@Base 4.2.0
 _ZNSt6vectorIN3ue212PositionInfoESaIS1_EE13_M_insert_auxIJRKS1_EEEvN9__gnu_cxx17__normal_iteratorIPS1_S3_EEDpOT_@Base 4.2.0
 _ZNSt6vectorIN3ue212PositionInfoESaIS1_EE15_M_range_insertIN9__gnu_cxx17__normal_iteratorIPKS1_S3_EEEEvNS6_IPS1_S3_EET_SC_St20forward_iterator_tag@Base 4.2.0
 _ZNSt6vectorIN3ue212PositionInfoESaIS1_EE15_M_range_insertIN9__gnu_cxx17__normal_iteratorIPS1_S3_EEEEvS8_T_S9_St20forward_iterator_tag@Base 4.2.0
 _ZNSt6vectorIN3ue212PositionInfoESaIS1_EE15_M_range_insertISt23_Rb_tree_const_iteratorIjEEEvN9__gnu_cxx17__normal_iteratorIPS1_S3_EET_SB_St20forward_iterator_tag@Base 4.2.0
 _ZNSt6vectorIN3ue212PositionInfoESaIS1_EE19_M_emplace_back_auxIIS1_EEEvDpOT_@Base 4.2.0
 _ZNSt6vectorIN3ue212PositionInfoESaIS1_EE19_M_emplace_back_auxIJS1_EEEvDpOT_@Base 4.2.0
 _ZNSt6vectorIN3ue212PositionInfoESaIS1_EE6insertEN9__gnu_cxx17__normal_iteratorIPKS1_S3_EERS6_@Base 4.2.0
 _ZNSt6vectorIN3ue212PositionInfoESaIS1_EEaSERKS3_@Base 4.2.0
 _ZNSt6vectorIN3ue212SAccelSchemeESaIS1_EE19_M_emplace_back_auxIIS1_EEEvDpOT_@Base 4.2.0
 _ZNSt6vectorIN3ue212SAccelSchemeESaIS1_EE19_M_emplace_back_auxIJS1_EEEvDpOT_@Base 4.2.0
 _ZNSt6vectorIN3ue214NFAVertexDepthESaIS1_EE17_M_default_appendEm@Base 4.2.0
 _ZNSt6vectorIN3ue215GraphRepeatInfoESaIS1_EE19_M_emplace_back_auxIIS1_EEEvDpOT_@Base 4.2.0
 _ZNSt6vectorIN3ue215GraphRepeatInfoESaIS1_EE19_M_emplace_back_auxIJS1_EEEvDpOT_@Base 4.2.0
 _ZNSt6vectorIN3ue215GraphRepeatInfoESaIS1_EED1Ev@Base 4.2.0
 _ZNSt6vectorIN3ue215GraphRepeatInfoESaIS1_EED2Ev@Base 4.2.0
 _ZNSt6vectorIN3ue215partitioned_setItE6subsetESaIS3_EE12emplace_backIIS3_EEEvDpOT_@Base 4.2.0
 _ZNSt6vectorIN3ue215partitioned_setItE6subsetESaIS3_EE12emplace_backIJS3_EEEvDpOT_@Base 4.2.0
 _ZNSt6vectorIN3ue215partitioned_setItE6subsetESaIS3_EE17_M_default_appendEm@Base 4.2.0
 _ZNSt6vectorIN3ue215rose_literal_idESaIS1_EE19_M_emplace_back_auxIIRKS1_EEEvDpOT_@Base 4.2.0
 _ZNSt6vectorIN3ue215rose_literal_idESaIS1_EE19_M_emplace_back_auxIJRKS1_EEEvDpOT_@Base 4.2.0
 _ZNSt6vectorIN3ue215rose_literal_idESaIS1_EED1Ev@Base 4.2.0
 _ZNSt6vectorIN3ue215rose_literal_idESaIS1_EED2Ev@Base 4.2.0
 _ZNSt6vectorIN3ue216InitialResetInfoESaIS1_EE19_M_emplace_back_auxIIjEEEvDpOT_@Base 4.2.0
 _ZNSt6vectorIN3ue216InitialResetInfoESaIS1_EE19_M_emplace_back_auxIJjEEEvDpOT_@Base 4.2.0
 _ZNSt6vectorIN3ue217BoundedRepeatDataESaIS1_EE12emplace_backIIS1_EEEvDpOT_@Base 4.2.0
 _ZNSt6vectorIN3ue217BoundedRepeatDataESaIS1_EE12emplace_backIJS1_EEEvDpOT_@Base 4.2.0
 _ZNSt6vectorIN3ue217BoundedRepeatDataESaIS1_EE19_M_emplace_back_auxIIS1_EEEvDpOT_@Base 4.2.0
 _ZNSt6vectorIN3ue217BoundedRepeatDataESaIS1_EE19_M_emplace_back_auxIJS1_EEEvDpOT_@Base 4.2.0
 _ZNSt6vectorIN3ue217BoundedRepeatDataESaIS1_EED1Ev@Base 4.2.0
 _ZNSt6vectorIN3ue217BoundedRepeatDataESaIS1_EED2Ev@Base 4.2.0
 _ZNSt6vectorIN3ue217InitialResetEntryESaIS1_EE19_M_emplace_back_auxIIRSt10shared_ptrIKNS0_8NGHolderEERS5_IS6_ERN5boost9unordered13unordered_mapIPvjNSC_4hashISF_EESt8equal_toISF_ESaISt4pairIKSF_jEEEERjSQ_EEEvDpOT_@Base 4.2.0
 _ZNSt6vectorIN3ue217InitialResetEntryESaIS1_EE19_M_emplace_back_auxIJRSt10shared_ptrIKNS0_8NGHolderEERS5_IS6_ERN5boost9unordered13unordered_mapIPvjNSC_4hashISF_EESt8equal_toISF_ESaISt4pairIKSF_jEEEERjSQ_EEEvDpOT_@Base 4.2.0
 _ZNSt6vectorIN3ue217NFAVertexRevDepthESaIS1_EE17_M_default_appendEm@Base 4.2.0
 _ZNSt6vectorIN3ue218NFAVertexBidiDepthESaIS1_EE17_M_default_appendEm@Base 4.2.0
 _ZNSt6vectorIN3ue220FDREngineDescriptionESaIS1_EE19_M_emplace_back_auxIIRKNS0_12FDREngineDefEEEEvDpOT_@Base 4.2.0
 _ZNSt6vectorIN3ue220FDREngineDescriptionESaIS1_EE19_M_emplace_back_auxIJRKNS0_12FDREngineDefEEEEvDpOT_@Base 4.2.0
 _ZNSt6vectorIN3ue220FDREngineDescriptionESaIS1_EED1Ev@Base 4.2.0
 _ZNSt6vectorIN3ue220FDREngineDescriptionESaIS1_EED2Ev@Base 4.2.0
 _ZNSt6vectorIN3ue222TeddyEngineDescriptionESaIS1_EE19_M_emplace_back_auxIIRKNS0_14TeddyEngineDefEEEEvDpOT_@Base 4.2.0
 _ZNSt6vectorIN3ue222TeddyEngineDescriptionESaIS1_EE19_M_emplace_back_auxIJRKNS0_14TeddyEngineDefEEEEvDpOT_@Base 4.2.0
 _ZNSt6vectorIN3ue222TeddyEngineDescriptionESaIS1_EED1Ev@Base 4.2.0
 _ZNSt6vectorIN3ue222TeddyEngineDescriptionESaIS1_EED2Ev@Base 4.2.0
 _ZNSt6vectorIN3ue26ReportESaIS1_EE19_M_emplace_back_auxIIRKS1_EEEvDpOT_@Base 4.2.0
 _ZNSt6vectorIN3ue26ReportESaIS1_EE19_M_emplace_back_auxIJRKS1_EEEvDpOT_@Base 4.2.0
 _ZNSt6vectorIN3ue26dstateESaIS1_EE12emplace_backIIS1_EEEvDpOT_@Base 4.2.0
 _ZNSt6vectorIN3ue26dstateESaIS1_EE12emplace_backIJS1_EEEvDpOT_@Base 4.2.0
 _ZNSt6vectorIN3ue26dstateESaIS1_EE19_M_emplace_back_auxIIRKS1_EEEvDpOT_@Base 4.2.0
 _ZNSt6vectorIN3ue26dstateESaIS1_EE19_M_emplace_back_auxIIS1_EEEvDpOT_@Base 4.2.0
 _ZNSt6vectorIN3ue26dstateESaIS1_EE19_M_emplace_back_auxIJRKS1_EEEvDpOT_@Base 4.2.0
 _ZNSt6vectorIN3ue26dstateESaIS1_EE19_M_emplace_back_auxIJS1_EEEvDpOT_@Base 4.2.0
 _ZNSt6vectorIN3ue26dstateESaIS1_EE7reserveEm@Base 4.2.0
 _ZNSt6vectorIN3ue26dstateESaIS1_EE8_M_eraseEN9__gnu_cxx17__normal_iteratorIPS1_S3_EES7_@Base 4.2.0
 _ZNSt6vectorIN3ue26dstateESaIS1_EED1Ev@Base 4.2.0
 _ZNSt6vectorIN3ue26dstateESaIS1_EED2Ev@Base 4.2.0
 _ZNSt6vectorIN3ue26dstateESaIS1_EEaSERKS3_@Base 4.2.0
 _ZNSt6vectorIN3ue27raw_dfaESaIS1_EE19_M_emplace_back_auxIIS1_EEEvDpOT_@Base 4.2.0
 _ZNSt6vectorIN3ue27raw_dfaESaIS1_EE19_M_emplace_back_auxIJS1_EEEvDpOT_@Base 4.2.0
 _ZNSt6vectorIN3ue27raw_dfaESaIS1_EE7reserveEm@Base 4.2.0
 _ZNSt6vectorIN3ue27raw_dfaESaIS1_EED1Ev@Base 4.2.0
 _ZNSt6vectorIN3ue27raw_dfaESaIS1_EED2Ev@Base 4.2.0
 _ZNSt6vectorIN3ue28PathMaskESaIS1_EE19_M_emplace_back_auxIIS1_EEEvDpOT_@Base 4.2.0
 _ZNSt6vectorIN3ue28PathMaskESaIS1_EE19_M_emplace_back_auxIJS1_EEEvDpOT_@Base 4.2.0
 _ZNSt6vectorIN3ue28PathMaskESaIS1_EE7reserveEm@Base 4.2.0
 _ZNSt6vectorIN3ue28bitfieldILm256EEESaIS2_EE19_M_emplace_back_auxIIRKS2_EEEvDpOT_@Base 4.2.0
 _ZNSt6vectorIN3ue28bitfieldILm256EEESaIS2_EE19_M_emplace_back_auxIJRKS2_EEEvDpOT_@Base 4.2.0
 _ZNSt6vectorIN3ue28raw_puffESaIS1_EE19_M_emplace_back_auxIIRKS1_EEEvDpOT_@Base 4.2.0
 _ZNSt6vectorIN3ue28raw_puffESaIS1_EE19_M_emplace_back_auxIJRKS1_EEEvDpOT_@Base 4.2.0
 _ZNSt6vectorIN3ue29CharReachESaIS1_EE12emplace_backIIS1_EEEvDpOT_@Base 4.2.0
 _ZNSt6vectorIN3ue29CharReachESaIS1_EE12emplace_backIJS1_EEEvDpOT_@Base 4.2.0
 _ZNSt6vectorIN3ue29CharReachESaIS1_EE13_M_insert_auxIIS1_EEEvN9__gnu_cxx17__normal_iteratorIPS1_S3_EEDpOT_@Base 4.2.0
 _ZNSt6vectorIN3ue29CharReachESaIS1_EE13_M_insert_auxIJS1_EEEvN9__gnu_cxx17__normal_iteratorIPS1_S3_EEDpOT_@Base 4.2.0
 _ZNSt6vectorIN3ue29CharReachESaIS1_EE17_M_default_appendEm@Base 4.2.0
 _ZNSt6vectorIN3ue29CharReachESaIS1_EE19_M_emplace_back_auxIIKNS0_11ue2_literal4elemEEEEvDpOT_@Base 4.2.0
 _ZNSt6vectorIN3ue29CharReachESaIS1_EE19_M_emplace_back_auxIIRKS1_EEEvDpOT_@Base 4.2.0
 _ZNSt6vectorIN3ue29CharReachESaIS1_EE19_M_emplace_back_auxIIS1_EEEvDpOT_@Base 4.2.0
 _ZNSt6vectorIN3ue29CharReachESaIS1_EE19_M_emplace_back_auxIJKNS0_11ue2_literal4elemEEEEvDpOT_@Base 4.2.0
 _ZNSt6vectorIN3ue29CharReachESaIS1_EE19_M_emplace_back_auxIJRKS1_EEEvDpOT_@Base 4.2.0
 _ZNSt6vectorIN3ue29CharReachESaIS1_EE19_M_emplace_back_auxIJS1_EEEvDpOT_@Base 4.2.0
 _ZNSt6vectorIN3ue29CharReachESaIS1_EE7reserveEm@Base 4.2.0
 _ZNSt6vectorIN3ue29CharReachESaIS1_EEaSERKS3_@Base 4.2.0
 _ZNSt6vectorIN3ue29LookEntryESaIS1_EE12emplace_backIIaRKNS0_9CharReachEEEEvDpOT_@Base 4.2.0
 _ZNSt6vectorIN3ue29LookEntryESaIS1_EE12emplace_backIJaRKNS0_9CharReachEEEEvDpOT_@Base 4.2.0
 _ZNSt6vectorIN3ue29LookEntryESaIS1_EE15_M_range_insertIN9__gnu_cxx17__normal_iteratorIPKS1_S3_EEEEvNS6_IPS1_S3_EET_SC_St20forward_iterator_tag@Base 4.2.0
 _ZNSt6vectorIN3ue29LookEntryESaIS1_EE19_M_emplace_back_auxIIaRKNS0_9CharReachEEEEvDpOT_@Base 4.2.0
 _ZNSt6vectorIN3ue29LookEntryESaIS1_EE19_M_emplace_back_auxIJaRKNS0_9CharReachEEEEvDpOT_@Base 4.2.0
 _ZNSt6vectorIN3ue29LookEntryESaIS1_EE7reserveEm@Base 4.2.0
 _ZNSt6vectorIN3ue29LookEntryESaIS1_EEaSERKS3_@Base 4.2.0
 _ZNSt6vectorIN3ue29suffix_idESaIS1_EE19_M_emplace_back_auxIIRKS1_EEEvDpOT_@Base 4.2.0
 _ZNSt6vectorIN3ue29suffix_idESaIS1_EE19_M_emplace_back_auxIJRKS1_EEEvDpOT_@Base 4.2.0
 _ZNSt6vectorIN5boost14dynamic_bitsetImSaImEEESaIS3_EE14_M_fill_assignEmRKS3_@Base 4.2.0
 _ZNSt6vectorIN5boost14dynamic_bitsetImSaImEEESaIS3_EE19_M_emplace_back_auxIIRKS3_EEEvDpOT_@Base 4.2.0
 _ZNSt6vectorIN5boost14dynamic_bitsetImSaImEEESaIS3_EE19_M_emplace_back_auxIJRKS3_EEEvDpOT_@Base 4.2.0
 _ZNSt6vectorIN5boost14dynamic_bitsetImSaImEEESaIS3_EE7reserveEm@Base 4.2.0
 _ZNSt6vectorIN5boost14dynamic_bitsetImSaImEEESaIS3_EED1Ev@Base 4.2.0
 _ZNSt6vectorIN5boost14dynamic_bitsetImSaImEEESaIS3_EED2Ev@Base 4.2.0
 _ZNSt6vectorIN5boost6detail12adj_list_genINS0_14adjacency_listINS0_4vecSES4_NS0_14bidirectionalSEN3ue216GoughVertexPropsENS6_14GoughEdgePropsENS6_15GoughGraphPropsENS0_5listSEEES4_S4_S5_S7_S8_S9_SA_E6config13stored_vertexESaISE_EE17_M_default_appendEm@Base 4.2.0
 _ZNSt6vectorIN5boost6detail12adj_list_genINS0_14adjacency_listINS0_4vecSES4_NS0_14bidirectionalSEN3ue216GoughVertexPropsENS6_14GoughEdgePropsENS6_15GoughGraphPropsENS0_5listSEEES4_S4_S5_S7_S8_S9_SA_E6config13stored_vertexESaISE_EE19_M_emplace_back_auxIISE_EEEvDpOT_@Base 4.2.0
 _ZNSt6vectorIN5boost6detail12adj_list_genINS0_14adjacency_listINS0_4vecSES4_NS0_14bidirectionalSEN3ue216GoughVertexPropsENS6_14GoughEdgePropsENS6_15GoughGraphPropsENS0_5listSEEES4_S4_S5_S7_S8_S9_SA_E6config13stored_vertexESaISE_EE19_M_emplace_back_auxIJSE_EEEvDpOT_@Base 4.2.0
 _ZNSt6vectorIN5boost6detail12adj_list_genINS0_14adjacency_listINS0_4vecSES4_NS0_14bidirectionalSEN3ue216GoughVertexPropsENS6_14GoughEdgePropsENS6_15GoughGraphPropsENS0_5listSEEES4_S4_S5_S7_S8_S9_SA_E6config13stored_vertexESaISE_EED1Ev@Base 4.2.0
 _ZNSt6vectorIN5boost6detail12adj_list_genINS0_14adjacency_listINS0_4vecSES4_NS0_14bidirectionalSEN3ue216GoughVertexPropsENS6_14GoughEdgePropsENS6_15GoughGraphPropsENS0_5listSEEES4_S4_S5_S7_S8_S9_SA_E6config13stored_vertexESaISE_EED2Ev@Base 4.2.0
 _ZNSt6vectorIN5boost6detail12adj_list_genINS0_14adjacency_listINS0_4vecSES4_NS0_14bidirectionalSENS0_11no_propertyES6_S6_NS0_5listSEEES4_S4_S5_S6_S6_S6_S7_E6config13stored_vertexESaISB_EE17_M_default_appendEm@Base 4.2.0
 _ZNSt6vectorIN5boost6detail14edge_desc_implINS0_17bidirectional_tagEPvEESaIS5_EE12emplace_backIIS5_EEEvDpOT_@Base 4.2.0
 _ZNSt6vectorIN5boost6detail14edge_desc_implINS0_17bidirectional_tagEPvEESaIS5_EE12emplace_backIJS5_EEEvDpOT_@Base 4.2.0
 _ZNSt6vectorIN5boost6detail14edge_desc_implINS0_17bidirectional_tagEPvEESaIS5_EE13_M_insert_auxIIRKS5_EEEvN9__gnu_cxx17__normal_iteratorIPS5_S7_EEDpOT_@Base 4.2.0
 _ZNSt6vectorIN5boost6detail14edge_desc_implINS0_17bidirectional_tagEPvEESaIS5_EE13_M_insert_auxIJRKS5_EEEvN9__gnu_cxx17__normal_iteratorIPS5_S7_EEDpOT_@Base 4.2.0
 _ZNSt6vectorIN5boost6detail14edge_desc_implINS0_17bidirectional_tagEPvEESaIS5_EE15_M_range_insertIN9__gnu_cxx17__normal_iteratorIPKS5_S7_EEEEvNSA_IPS5_S7_EET_SG_St20forward_iterator_tag@Base 4.2.0
 _ZNSt6vectorIN5boost6detail14edge_desc_implINS0_17bidirectional_tagEPvEESaIS5_EE17_M_default_appendEm@Base 4.2.0
 _ZNSt6vectorIN5boost6detail14edge_desc_implINS0_17bidirectional_tagEPvEESaIS5_EE19_M_emplace_back_auxIIRKS5_EEEvDpOT_@Base 4.2.0
 _ZNSt6vectorIN5boost6detail14edge_desc_implINS0_17bidirectional_tagEPvEESaIS5_EE19_M_emplace_back_auxIIS5_EEEvDpOT_@Base 4.2.0
 _ZNSt6vectorIN5boost6detail14edge_desc_implINS0_17bidirectional_tagEPvEESaIS5_EE19_M_emplace_back_auxIJRKS5_EEEvDpOT_@Base 4.2.0
 _ZNSt6vectorIN5boost6detail14edge_desc_implINS0_17bidirectional_tagEPvEESaIS5_EE19_M_emplace_back_auxIJS5_EEEvDpOT_@Base 4.2.0
 _ZNSt6vectorIN5boost6detail14edge_desc_implINS0_17bidirectional_tagEPvEESaIS5_EE9push_backERKS5_@Base 4.2.0
 _ZNSt6vectorIN5boost6detail14edge_desc_implINS0_17bidirectional_tagEmEESaIS4_EE13_M_insert_auxIIRKS4_EEEvN9__gnu_cxx17__normal_iteratorIPS4_S6_EEDpOT_@Base 4.2.0
 _ZNSt6vectorIN5boost6detail14edge_desc_implINS0_17bidirectional_tagEmEESaIS4_EE13_M_insert_auxIJRKS4_EEEvN9__gnu_cxx17__normal_iteratorIPS4_S6_EEDpOT_@Base 4.2.0
 _ZNSt6vectorIN5boost6detail14edge_desc_implINS0_17bidirectional_tagEmEESaIS4_EE19_M_emplace_back_auxIIRKS4_EEEvDpOT_@Base 4.2.0
 _ZNSt6vectorIN5boost6detail14edge_desc_implINS0_17bidirectional_tagEmEESaIS4_EE19_M_emplace_back_auxIJRKS4_EEEvDpOT_@Base 4.2.0
 _ZNSt6vectorIN5boost6detail14edge_desc_implINS0_17bidirectional_tagEmEESaIS4_EE6insertEN9__gnu_cxx17__normal_iteratorIPKS4_S6_EERS9_@Base 4.2.0
 _ZNSt6vectorIN5boost6detail16stored_edge_iterImSt14_List_iteratorINS0_9list_edgeImN3ue214GoughEdgePropsEEEES6_EESaIS9_EE12emplace_backIIS9_EEEvDpOT_@Base 4.2.0
 _ZNSt6vectorIN5boost6detail16stored_edge_iterImSt14_List_iteratorINS0_9list_edgeImN3ue214GoughEdgePropsEEEES6_EESaIS9_EE12emplace_backIJS9_EEEvDpOT_@Base 4.2.0
 _ZNSt6vectorIN5boost6detail16stored_edge_iterImSt14_List_iteratorINS0_9list_edgeImNS0_11no_propertyEEEES5_EESaIS8_EE12emplace_backIIS8_EEEvDpOT_@Base 4.2.0
 _ZNSt6vectorIN5boost6detail16stored_edge_iterImSt14_List_iteratorINS0_9list_edgeImNS0_11no_propertyEEEES5_EESaIS8_EE12emplace_backIJS8_EEEvDpOT_@Base 4.2.0
 _ZNSt6vectorIN5boost6detail16stored_edge_iterImSt14_List_iteratorINS0_9list_edgeImNS0_11no_propertyEEEES5_EESaIS8_EE19_M_emplace_back_auxIIS8_EEEvDpOT_@Base 4.2.0
 _ZNSt6vectorIN5boost6detail16stored_edge_iterImSt14_List_iteratorINS0_9list_edgeImNS0_11no_propertyEEEES5_EESaIS8_EE19_M_emplace_back_auxIJS8_EEEvDpOT_@Base 4.2.0
 _ZNSt6vectorIN5boost6detail29reverse_graph_edge_descriptorINS1_14edge_desc_implINS0_17bidirectional_tagEPvEEEESaIS7_EE19_M_emplace_back_auxIIS7_EEEvDpOT_@Base 4.2.0
 _ZNSt6vectorIN5boost6detail29reverse_graph_edge_descriptorINS1_14edge_desc_implINS0_17bidirectional_tagEPvEEEESaIS7_EE19_M_emplace_back_auxIJS7_EEEvDpOT_@Base 4.2.0
 _ZNSt6vectorIN5boost9unordered13unordered_mapIPvjNS0_4hashIS3_EESt8equal_toIS3_ESaISt4pairIKS3_jEEEESaISC_EED1Ev@Base 4.2.0
 _ZNSt6vectorIN5boost9unordered13unordered_mapIPvjNS0_4hashIS3_EESt8equal_toIS3_ESaISt4pairIKS3_jEEEESaISC_EED2Ev@Base 4.2.0
 _ZNSt6vectorINSt7__cxx1112basic_stringIcSt11char_traitsIcESaIcEEESaIS5_EE13_M_insert_auxIIRKS5_EEEvN9__gnu_cxx17__normal_iteratorIPS5_S7_EEDpOT_@Base 4.2.0
 _ZNSt6vectorINSt7__cxx1112basic_stringIcSt11char_traitsIcESaIcEEESaIS5_EE13_M_insert_auxIIS5_EEEvN9__gnu_cxx17__normal_iteratorIPS5_S7_EEDpOT_@Base 4.2.0
 _ZNSt6vectorINSt7__cxx1112basic_stringIcSt11char_traitsIcESaIcEEESaIS5_EE13_M_insert_auxIJRKS5_EEEvN9__gnu_cxx17__normal_iteratorIPS5_S7_EEDpOT_@Base 4.2.0
 _ZNSt6vectorINSt7__cxx1112basic_stringIcSt11char_traitsIcESaIcEEESaIS5_EE13_M_insert_auxIJS5_EEEvN9__gnu_cxx17__normal_iteratorIPS5_S7_EEDpOT_@Base 4.2.0
 _ZNSt6vectorIPKN3ue211GoughSSAVarESaIS3_EE19_M_emplace_back_auxIIRKS3_EEEvDpOT_@Base 4.2.0
 _ZNSt6vectorIPKN3ue211GoughSSAVarESaIS3_EE19_M_emplace_back_auxIJRKS3_EEEvDpOT_@Base 4.2.0
 _ZNSt6vectorIPKN3ue211hwlmLiteralESaIS3_EE19_M_emplace_back_auxIIS3_EEEvDpOT_@Base 4.2.0
 _ZNSt6vectorIPKN3ue211hwlmLiteralESaIS3_EE19_M_emplace_back_auxIJS3_EEEvDpOT_@Base 4.2.0
 _ZNSt6vectorIPKN3ue217rose_literal_infoESaIS3_EE19_M_emplace_back_auxIIS3_EEEvDpOT_@Base 4.2.0
 _ZNSt6vectorIPKN3ue217rose_literal_infoESaIS3_EE19_M_emplace_back_auxIJS3_EEEvDpOT_@Base 4.2.0
 _ZNSt6vectorIPKN3ue27raw_dfaESaIS3_EE12emplace_backIIS3_EEEvDpOT_@Base 4.2.0
 _ZNSt6vectorIPKN3ue27raw_dfaESaIS3_EE12emplace_backIJS3_EEEvDpOT_@Base 4.2.0
 _ZNSt6vectorIPKN3ue27raw_dfaESaIS3_EE15_M_range_insertIN9__gnu_cxx17__normal_iteratorIPS3_S5_EEEEvSA_T_SB_St20forward_iterator_tag@Base 4.2.0
 _ZNSt6vectorIPKN3ue27raw_dfaESaIS3_EE19_M_emplace_back_auxIIS3_EEEvDpOT_@Base 4.2.0
 _ZNSt6vectorIPKN3ue27raw_dfaESaIS3_EE19_M_emplace_back_auxIJS3_EEEvDpOT_@Base 4.2.0
 _ZNSt6vectorIPN3ue210OutfixInfoESaIS2_EE19_M_emplace_back_auxIIS2_EEEvDpOT_@Base 4.2.0
 _ZNSt6vectorIPN3ue210OutfixInfoESaIS2_EE19_M_emplace_back_auxIJS2_EEEvDpOT_@Base 4.2.0
 _ZNSt6vectorIPN3ue211GoughSSAVarESaIS2_EE12emplace_backIIS2_EEEvDpOT_@Base 4.2.0
 _ZNSt6vectorIPN3ue211GoughSSAVarESaIS2_EE12emplace_backIJS2_EEEvDpOT_@Base 4.2.0
 _ZNSt6vectorIPN3ue211GoughSSAVarESaIS2_EE13_M_insert_auxIIRKS2_EEEvN9__gnu_cxx17__normal_iteratorIPS2_S4_EEDpOT_@Base 4.2.0
 _ZNSt6vectorIPN3ue211GoughSSAVarESaIS2_EE13_M_insert_auxIJRKS2_EEEvN9__gnu_cxx17__normal_iteratorIPS2_S4_EEDpOT_@Base 4.2.0
 _ZNSt6vectorIPN3ue211GoughSSAVarESaIS2_EE19_M_emplace_back_auxIIRKS2_EEEvDpOT_@Base 4.2.0
 _ZNSt6vectorIPN3ue211GoughSSAVarESaIS2_EE19_M_emplace_back_auxIIS2_EEEvDpOT_@Base 4.2.0
 _ZNSt6vectorIPN3ue211GoughSSAVarESaIS2_EE19_M_emplace_back_auxIJRKS2_EEEvDpOT_@Base 4.2.0
 _ZNSt6vectorIPN3ue211GoughSSAVarESaIS2_EE19_M_emplace_back_auxIJS2_EEEvDpOT_@Base 4.2.0
 _ZNSt6vectorIPN3ue211GoughSSAVarESaIS2_EE6insertEN9__gnu_cxx17__normal_iteratorIPKS2_S4_EERS7_@Base 4.2.0
 _ZNSt6vectorIPN3ue211raw_som_dfaESaIS2_EE15_M_range_insertIN9__gnu_cxx17__normal_iteratorIPS2_S4_EEEEvS9_T_SA_St20forward_iterator_tag@Base 4.2.0
 _ZNSt6vectorIPN3ue211raw_som_dfaESaIS2_EE19_M_emplace_back_auxIIS2_EEEvDpOT_@Base 4.2.0
 _ZNSt6vectorIPN3ue211raw_som_dfaESaIS2_EE19_M_emplace_back_auxIJS2_EEEvDpOT_@Base 4.2.0
 _ZNSt6vectorIPN3ue221GoughSSAVarWithInputsESaIS2_EE13_M_insert_auxIIS2_EEEvN9__gnu_cxx17__normal_iteratorIPS2_S4_EEDpOT_@Base 4.2.0
 _ZNSt6vectorIPN3ue221GoughSSAVarWithInputsESaIS2_EE13_M_insert_auxIJS2_EEEvN9__gnu_cxx17__normal_iteratorIPS2_S4_EEDpOT_@Base 4.2.0
 _ZNSt6vectorIPN3ue221GoughSSAVarWithInputsESaIS2_EE7emplaceIIS2_EEEN9__gnu_cxx17__normal_iteratorIPS2_S4_EENS7_IPKS2_S4_EEDpOT_@Base 4.2.0
 _ZNSt6vectorIPN3ue221GoughSSAVarWithInputsESaIS2_EE7emplaceIJS2_EEEN9__gnu_cxx17__normal_iteratorIPS2_S4_EENS7_IPKS2_S4_EEDpOT_@Base 4.2.0
 _ZNSt6vectorIPN3ue221GoughSSAVarWithInputsESaIS2_EE8_M_eraseEN9__gnu_cxx17__normal_iteratorIPS2_S4_EE@Base 4.2.0
 _ZNSt6vectorIPN3ue27raw_dfaESaIS2_EE12emplace_backIIS2_EEEvDpOT_@Base 4.2.0
 _ZNSt6vectorIPN3ue27raw_dfaESaIS2_EE12emplace_backIJS2_EEEvDpOT_@Base 4.2.0
 _ZNSt6vectorIPN3ue27raw_dfaESaIS2_EE15_M_range_insertIN9__gnu_cxx17__normal_iteratorIPS2_S4_EEEEvS9_T_SA_St20forward_iterator_tag@Base 4.2.0
 _ZNSt6vectorIPN3ue27raw_dfaESaIS2_EE19_M_emplace_back_auxIIS2_EEEvDpOT_@Base 4.2.0
 _ZNSt6vectorIPN3ue27raw_dfaESaIS2_EE19_M_emplace_back_auxIJS2_EEEvDpOT_@Base 4.2.0
 _ZNSt6vectorIPN3ue28NGHolderESaIS2_EE19_M_emplace_back_auxIIRKS2_EEEvDpOT_@Base 4.2.0
 _ZNSt6vectorIPN3ue28NGHolderESaIS2_EE19_M_emplace_back_auxIIS2_EEEvDpOT_@Base 4.2.0
 _ZNSt6vectorIPN3ue28NGHolderESaIS2_EE19_M_emplace_back_auxIJRKS2_EEEvDpOT_@Base 4.2.0
 _ZNSt6vectorIPN3ue28NGHolderESaIS2_EE19_M_emplace_back_auxIJS2_EEEvDpOT_@Base 4.2.0
 _ZNSt6vectorIPvSaIS0_EE13_M_insert_auxIIRKS0_EEEvN9__gnu_cxx17__normal_iteratorIPS0_S2_EEDpOT_@Base 4.2.0
 _ZNSt6vectorIPvSaIS0_EE13_M_insert_auxIIS0_EEEvN9__gnu_cxx17__normal_iteratorIPS0_S2_EEDpOT_@Base 4.2.0
 _ZNSt6vectorIPvSaIS0_EE13_M_insert_auxIJRKS0_EEEvN9__gnu_cxx17__normal_iteratorIPS0_S2_EEDpOT_@Base 4.2.0
 _ZNSt6vectorIPvSaIS0_EE13_M_insert_auxIJS0_EEEvN9__gnu_cxx17__normal_iteratorIPS0_S2_EEDpOT_@Base 4.2.0
 _ZNSt6vectorIPvSaIS0_EE14_M_fill_insertEN9__gnu_cxx17__normal_iteratorIPS0_S2_EEmRKS0_@Base 4.2.0
 _ZNSt6vectorIPvSaIS0_EE15_M_range_insertIN3ue211flat_detail12iter_wrapperIN9__gnu_cxx17__normal_iteratorIPKS0_S2_EES9_EEEEvNS8_IPS0_S2_EET_SF_St20forward_iterator_tag@Base 4.2.0
 _ZNSt6vectorIPvSaIS0_EE15_M_range_insertIN5boost9unordered15iterator_detail10c_iteratorINS5_6detail8ptr_nodeIS0_EEEEEEvN9__gnu_cxx17__normal_iteratorIPS0_S2_EET_SG_St20forward_iterator_tag@Base 4.2.0
 _ZNSt6vectorIPvSaIS0_EE15_M_range_insertISt14_List_iteratorIS0_EEEvN9__gnu_cxx17__normal_iteratorIPS0_S2_EET_SA_St20forward_iterator_tag@Base 4.2.0
 _ZNSt6vectorIPvSaIS0_EE15_M_range_insertISt23_Rb_tree_const_iteratorIS0_EEEvN9__gnu_cxx17__normal_iteratorIPS0_S2_EET_SA_St20forward_iterator_tag@Base 4.2.0
 _ZNSt6vectorIPvSaIS0_EE17_M_default_appendEm@Base 4.2.0
 _ZNSt6vectorIPvSaIS0_EE19_M_emplace_back_auxIIRKS0_EEEvDpOT_@Base 4.2.0
 _ZNSt6vectorIPvSaIS0_EE19_M_emplace_back_auxIIS0_EEEvDpOT_@Base 4.2.0
 _ZNSt6vectorIPvSaIS0_EE19_M_emplace_back_auxIJRKS0_EEEvDpOT_@Base 4.2.0
 _ZNSt6vectorIPvSaIS0_EE19_M_emplace_back_auxIJS0_EEEvDpOT_@Base 4.2.0
 _ZNSt6vectorIPvSaIS0_EE6insertEN9__gnu_cxx17__normal_iteratorIPKS0_S2_EERS5_@Base 4.2.0
 _ZNSt6vectorIPvSaIS0_EE7emplaceIIS0_EEEN9__gnu_cxx17__normal_iteratorIPS0_S2_EENS5_IPKS0_S2_EEDpOT_@Base 4.2.0
 _ZNSt6vectorIPvSaIS0_EE7emplaceIJS0_EEEN9__gnu_cxx17__normal_iteratorIPS0_S2_EENS5_IPKS0_S2_EEDpOT_@Base 4.2.0
 _ZNSt6vectorIPvSaIS0_EE7reserveEm@Base 4.2.0
 _ZNSt6vectorIPvSaIS0_EE8_M_eraseEN9__gnu_cxx17__normal_iteratorIPS0_S2_EE@Base 4.2.0
 _ZNSt6vectorIPvSaIS0_EE8_M_eraseEN9__gnu_cxx17__normal_iteratorIPS0_S2_EES6_@Base 4.2.0
 _ZNSt6vectorIPvSaIS0_EE9push_backERKS0_@Base 4.2.0
 _ZNSt6vectorIPvSaIS0_EEC1ERKS2_@Base 4.2.0
 _ZNSt6vectorIPvSaIS0_EEC2ERKS2_@Base 4.2.0
 _ZNSt6vectorIPvSaIS0_EEaSERKS2_@Base 4.2.0
 _ZNSt6vectorIS_IN3ue211hwlmLiteralESaIS1_EESaIS3_EED1Ev@Base 4.2.0
 _ZNSt6vectorIS_IN3ue211hwlmLiteralESaIS1_EESaIS3_EED2Ev@Base 4.2.0
 _ZNSt6vectorIS_IN3ue212PositionInfoESaIS1_EESaIS3_EE17_M_default_appendEm@Base 4.2.0
 _ZNSt6vectorIS_IN3ue212PositionInfoESaIS1_EESaIS3_EED1Ev@Base 4.2.0
 _ZNSt6vectorIS_IN3ue212PositionInfoESaIS1_EESaIS3_EED2Ev@Base 4.2.0
 _ZNSt6vectorIS_IN3ue29CharReachESaIS1_EESaIS3_EE12emplace_backIIS3_EEEvDpOT_@Base 4.2.0
 _ZNSt6vectorIS_IN3ue29CharReachESaIS1_EESaIS3_EE12emplace_backIJS3_EEEvDpOT_@Base 4.2.0
 _ZNSt6vectorIS_IN3ue29CharReachESaIS1_EESaIS3_EE15_M_range_insertIN5boost9unordered15iterator_detail10c_iteratorINS8_6detail8ptr_nodeIS3_EEEEEEvN9__gnu_cxx17__normal_iteratorIPS3_S5_EET_SJ_St20forward_iterator_tag@Base 4.2.0
 _ZNSt6vectorIS_IN3ue29CharReachESaIS1_EESaIS3_EE19_M_emplace_back_auxIIS3_EEEvDpOT_@Base 4.2.0
 _ZNSt6vectorIS_IN3ue29CharReachESaIS1_EESaIS3_EE19_M_emplace_back_auxIJS3_EEEvDpOT_@Base 4.2.0
 _ZNSt6vectorIS_IN3ue29CharReachESaIS1_EESaIS3_EED1Ev@Base 4.2.0
 _ZNSt6vectorIS_IN3ue29CharReachESaIS1_EESaIS3_EED2Ev@Base 4.2.0
 _ZNSt6vectorIS_IPvSaIS0_EESaIS2_EE12emplace_backIIS2_EEEvDpOT_@Base 4.2.0
 _ZNSt6vectorIS_IPvSaIS0_EESaIS2_EE12emplace_backIJS2_EEEvDpOT_@Base 4.2.0
 _ZNSt6vectorIS_IPvSaIS0_EESaIS2_EE15_M_range_insertIN9__gnu_cxx17__normal_iteratorIPKS2_S4_EEEEvNS7_IPS2_S4_EET_SD_St20forward_iterator_tag@Base 4.2.0
 _ZNSt6vectorIS_IPvSaIS0_EESaIS2_EE16_M_shrink_to_fitEv@Base 4.2.0
 _ZNSt6vectorIS_IPvSaIS0_EESaIS2_EE19_M_emplace_back_auxIIRKS2_EEEvDpOT_@Base 4.2.0
 _ZNSt6vectorIS_IPvSaIS0_EESaIS2_EE19_M_emplace_back_auxIIS2_EEEvDpOT_@Base 4.2.0
 _ZNSt6vectorIS_IPvSaIS0_EESaIS2_EE19_M_emplace_back_auxIJRKS2_EEEvDpOT_@Base 4.2.0
 _ZNSt6vectorIS_IPvSaIS0_EESaIS2_EE19_M_emplace_back_auxIJS2_EEEvDpOT_@Base 4.2.0
 _ZNSt6vectorIS_IPvSaIS0_EESaIS2_EED1Ev@Base 4.2.0
 _ZNSt6vectorIS_IPvSaIS0_EESaIS2_EED2Ev@Base 4.2.0
 _ZNSt6vectorIS_IS_IN3ue29CharReachESaIS1_EESaIS3_EESaIS5_EE19_M_emplace_back_auxIIRKS5_EEEvDpOT_@Base 4.2.0
 _ZNSt6vectorIS_IS_IN3ue29CharReachESaIS1_EESaIS3_EESaIS5_EE19_M_emplace_back_auxIJRKS5_EEEvDpOT_@Base 4.2.0
 _ZNSt6vectorIS_IjSaIjEESaIS1_EE19_M_emplace_back_auxIIRKS1_EEEvDpOT_@Base 4.2.0
 _ZNSt6vectorIS_IjSaIjEESaIS1_EE19_M_emplace_back_auxIJRKS1_EEEvDpOT_@Base 4.2.0
 _ZNSt6vectorIS_IjSaIjEESaIS1_EED1Ev@Base 4.2.0
 _ZNSt6vectorIS_IjSaIjEESaIS1_EED2Ev@Base 4.2.0
 _ZNSt6vectorIS_ImSaImEESaIS1_EE19_M_emplace_back_auxIIRKS1_EEEvDpOT_@Base 4.2.0
 _ZNSt6vectorIS_ImSaImEESaIS1_EE19_M_emplace_back_auxIJRKS1_EEEvDpOT_@Base 4.2.0
 _ZNSt6vectorIS_ItSaItEESaIS1_EE17_M_default_appendEm@Base 4.2.0
 _ZNSt6vectorIS_ItSaItEESaIS1_EE19_M_emplace_back_auxIIRKS1_EEEvDpOT_@Base 4.2.0
 _ZNSt6vectorIS_ItSaItEESaIS1_EE19_M_emplace_back_auxIJRKS1_EEEvDpOT_@Base 4.2.0
 _ZNSt6vectorIS_ItSaItEESaIS1_EED1Ev@Base 4.2.0
 _ZNSt6vectorIS_ItSaItEESaIS1_EED2Ev@Base 4.2.0
 _ZNSt6vectorISt10shared_ptrIN3ue211CastleProtoEESaIS3_EE19_M_emplace_back_auxIIRKS3_EEEvDpOT_@Base 4.2.0
 _ZNSt6vectorISt10shared_ptrIN3ue211CastleProtoEESaIS3_EE19_M_emplace_back_auxIJRKS3_EEEvDpOT_@Base 4.2.0
 _ZNSt6vectorISt10shared_ptrIN3ue211GoughSSAVarEESaIS3_EE12emplace_backIIS3_EEEvDpOT_@Base 4.2.0
 _ZNSt6vectorISt10shared_ptrIN3ue211GoughSSAVarEESaIS3_EE12emplace_backIJS3_EEEvDpOT_@Base 4.2.0
 _ZNSt6vectorISt10shared_ptrIN3ue211GoughSSAVarEESaIS3_EED1Ev@Base 4.2.0
 _ZNSt6vectorISt10shared_ptrIN3ue211GoughSSAVarEESaIS3_EED2Ev@Base 4.2.0
 _ZNSt6vectorISt10shared_ptrIN3ue28NGHolderEESaIS3_EE19_M_emplace_back_auxIIRKS3_EEEvDpOT_@Base 4.2.0
 _ZNSt6vectorISt10shared_ptrIN3ue28NGHolderEESaIS3_EE19_M_emplace_back_auxIJRKS3_EEEvDpOT_@Base 4.2.0
 _ZNSt6vectorISt10unique_ptrIN3ue27raw_dfaESt14default_deleteIS2_EESaIS5_EE12emplace_backIIS5_EEEvDpOT_@Base 4.2.0
 _ZNSt6vectorISt10unique_ptrIN3ue27raw_dfaESt14default_deleteIS2_EESaIS5_EE12emplace_backIJS5_EEEvDpOT_@Base 4.2.0
 _ZNSt6vectorISt10unique_ptrIN3ue27raw_dfaESt14default_deleteIS2_EESaIS5_EE19_M_emplace_back_auxIIS5_EEEvDpOT_@Base 4.2.0
 _ZNSt6vectorISt10unique_ptrIN3ue27raw_dfaESt14default_deleteIS2_EESaIS5_EE19_M_emplace_back_auxIJS5_EEEvDpOT_@Base 4.2.0
 _ZNSt6vectorISt10unique_ptrIN3ue27raw_dfaESt14default_deleteIS2_EESaIS5_EED1Ev@Base 4.2.0
 _ZNSt6vectorISt10unique_ptrIN3ue27raw_dfaESt14default_deleteIS2_EESaIS5_EED2Ev@Base 4.2.0
 _ZNSt6vectorISt10unique_ptrIN3ue29ComponentESt14default_deleteIS2_EESaIS5_EE12emplace_backIIS5_EEEvDpOT_@Base 4.2.0
 _ZNSt6vectorISt10unique_ptrIN3ue29ComponentESt14default_deleteIS2_EESaIS5_EE12emplace_backIJS5_EEEvDpOT_@Base 4.2.0
 _ZNSt6vectorISt10unique_ptrIN3ue29ComponentESt14default_deleteIS2_EESaIS5_EE19_M_emplace_back_auxIIS5_EEEvDpOT_@Base 4.2.0
 _ZNSt6vectorISt10unique_ptrIN3ue29ComponentESt14default_deleteIS2_EESaIS5_EE19_M_emplace_back_auxIJS5_EEEvDpOT_@Base 4.2.0
 _ZNSt6vectorISt14_List_iteratorIN5boost9list_edgeIPvN3ue217NFAGraphEdgePropsEEEESaIS7_EE12emplace_backIIS7_EEEvDpOT_@Base 4.2.0
 _ZNSt6vectorISt14_List_iteratorIN5boost9list_edgeIPvN3ue217NFAGraphEdgePropsEEEESaIS7_EE12emplace_backIJS7_EEEvDpOT_@Base 4.2.0
 _ZNSt6vectorISt14_List_iteratorIN5boost9list_edgeIPvN3ue217NFAGraphEdgePropsEEEESaIS7_EE19_M_emplace_back_auxIIS7_EEEvDpOT_@Base 4.2.0
 _ZNSt6vectorISt14_List_iteratorIN5boost9list_edgeIPvN3ue217NFAGraphEdgePropsEEEESaIS7_EE19_M_emplace_back_auxIJS7_EEEvDpOT_@Base 4.2.0
 _ZNSt6vectorISt3mapIiN3ue29CharReachESt4lessIiESaISt4pairIKiS2_EEESaIS9_EE12emplace_backIIS9_EEEvDpOT_@Base 4.2.0
 _ZNSt6vectorISt3mapIiN3ue29CharReachESt4lessIiESaISt4pairIKiS2_EEESaIS9_EE12emplace_backIJS9_EEEvDpOT_@Base 4.2.0
 _ZNSt6vectorISt3mapIiN3ue29CharReachESt4lessIiESaISt4pairIKiS2_EEESaIS9_EE19_M_emplace_back_auxIIS9_EEEvDpOT_@Base 4.2.0
 _ZNSt6vectorISt3mapIiN3ue29CharReachESt4lessIiESaISt4pairIKiS2_EEESaIS9_EE19_M_emplace_back_auxIJS9_EEEvDpOT_@Base 4.2.0
 _ZNSt6vectorISt4pairIN3ue211ue2_literalEjESaIS3_EE19_M_emplace_back_auxIIS3_EEEvDpOT_@Base 4.2.0
 _ZNSt6vectorISt4pairIN3ue211ue2_literalEjESaIS3_EE19_M_emplace_back_auxIJS3_EEEvDpOT_@Base 4.2.0
 _ZNSt6vectorISt4pairIN3ue220simple_anchored_infoESt3setIjSt4lessIjESaIjEEESaIS8_EE19_M_emplace_back_auxIIS8_EEEvDpOT_@Base 4.2.0
 _ZNSt6vectorISt4pairIN3ue220simple_anchored_infoESt3setIjSt4lessIjESaIjEEESaIS8_EE19_M_emplace_back_auxIJS8_EEEvDpOT_@Base 4.2.0
 _ZNSt6vectorISt4pairIN3ue220simple_anchored_infoESt3setIjSt4lessIjESaIjEEESaIS8_EED1Ev@Base 4.2.0
 _ZNSt6vectorISt4pairIN3ue220simple_anchored_infoESt3setIjSt4lessIjESaIjEEESaIS8_EED2Ev@Base 4.2.0
 _ZNSt6vectorISt4pairIN5boost6detail14edge_desc_implINS1_17bidirectional_tagEPvEES5_ESaIS7_EE12emplace_backIIRKS6_RS5_EEEvDpOT_@Base 4.2.0
 _ZNSt6vectorISt4pairIN5boost6detail14edge_desc_implINS1_17bidirectional_tagEPvEES5_ESaIS7_EE12emplace_backIJRKS6_RS5_EEEvDpOT_@Base 4.2.0
 _ZNSt6vectorISt4pairIN5boost6detail14edge_desc_implINS1_17bidirectional_tagEPvEES5_ESaIS7_EE19_M_emplace_back_auxIIRKS6_RS5_EEEvDpOT_@Base 4.2.0
 _ZNSt6vectorISt4pairIN5boost6detail14edge_desc_implINS1_17bidirectional_tagEPvEES5_ESaIS7_EE19_M_emplace_back_auxIJRKS6_RS5_EEEvDpOT_@Base 4.2.0
 _ZNSt6vectorISt4pairIPKN3ue215rose_literal_idEjESaIS5_EE12emplace_backIIS5_EEEvDpOT_@Base 4.2.0
 _ZNSt6vectorISt4pairIPKN3ue215rose_literal_idEjESaIS5_EE12emplace_backIJS5_EEEvDpOT_@Base 4.2.0
 _ZNSt6vectorISt4pairIPKN3ue215rose_literal_idEjESaIS5_EE19_M_emplace_back_auxIIS5_EEEvDpOT_@Base 4.2.0
 _ZNSt6vectorISt4pairIPKN3ue215rose_literal_idEjESaIS5_EE19_M_emplace_back_auxIJS5_EEEvDpOT_@Base 4.2.0
 _ZNSt6vectorISt4pairIPKN3ue215rose_literal_idEjESaIS5_EE7reserveEm@Base 4.2.0
 _ZNSt6vectorISt4pairIPvN3ue213RoseEdgePropsEESaIS4_EE13_M_insert_auxIIS4_EEEvN9__gnu_cxx17__normal_iteratorIPS4_S6_EEDpOT_@Base 4.2.0
 _ZNSt6vectorISt4pairIPvN3ue213RoseEdgePropsEESaIS4_EE13_M_insert_auxIJS4_EEEvN9__gnu_cxx17__normal_iteratorIPS4_S6_EEDpOT_@Base 4.2.0
 _ZNSt6vectorISt4pairIPvN5boost6detail14edge_desc_implINS2_17bidirectional_tagES1_EEESaIS7_EE19_M_emplace_back_auxIIRS1_RKS6_EEEvDpOT_@Base 4.2.0
 _ZNSt6vectorISt4pairIPvN5boost6detail14edge_desc_implINS2_17bidirectional_tagES1_EEESaIS7_EE19_M_emplace_back_auxIJRS1_RKS6_EEEvDpOT_@Base 4.2.0
 _ZNSt6vectorISt4pairIPvS0_IN5boost8optionalINS2_6detail14edge_desc_implINS2_14undirected_tagES1_EEEES0_INS4_13out_edge_iterISt23_Rb_tree_const_iteratorINS4_16stored_edge_iterIS1_St14_List_iteratorINS2_9list_edgeIS1_NS2_11no_propertyEEEESE_EEES1_S7_lEESJ_EEESaISM_EE12emplace_backIISM_EEEvDpOT_@Base 4.2.0
 _ZNSt6vectorISt4pairIPvS0_IN5boost8optionalINS2_6detail14edge_desc_implINS2_14undirected_tagES1_EEEES0_INS4_13out_edge_iterISt23_Rb_tree_const_iteratorINS4_16stored_edge_iterIS1_St14_List_iteratorINS2_9list_edgeIS1_NS2_11no_propertyEEEESE_EEES1_S7_lEESJ_EEESaISM_EE12emplace_backIJSM_EEEvDpOT_@Base 4.2.0
 _ZNSt6vectorISt4pairIPvS0_IN5boost8optionalINS2_6detail14edge_desc_implINS2_14undirected_tagES1_EEEES0_INS4_13out_edge_iterISt23_Rb_tree_const_iteratorINS4_16stored_edge_iterIS1_St14_List_iteratorINS2_9list_edgeIS1_NS2_11no_propertyEEEESE_EEES1_S7_lEESJ_EEESaISM_EE19_M_emplace_back_auxIISM_EEEvDpOT_@Base 4.2.0
 _ZNSt6vectorISt4pairIPvS0_IN5boost8optionalINS2_6detail14edge_desc_implINS2_14undirected_tagES1_EEEES0_INS4_13out_edge_iterISt23_Rb_tree_const_iteratorINS4_16stored_edge_iterIS1_St14_List_iteratorINS2_9list_edgeIS1_NS2_11no_propertyEEEESE_EEES1_S7_lEESJ_EEESaISM_EE19_M_emplace_back_auxIJSM_EEEvDpOT_@Base 4.2.0
 _ZNSt6vectorISt4pairIPvS0_IN5boost8optionalINS2_6detail14edge_desc_implINS2_17bidirectional_tagES1_EEEES0_INS2_9iterators15filter_iteratorINS4_18out_edge_predicateIN3ue213AcyclicFilterINS2_9unordered13unordered_setIS7_NS2_4hashIS7_EESt8equal_toIS7_ESaIS7_EEEEENS2_8keep_allENS2_14filtered_graphINS2_14adjacency_listINS2_5listSESQ_NS2_14bidirectionalSENSC_19NFAGraphVertexPropsENSC_17NFAGraphEdgePropsENS2_11no_propertyESQ_EESM_SN_EEEENS4_13out_edge_iterISt14_List_iteratorINS4_16stored_edge_iterIS1_SZ_INS2_9list_edgeIS1_ST_EEEST_EEES1_S7_lEEEES17_EEESaIS1A_EE12emplace_backIIS1A_EEEvDpOT_@Base 4.2.0
 _ZNSt6vectorISt4pairIPvS0_IN5boost8optionalINS2_6detail14edge_desc_implINS2_17bidirectional_tagES1_EEEES0_INS2_9iterators15filter_iteratorINS4_18out_edge_predicateIN3ue213AcyclicFilterINS2_9unordered13unordered_setIS7_NS2_4hashIS7_EESt8equal_toIS7_ESaIS7_EEEEENS2_8keep_allENS2_14filtered_graphINS2_14adjacency_listINS2_5listSESQ_NS2_14bidirectionalSENSC_19NFAGraphVertexPropsENSC_17NFAGraphEdgePropsENS2_11no_propertyESQ_EESM_SN_EEEENS4_13out_edge_iterISt14_List_iteratorINS4_16stored_edge_iterIS1_SZ_INS2_9list_edgeIS1_ST_EEEST_EEES1_S7_lEEEES17_EEESaIS1A_EE12emplace_backIJS1A_EEEvDpOT_@Base 4.2.0
 _ZNSt6vectorISt4pairIPvS0_IN5boost8optionalINS2_6detail14edge_desc_implINS2_17bidirectional_tagES1_EEEES0_INS2_9iterators15filter_iteratorINS4_18out_edge_predicateIN3ue213AcyclicFilterINS2_9unordered13unordered_setIS7_NS2_4hashIS7_EESt8equal_toIS7_ESaIS7_EEEEENS2_8keep_allENS2_14filtered_graphINS2_14adjacency_listINS2_5listSESQ_NS2_14bidirectionalSENSC_19NFAGraphVertexPropsENSC_17NFAGraphEdgePropsENS2_11no_propertyESQ_EESM_SN_EEEENS4_13out_edge_iterISt14_List_iteratorINS4_16stored_edge_iterIS1_SZ_INS2_9list_edgeIS1_ST_EEEST_EEES1_S7_lEEEES17_EEESaIS1A_EE19_M_emplace_back_auxIIS1A_EEEvDpOT_@Base 4.2.0
 _ZNSt6vectorISt4pairIPvS0_IN5boost8optionalINS2_6detail14edge_desc_implINS2_17bidirectional_tagES1_EEEES0_INS2_9iterators15filter_iteratorINS4_18out_edge_predicateIN3ue213AcyclicFilterINS2_9unordered13unordered_setIS7_NS2_4hashIS7_EESt8equal_toIS7_ESaIS7_EEEEENS2_8keep_allENS2_14filtered_graphINS2_14adjacency_listINS2_5listSESQ_NS2_14bidirectionalSENSC_19NFAGraphVertexPropsENSC_17NFAGraphEdgePropsENS2_11no_propertyESQ_EESM_SN_EEEENS4_13out_edge_iterISt14_List_iteratorINS4_16stored_edge_iterIS1_SZ_INS2_9list_edgeIS1_ST_EEEST_EEES1_S7_lEEEES17_EEESaIS1A_EE19_M_emplace_back_auxIJS1A_EEEvDpOT_@Base 4.2.0
 _ZNSt6vectorISt4pairIPvS0_IN5boost8optionalINS2_6detail14edge_desc_implINS2_17bidirectional_tagES1_EEEES0_INS2_9iterators15filter_iteratorINS4_18out_edge_predicateIN3ue213AcyclicFilterISt3setIS7_St4lessIS7_ESaIS7_EEEENS2_8keep_allENS2_14filtered_graphINS2_14adjacency_listINS2_5listSESN_NS2_14bidirectionalSENSC_19NFAGraphVertexPropsENSC_17NFAGraphEdgePropsENS2_11no_propertyESN_EESJ_SK_EEEENS4_13out_edge_iterISt14_List_iteratorINS4_16stored_edge_iterIS1_SW_INS2_9list_edgeIS1_SQ_EEESQ_EEES1_S7_lEEEES14_EEESaIS17_EE12emplace_backIIS17_EEEvDpOT_@Base 4.2.0
 _ZNSt6vectorISt4pairIPvS0_IN5boost8optionalINS2_6detail14edge_desc_implINS2_17bidirectional_tagES1_EEEES0_INS2_9iterators15filter_iteratorINS4_18out_edge_predicateIN3ue213AcyclicFilterISt3setIS7_St4lessIS7_ESaIS7_EEEENS2_8keep_allENS2_14filtered_graphINS2_14adjacency_listINS2_5listSESN_NS2_14bidirectionalSENSC_19NFAGraphVertexPropsENSC_17NFAGraphEdgePropsENS2_11no_propertyESN_EESJ_SK_EEEENS4_13out_edge_iterISt14_List_iteratorINS4_16stored_edge_iterIS1_SW_INS2_9list_edgeIS1_SQ_EEESQ_EEES1_S7_lEEEES14_EEESaIS17_EE12emplace_backIJS17_EEEvDpOT_@Base 4.2.0
 _ZNSt6vectorISt4pairIPvS0_IN5boost8optionalINS2_6detail14edge_desc_implINS2_17bidirectional_tagES1_EEEES0_INS2_9iterators15filter_iteratorINS4_18out_edge_predicateIN3ue213AcyclicFilterISt3setIS7_St4lessIS7_ESaIS7_EEEENS2_8keep_allENS2_14filtered_graphINS2_14adjacency_listINS2_5listSESN_NS2_14bidirectionalSENSC_19NFAGraphVertexPropsENSC_17NFAGraphEdgePropsENS2_11no_propertyESN_EESJ_SK_EEEENS4_13out_edge_iterISt14_List_iteratorINS4_16stored_edge_iterIS1_SW_INS2_9list_edgeIS1_SQ_EEESQ_EEES1_S7_lEEEES14_EEESaIS17_EE19_M_emplace_back_auxIIS17_EEEvDpOT_@Base 4.2.0
 _ZNSt6vectorISt4pairIPvS0_IN5boost8optionalINS2_6detail14edge_desc_implINS2_17bidirectional_tagES1_EEEES0_INS2_9iterators15filter_iteratorINS4_18out_edge_predicateIN3ue213AcyclicFilterISt3setIS7_St4lessIS7_ESaIS7_EEEENS2_8keep_allENS2_14filtered_graphINS2_14adjacency_listINS2_5listSESN_NS2_14bidirectionalSENSC_19NFAGraphVertexPropsENSC_17NFAGraphEdgePropsENS2_11no_propertyESN_EESJ_SK_EEEENS4_13out_edge_iterISt14_List_iteratorINS4_16stored_edge_iterIS1_SW_INS2_9list_edgeIS1_SQ_EEESQ_EEES1_S7_lEEEES14_EEESaIS17_EE19_M_emplace_back_auxIJS17_EEEvDpOT_@Base 4.2.0
 _ZNSt6vectorISt4pairIPvS0_IN5boost8optionalINS2_6detail14edge_desc_implINS2_17bidirectional_tagES1_EEEES0_INS4_13out_edge_iterISt14_List_iteratorINS4_16stored_edge_iterIS1_SA_INS2_9list_edgeIS1_N3ue213RoseEdgePropsEEEESE_EEES1_S7_lEESJ_EEESaISM_EE12emplace_backIISM_EEEvDpOT_@Base 4.2.0
 _ZNSt6vectorISt4pairIPvS0_IN5boost8optionalINS2_6detail14edge_desc_implINS2_17bidirectional_tagES1_EEEES0_INS4_13out_edge_iterISt14_List_iteratorINS4_16stored_edge_iterIS1_SA_INS2_9list_edgeIS1_N3ue213RoseEdgePropsEEEESE_EEES1_S7_lEESJ_EEESaISM_EE12emplace_backIJSM_EEEvDpOT_@Base 4.2.0
 _ZNSt6vectorISt4pairIPvS0_IN5boost8optionalINS2_6detail14edge_desc_implINS2_17bidirectional_tagES1_EEEES0_INS4_13out_edge_iterISt14_List_iteratorINS4_16stored_edge_iterIS1_SA_INS2_9list_edgeIS1_N3ue213RoseEdgePropsEEEESE_EEES1_S7_lEESJ_EEESaISM_EE19_M_emplace_back_auxIISM_EEEvDpOT_@Base 4.2.0
 _ZNSt6vectorISt4pairIPvS0_IN5boost8optionalINS2_6detail14edge_desc_implINS2_17bidirectional_tagES1_EEEES0_INS4_13out_edge_iterISt14_List_iteratorINS4_16stored_edge_iterIS1_SA_INS2_9list_edgeIS1_N3ue213RoseEdgePropsEEEESE_EEES1_S7_lEESJ_EEESaISM_EE19_M_emplace_back_auxIJSM_EEEvDpOT_@Base 4.2.0
 _ZNSt6vectorISt4pairIPvS0_IN5boost8optionalINS2_6detail14edge_desc_implINS2_17bidirectional_tagES1_EEEES0_INS4_13out_edge_iterISt14_List_iteratorINS4_16stored_edge_iterIS1_SA_INS2_9list_edgeIS1_N3ue215RoseInEdgePropsEEEESE_EEES1_S7_lEESJ_EEESaISM_EE12emplace_backIISM_EEEvDpOT_@Base 4.2.0
 _ZNSt6vectorISt4pairIPvS0_IN5boost8optionalINS2_6detail14edge_desc_implINS2_17bidirectional_tagES1_EEEES0_INS4_13out_edge_iterISt14_List_iteratorINS4_16stored_edge_iterIS1_SA_INS2_9list_edgeIS1_N3ue215RoseInEdgePropsEEEESE_EEES1_S7_lEESJ_EEESaISM_EE12emplace_backIJSM_EEEvDpOT_@Base 4.2.0
 _ZNSt6vectorISt4pairIPvS0_IN5boost8optionalINS2_6detail14edge_desc_implINS2_17bidirectional_tagES1_EEEES0_INS4_13out_edge_iterISt14_List_iteratorINS4_16stored_edge_iterIS1_SA_INS2_9list_edgeIS1_N3ue215RoseInEdgePropsEEEESE_EEES1_S7_lEESJ_EEESaISM_EE19_M_emplace_back_auxIISM_EEEvDpOT_@Base 4.2.0
 _ZNSt6vectorISt4pairIPvS0_IN5boost8optionalINS2_6detail14edge_desc_implINS2_17bidirectional_tagES1_EEEES0_INS4_13out_edge_iterISt14_List_iteratorINS4_16stored_edge_iterIS1_SA_INS2_9list_edgeIS1_N3ue215RoseInEdgePropsEEEESE_EEES1_S7_lEESJ_EEESaISM_EE19_M_emplace_back_auxIJSM_EEEvDpOT_@Base 4.2.0
 _ZNSt6vectorISt4pairIPvS0_IN5boost8optionalINS2_6detail14edge_desc_implINS2_17bidirectional_tagES1_EEEES0_INS4_13out_edge_iterISt14_List_iteratorINS4_16stored_edge_iterIS1_SA_INS2_9list_edgeIS1_N3ue215RoseInEdgePropsEEEESE_EEES1_S7_lEESJ_EEESaISM_EED1Ev@Base 4.2.0
 _ZNSt6vectorISt4pairIPvS0_IN5boost8optionalINS2_6detail14edge_desc_implINS2_17bidirectional_tagES1_EEEES0_INS4_13out_edge_iterISt14_List_iteratorINS4_16stored_edge_iterIS1_SA_INS2_9list_edgeIS1_N3ue215RoseInEdgePropsEEEESE_EEES1_S7_lEESJ_EEESaISM_EED2Ev@Base 4.2.0
 _ZNSt6vectorISt4pairIPvS0_IN5boost8optionalINS2_6detail14edge_desc_implINS2_17bidirectional_tagES1_EEEES0_INS4_13out_edge_iterISt14_List_iteratorINS4_16stored_edge_iterIS1_SA_INS2_9list_edgeIS1_N3ue217NFAGraphEdgePropsEEEESE_EEES1_S7_lEESJ_EEESaISM_EE12emplace_backIISM_EEEvDpOT_@Base 4.2.0
 _ZNSt6vectorISt4pairIPvS0_IN5boost8optionalINS2_6detail14edge_desc_implINS2_17bidirectional_tagES1_EEEES0_INS4_13out_edge_iterISt14_List_iteratorINS4_16stored_edge_iterIS1_SA_INS2_9list_edgeIS1_N3ue217NFAGraphEdgePropsEEEESE_EEES1_S7_lEESJ_EEESaISM_EE12emplace_backIJSM_EEEvDpOT_@Base 4.2.0
 _ZNSt6vectorISt4pairIPvS0_IN5boost8optionalINS2_6detail14edge_desc_implINS2_17bidirectional_tagES1_EEEES0_INS4_13out_edge_iterISt14_List_iteratorINS4_16stored_edge_iterIS1_SA_INS2_9list_edgeIS1_N3ue217NFAGraphEdgePropsEEEESE_EEES1_S7_lEESJ_EEESaISM_EE19_M_emplace_back_auxIISM_EEEvDpOT_@Base 4.2.0
 _ZNSt6vectorISt4pairIPvS0_IN5boost8optionalINS2_6detail14edge_desc_implINS2_17bidirectional_tagES1_EEEES0_INS4_13out_edge_iterISt14_List_iteratorINS4_16stored_edge_iterIS1_SA_INS2_9list_edgeIS1_N3ue217NFAGraphEdgePropsEEEESE_EEES1_S7_lEESJ_EEESaISM_EE19_M_emplace_back_auxIJSM_EEEvDpOT_@Base 4.2.0
 _ZNSt6vectorISt4pairIPvS0_IN5boost8optionalINS2_6detail14edge_desc_implINS2_17bidirectional_tagES1_EEEES0_INS4_13out_edge_iterISt14_List_iteratorINS4_16stored_edge_iterIS1_SA_INS2_9list_edgeIS1_N3ue217NFAGraphEdgePropsEEEESE_EEES1_S7_lEESJ_EEESaISM_EED1Ev@Base 4.2.0
 _ZNSt6vectorISt4pairIPvS0_IN5boost8optionalINS2_6detail14edge_desc_implINS2_17bidirectional_tagES1_EEEES0_INS4_13out_edge_iterISt14_List_iteratorINS4_16stored_edge_iterIS1_SA_INS2_9list_edgeIS1_N3ue217NFAGraphEdgePropsEEEESE_EEES1_S7_lEESJ_EEESaISM_EED2Ev@Base 4.2.0
 _ZNSt6vectorISt4pairIPvS0_IN5boost8optionalINS2_6detail29reverse_graph_edge_descriptorINS4_14edge_desc_implINS2_17bidirectional_tagES1_EEEEEES0_INS2_9iterators15filter_iteratorINS4_18out_edge_predicateIN3ue213AcyclicFilterISt3setIS9_St4lessIS9_ESaIS9_EEEENS2_8keep_allENS2_14filtered_graphINS2_13reverse_graphINS2_14adjacency_listINS2_5listSESQ_NS2_14bidirectionalSENSE_19NFAGraphVertexPropsENSE_17NFAGraphEdgePropsENS2_11no_propertyESQ_EERKSV_EESL_SM_EEEENSB_18transform_iteratorINS4_35reverse_graph_edge_descriptor_makerIS8_EENS4_12in_edge_iterISt14_List_iteratorINS4_16stored_edge_iterIS1_S15_INS2_9list_edgeIS1_ST_EEEST_EEES1_S8_lEENSB_11use_defaultES1D_EEEES1F_EEESaIS1I_EE12emplace_backIIS1I_EEEvDpOT_@Base 4.2.0
 _ZNSt6vectorISt4pairIPvS0_IN5boost8optionalINS2_6detail29reverse_graph_edge_descriptorINS4_14edge_desc_implINS2_17bidirectional_tagES1_EEEEEES0_INS2_9iterators15filter_iteratorINS4_18out_edge_predicateIN3ue213AcyclicFilterISt3setIS9_St4lessIS9_ESaIS9_EEEENS2_8keep_allENS2_14filtered_graphINS2_13reverse_graphINS2_14adjacency_listINS2_5listSESQ_NS2_14bidirectionalSENSE_19NFAGraphVertexPropsENSE_17NFAGraphEdgePropsENS2_11no_propertyESQ_EERKSV_EESL_SM_EEEENSB_18transform_iteratorINS4_35reverse_graph_edge_descriptor_makerIS8_EENS4_12in_edge_iterISt14_List_iteratorINS4_16stored_edge_iterIS1_S15_INS2_9list_edgeIS1_ST_EEEST_EEES1_S8_lEENSB_11use_defaultES1D_EEEES1F_EEESaIS1I_EE12emplace_backIJS1I_EEEvDpOT_@Base 4.2.0
 _ZNSt6vectorISt4pairIPvS0_IN5boost8optionalINS2_6detail29reverse_graph_edge_descriptorINS4_14edge_desc_implINS2_17bidirectional_tagES1_EEEEEES0_INS2_9iterators15filter_iteratorINS4_18out_edge_predicateIN3ue213AcyclicFilterISt3setIS9_St4lessIS9_ESaIS9_EEEENS2_8keep_allENS2_14filtered_graphINS2_13reverse_graphINS2_14adjacency_listINS2_5listSESQ_NS2_14bidirectionalSENSE_19NFAGraphVertexPropsENSE_17NFAGraphEdgePropsENS2_11no_propertyESQ_EERKSV_EESL_SM_EEEENSB_18transform_iteratorINS4_35reverse_graph_edge_descriptor_makerIS8_EENS4_12in_edge_iterISt14_List_iteratorINS4_16stored_edge_iterIS1_S15_INS2_9list_edgeIS1_ST_EEEST_EEES1_S8_lEENSB_11use_defaultES1D_EEEES1F_EEESaIS1I_EE19_M_emplace_back_auxIIS1I_EEEvDpOT_@Base 4.2.0
 _ZNSt6vectorISt4pairIPvS0_IN5boost8optionalINS2_6detail29reverse_graph_edge_descriptorINS4_14edge_desc_implINS2_17bidirectional_tagES1_EEEEEES0_INS2_9iterators15filter_iteratorINS4_18out_edge_predicateIN3ue213AcyclicFilterISt3setIS9_St4lessIS9_ESaIS9_EEEENS2_8keep_allENS2_14filtered_graphINS2_13reverse_graphINS2_14adjacency_listINS2_5listSESQ_NS2_14bidirectionalSENSE_19NFAGraphVertexPropsENSE_17NFAGraphEdgePropsENS2_11no_propertyESQ_EERKSV_EESL_SM_EEEENSB_18transform_iteratorINS4_35reverse_graph_edge_descriptor_makerIS8_EENS4_12in_edge_iterISt14_List_iteratorINS4_16stored_edge_iterIS1_S15_INS2_9list_edgeIS1_ST_EEEST_EEES1_S8_lEENSB_11use_defaultES1D_EEEES1F_EEESaIS1I_EE19_M_emplace_back_auxIJS1I_EEEvDpOT_@Base 4.2.0
 _ZNSt6vectorISt4pairIPvS0_IN5boost8optionalINS2_6detail29reverse_graph_edge_descriptorINS4_14edge_desc_implINS2_17bidirectional_tagES1_EEEEEES0_INS2_9iterators18transform_iteratorINS4_35reverse_graph_edge_descriptor_makerIS8_EENS4_12in_edge_iterISt14_List_iteratorINS4_16stored_edge_iterIS1_SG_INS2_9list_edgeIS1_N3ue215RoseInEdgePropsEEEESK_EEES1_S8_lEENSB_11use_defaultESQ_EESR_EEESaISU_EE12emplace_backIISU_EEEvDpOT_@Base 4.2.0
 _ZNSt6vectorISt4pairIPvS0_IN5boost8optionalINS2_6detail29reverse_graph_edge_descriptorINS4_14edge_desc_implINS2_17bidirectional_tagES1_EEEEEES0_INS2_9iterators18transform_iteratorINS4_35reverse_graph_edge_descriptor_makerIS8_EENS4_12in_edge_iterISt14_List_iteratorINS4_16stored_edge_iterIS1_SG_INS2_9list_edgeIS1_N3ue215RoseInEdgePropsEEEESK_EEES1_S8_lEENSB_11use_defaultESQ_EESR_EEESaISU_EE12emplace_backIJSU_EEEvDpOT_@Base 4.2.0
 _ZNSt6vectorISt4pairIPvS0_IN5boost8optionalINS2_6detail29reverse_graph_edge_descriptorINS4_14edge_desc_implINS2_17bidirectional_tagES1_EEEEEES0_INS2_9iterators18transform_iteratorINS4_35reverse_graph_edge_descriptor_makerIS8_EENS4_12in_edge_iterISt14_List_iteratorINS4_16stored_edge_iterIS1_SG_INS2_9list_edgeIS1_N3ue215RoseInEdgePropsEEEESK_EEES1_S8_lEENSB_11use_defaultESQ_EESR_EEESaISU_EE19_M_emplace_back_auxIISU_EEEvDpOT_@Base 4.2.0
 _ZNSt6vectorISt4pairIPvS0_IN5boost8optionalINS2_6detail29reverse_graph_edge_descriptorINS4_14edge_desc_implINS2_17bidirectional_tagES1_EEEEEES0_INS2_9iterators18transform_iteratorINS4_35reverse_graph_edge_descriptor_makerIS8_EENS4_12in_edge_iterISt14_List_iteratorINS4_16stored_edge_iterIS1_SG_INS2_9list_edgeIS1_N3ue215RoseInEdgePropsEEEESK_EEES1_S8_lEENSB_11use_defaultESQ_EESR_EEESaISU_EE19_M_emplace_back_auxIJSU_EEEvDpOT_@Base 4.2.0
 _ZNSt6vectorISt4pairIPvS0_IN5boost8optionalINS2_6detail29reverse_graph_edge_descriptorINS4_14edge_desc_implINS2_17bidirectional_tagES1_EEEEEES0_INS2_9iterators18transform_iteratorINS4_35reverse_graph_edge_descriptor_makerIS8_EENS4_12in_edge_iterISt14_List_iteratorINS4_16stored_edge_iterIS1_SG_INS2_9list_edgeIS1_N3ue217NFAGraphEdgePropsEEEESK_EEES1_S8_lEENSB_11use_defaultESQ_EESR_EEESaISU_EE12emplace_backIISU_EEEvDpOT_@Base 4.2.0
 _ZNSt6vectorISt4pairIPvS0_IN5boost8optionalINS2_6detail29reverse_graph_edge_descriptorINS4_14edge_desc_implINS2_17bidirectional_tagES1_EEEEEES0_INS2_9iterators18transform_iteratorINS4_35reverse_graph_edge_descriptor_makerIS8_EENS4_12in_edge_iterISt14_List_iteratorINS4_16stored_edge_iterIS1_SG_INS2_9list_edgeIS1_N3ue217NFAGraphEdgePropsEEEESK_EEES1_S8_lEENSB_11use_defaultESQ_EESR_EEESaISU_EE12emplace_backIJSU_EEEvDpOT_@Base 4.2.0
 _ZNSt6vectorISt4pairIPvS0_IN5boost8optionalINS2_6detail29reverse_graph_edge_descriptorINS4_14edge_desc_implINS2_17bidirectional_tagES1_EEEEEES0_INS2_9iterators18transform_iteratorINS4_35reverse_graph_edge_descriptor_makerIS8_EENS4_12in_edge_iterISt14_List_iteratorINS4_16stored_edge_iterIS1_SG_INS2_9list_edgeIS1_N3ue217NFAGraphEdgePropsEEEESK_EEES1_S8_lEENSB_11use_defaultESQ_EESR_EEESaISU_EE19_M_emplace_back_auxIISU_EEEvDpOT_@Base 4.2.0
 _ZNSt6vectorISt4pairIPvS0_IN5boost8optionalINS2_6detail29reverse_graph_edge_descriptorINS4_14edge_desc_implINS2_17bidirectional_tagES1_EEEEEES0_INS2_9iterators18transform_iteratorINS4_35reverse_graph_edge_descriptor_makerIS8_EENS4_12in_edge_iterISt14_List_iteratorINS4_16stored_edge_iterIS1_SG_INS2_9list_edgeIS1_N3ue217NFAGraphEdgePropsEEEESK_EEES1_S8_lEENSB_11use_defaultESQ_EESR_EEESaISU_EE19_M_emplace_back_auxIJSU_EEEvDpOT_@Base 4.2.0
 _ZNSt6vectorISt4pairIPvS0_IN5boost8optionalINS2_6detail29reverse_graph_edge_descriptorINS4_14edge_desc_implINS2_17bidirectional_tagES1_EEEEEES0_INS2_9iterators18transform_iteratorINS4_35reverse_graph_edge_descriptor_makerIS8_EENS4_12in_edge_iterISt14_List_iteratorINS4_16stored_edge_iterIS1_SG_INS2_9list_edgeIS1_N3ue217NFAGraphEdgePropsEEEESK_EEES1_S8_lEENSB_11use_defaultESQ_EESR_EEESaISU_EED1Ev@Base 4.2.0
 _ZNSt6vectorISt4pairIPvS0_IN5boost8optionalINS2_6detail29reverse_graph_edge_descriptorINS4_14edge_desc_implINS2_17bidirectional_tagES1_EEEEEES0_INS2_9iterators18transform_iteratorINS4_35reverse_graph_edge_descriptor_makerIS8_EENS4_12in_edge_iterISt14_List_iteratorINS4_16stored_edge_iterIS1_SG_INS2_9list_edgeIS1_N3ue217NFAGraphEdgePropsEEEESK_EEES1_S8_lEENSB_11use_defaultESQ_EESR_EEESaISU_EED2Ev@Base 4.2.0
 _ZNSt6vectorISt4pairIS0_IiiEjESaIS2_EE19_M_emplace_back_auxIIS2_EEEvDpOT_@Base 4.2.0
 _ZNSt6vectorISt4pairIS0_IiiEjESaIS2_EE19_M_emplace_back_auxIJS2_EEEvDpOT_@Base 4.2.0
 _ZNSt6vectorISt4pairISt10unique_ptrI13NFARepeatInfoN3ue214AlignedDeleterIS2_EEEmESaIS7_EE12emplace_backIIS6_RmEEEvDpOT_@Base 4.2.0
 _ZNSt6vectorISt4pairISt10unique_ptrI13NFARepeatInfoN3ue214AlignedDeleterIS2_EEEmESaIS7_EE12emplace_backIJS6_RmEEEvDpOT_@Base 4.2.0
 _ZNSt6vectorISt4pairISt10unique_ptrI13NFARepeatInfoN3ue214AlignedDeleterIS2_EEEmESaIS7_EE19_M_emplace_back_auxIIS6_RmEEEvDpOT_@Base 4.2.0
 _ZNSt6vectorISt4pairISt10unique_ptrI13NFARepeatInfoN3ue214AlignedDeleterIS2_EEEmESaIS7_EE19_M_emplace_back_auxIJS6_RmEEEvDpOT_@Base 4.2.0
 _ZNSt6vectorISt4pairISt10unique_ptrI13NFARepeatInfoN3ue214AlignedDeleterIS2_EEEmESaIS7_EE7reserveEm@Base 4.2.0
 _ZNSt6vectorISt4pairISt10unique_ptrI13NFARepeatInfoN3ue214AlignedDeleterIS2_EEEmESaIS7_EED1Ev@Base 4.2.0
 _ZNSt6vectorISt4pairISt10unique_ptrI13NFARepeatInfoN3ue214AlignedDeleterIS2_EEEmESaIS7_EED2Ev@Base 4.2.0
 _ZNSt6vectorISt4pairIhhESaIS1_EE13_M_insert_auxIIRKS1_EEEvN9__gnu_cxx17__normal_iteratorIPS1_S3_EEDpOT_@Base 4.2.0
 _ZNSt6vectorISt4pairIhhESaIS1_EE13_M_insert_auxIIS1_EEEvN9__gnu_cxx17__normal_iteratorIPS1_S3_EEDpOT_@Base 4.2.0
 _ZNSt6vectorISt4pairIhhESaIS1_EE13_M_insert_auxIJRKS1_EEEvN9__gnu_cxx17__normal_iteratorIPS1_S3_EEDpOT_@Base 4.2.0
 _ZNSt6vectorISt4pairIhhESaIS1_EE13_M_insert_auxIJS1_EEEvN9__gnu_cxx17__normal_iteratorIPS1_S3_EEDpOT_@Base 4.2.0
 _ZNSt6vectorISt4pairIhhESaIS1_EE6insertEN9__gnu_cxx17__normal_iteratorIPKS1_S3_EERS6_@Base 4.2.0
 _ZNSt6vectorISt4pairIhhESaIS1_EEaSERKS3_@Base 4.2.0
 _ZNSt6vectorISt4pairIi13NFAEngineTypeESaIS2_EE12emplace_backIIS2_EEEvDpOT_@Base 4.2.0
 _ZNSt6vectorISt4pairIi13NFAEngineTypeESaIS2_EE12emplace_backIJS2_EEEvDpOT_@Base 4.2.0
 _ZNSt6vectorISt4pairIi13NFAEngineTypeESaIS2_EE19_M_emplace_back_auxIIS2_EEEvDpOT_@Base 4.2.0
 _ZNSt6vectorISt4pairIi13NFAEngineTypeESaIS2_EE19_M_emplace_back_auxIJS2_EEEvDpOT_@Base 4.2.0
 _ZNSt6vectorISt4pairIjN3ue29suffix_idEESaIS3_EE19_M_emplace_back_auxIIRKjRKS2_EEEvDpOT_@Base 4.2.0
 _ZNSt6vectorISt4pairIjN3ue29suffix_idEESaIS3_EE19_M_emplace_back_auxIJRKjRKS2_EEEvDpOT_@Base 4.2.0
 _ZNSt6vectorISt4pairIjPN3ue215GoughSSAVarJoinEESaIS4_EE13_M_insert_auxIIS4_EEEvN9__gnu_cxx17__normal_iteratorIPS4_S6_EEDpOT_@Base 4.2.0
 _ZNSt6vectorISt4pairIjPN3ue215GoughSSAVarJoinEESaIS4_EE13_M_insert_auxIJS4_EEEvN9__gnu_cxx17__normal_iteratorIPS4_S6_EEDpOT_@Base 4.2.0
 _ZNSt6vectorISt4pairIjS_IjSaIjEEESaIS3_EE13_M_insert_auxIIS3_EEEvN9__gnu_cxx17__normal_iteratorIPS3_S5_EEDpOT_@Base 4.2.0
 _ZNSt6vectorISt4pairIjS_IjSaIjEEESaIS3_EE13_M_insert_auxIJS3_EEEvN9__gnu_cxx17__normal_iteratorIPS3_S5_EEDpOT_@Base 4.2.0
 _ZNSt6vectorISt4pairIjjESaIS1_EE12emplace_backIIRKjS6_EEEvDpOT_@Base 4.2.0
 _ZNSt6vectorISt4pairIjjESaIS1_EE12emplace_backIJRKjS6_EEEvDpOT_@Base 4.2.0
 _ZNSt6vectorISt4pairIjjESaIS1_EE19_M_emplace_back_auxIIRKjS6_EEEvDpOT_@Base 4.2.0
 _ZNSt6vectorISt4pairIjjESaIS1_EE19_M_emplace_back_auxIJRKjS6_EEEvDpOT_@Base 4.2.0
 _ZNSt6vectorISt4pairImS0_IN5boost8optionalINS1_6detail14edge_desc_implINS1_17bidirectional_tagEmEEEES0_INS3_13out_edge_iterIN9__gnu_cxx17__normal_iteratorIPNS3_16stored_edge_iterImSt14_List_iteratorINS1_9list_edgeImN3ue214GoughEdgePropsEEEESF_EES_ISI_SaISI_EEEEmS6_lEESN_EEESaISQ_EE19_M_emplace_back_auxIISQ_EEEvDpOT_@Base 4.2.0
 _ZNSt6vectorISt4pairImS0_IN5boost8optionalINS1_6detail14edge_desc_implINS1_17bidirectional_tagEmEEEES0_INS3_13out_edge_iterIN9__gnu_cxx17__normal_iteratorIPNS3_16stored_edge_iterImSt14_List_iteratorINS1_9list_edgeImN3ue214GoughEdgePropsEEEESF_EES_ISI_SaISI_EEEEmS6_lEESN_EEESaISQ_EE19_M_emplace_back_auxIJSQ_EEEvDpOT_@Base 4.2.0
 _ZNSt6vectorISt4pairImS0_IN5boost8optionalINS1_6detail14edge_desc_implINS1_17bidirectional_tagEmEEEES0_INS3_13out_edge_iterIN9__gnu_cxx17__normal_iteratorIPNS3_16stored_edge_iterImSt14_List_iteratorINS1_9list_edgeImNS1_11no_propertyEEEESE_EES_ISH_SaISH_EEEEmS6_lEESM_EEESaISP_EE19_M_emplace_back_auxIISP_EEEvDpOT_@Base 4.2.0
 _ZNSt6vectorISt4pairImS0_IN5boost8optionalINS1_6detail14edge_desc_implINS1_17bidirectional_tagEmEEEES0_INS3_13out_edge_iterIN9__gnu_cxx17__normal_iteratorIPNS3_16stored_edge_iterImSt14_List_iteratorINS1_9list_edgeImNS1_11no_propertyEEEESE_EES_ISH_SaISH_EEEEmS6_lEESM_EEESaISP_EE19_M_emplace_back_auxIJSP_EEEvDpOT_@Base 4.2.0
 _ZNSt6vectorISt5arrayItLm4EESaIS1_EE12emplace_backIIS1_EEEvDpOT_@Base 4.2.0
 _ZNSt6vectorISt5arrayItLm4EESaIS1_EE12emplace_backIJS1_EEEvDpOT_@Base 4.2.0
 _ZNSt6vectorISt5arrayItLm4EESaIS1_EE19_M_emplace_back_auxIIS1_EEEvDpOT_@Base 4.2.0
 _ZNSt6vectorISt5arrayItLm4EESaIS1_EE19_M_emplace_back_auxIJS1_EEEvDpOT_@Base 4.2.0
 _ZNSt6vectorISt5dequeIPvSaIS1_EESaIS3_EED1Ev@Base 4.2.0
 _ZNSt6vectorISt5dequeIPvSaIS1_EESaIS3_EED2Ev@Base 4.2.0
 _ZNSt6vectorIaSaIaEE13_M_insert_auxIIRKaEEEvN9__gnu_cxx17__normal_iteratorIPaS1_EEDpOT_@Base 4.2.0
 _ZNSt6vectorIaSaIaEE13_M_insert_auxIJRKaEEEvN9__gnu_cxx17__normal_iteratorIPaS1_EEDpOT_@Base 4.2.0
 _ZNSt6vectorIbSaIbEE13_M_insert_auxESt13_Bit_iteratorb@Base 4.2.0
 _ZNSt6vectorIbSaIbEE14_M_fill_insertESt13_Bit_iteratormb@Base 4.2.0
 _ZNSt6vectorIbSaIbEE15_M_insert_rangeISt19_Bit_const_iteratorEEvSt13_Bit_iteratorT_S5_St20forward_iterator_tag@Base 4.2.0
 _ZNSt6vectorIbSaIbEEaSERKS1_@Base 4.2.0
 _ZNSt6vectorIcN3ue216AlignedAllocatorIcLm64EEEE17_M_default_appendEm@Base 4.2.0
 _ZNSt6vectorIhSaIhEE12emplace_backIIhEEEvDpOT_@Base 4.2.0
 _ZNSt6vectorIhSaIhEE12emplace_backIJhEEEvDpOT_@Base 4.2.0
 _ZNSt6vectorIhSaIhEE14_M_fill_assignEmRKh@Base 4.2.0
 _ZNSt6vectorIhSaIhEE17_M_default_appendEm@Base 4.2.0
 _ZNSt6vectorIhSaIhEE8_M_eraseEN9__gnu_cxx17__normal_iteratorIPhS1_EE@Base 4.2.0
 _ZNSt6vectorIhSaIhEEaSERKS1_@Base 4.2.0
 _ZNSt6vectorIiSaIiEE14_M_fill_assignEmRKi@Base 4.2.0
 _ZNSt6vectorIiSaIiEE17_M_default_appendEm@Base 4.2.0
 _ZNSt6vectorIiSaIiEE19_M_emplace_back_auxIIiEEEvDpOT_@Base 4.2.0
 _ZNSt6vectorIiSaIiEE19_M_emplace_back_auxIJiEEEvDpOT_@Base 4.2.0
 _ZNSt6vectorIiSaIiEE6resizeEm@Base 4.2.0
 _ZNSt6vectorIjSaIjEE12emplace_backIIjEEEvDpOT_@Base 4.2.0
 _ZNSt6vectorIjSaIjEE12emplace_backIJjEEEvDpOT_@Base 4.2.0
 _ZNSt6vectorIjSaIjEE13_M_insert_auxIIRKjEEEvN9__gnu_cxx17__normal_iteratorIPjS1_EEDpOT_@Base 4.2.0
 _ZNSt6vectorIjSaIjEE13_M_insert_auxIIjEEEvN9__gnu_cxx17__normal_iteratorIPjS1_EEDpOT_@Base 4.2.0
 _ZNSt6vectorIjSaIjEE13_M_insert_auxIJRKjEEEvN9__gnu_cxx17__normal_iteratorIPjS1_EEDpOT_@Base 4.2.0
 _ZNSt6vectorIjSaIjEE13_M_insert_auxIJjEEEvN9__gnu_cxx17__normal_iteratorIPjS1_EEDpOT_@Base 4.2.0
 _ZNSt6vectorIjSaIjEE14_M_fill_insertEN9__gnu_cxx17__normal_iteratorIPjS1_EEmRKj@Base 4.2.0
 _ZNSt6vectorIjSaIjEE15_M_range_insertIN3ue211flat_detail12iter_wrapperIN9__gnu_cxx17__normal_iteratorIPKjS1_EES8_EEEEvNS7_IPjS1_EET_SE_St20forward_iterator_tag@Base 4.2.0
 _ZNSt6vectorIjSaIjEE15_M_range_insertIN9__gnu_cxx17__normal_iteratorIPKjS1_EEEEvNS4_IPjS1_EET_SA_St20forward_iterator_tag@Base 4.2.0
 _ZNSt6vectorIjSaIjEE17_M_default_appendEm@Base 4.2.0
 _ZNSt6vectorIjSaIjEE19_M_emplace_back_auxIIRKjEEEvDpOT_@Base 4.2.0
 _ZNSt6vectorIjSaIjEE19_M_emplace_back_auxIIjEEEvDpOT_@Base 4.2.0
 _ZNSt6vectorIjSaIjEE19_M_emplace_back_auxIJRKjEEEvDpOT_@Base 4.2.0
 _ZNSt6vectorIjSaIjEE19_M_emplace_back_auxIJjEEEvDpOT_@Base 4.2.0
 _ZNSt6vectorIjSaIjEE6insertEN9__gnu_cxx17__normal_iteratorIPKjS1_EERS4_@Base 4.2.0
 _ZNSt6vectorIjSaIjEE6resizeEm@Base 4.2.0
 _ZNSt6vectorIjSaIjEE7emplaceIIjEEEN9__gnu_cxx17__normal_iteratorIPjS1_EENS4_IPKjS1_EEDpOT_@Base 4.2.0
 _ZNSt6vectorIjSaIjEE7emplaceIJjEEEN9__gnu_cxx17__normal_iteratorIPjS1_EENS4_IPKjS1_EEDpOT_@Base 4.2.0
 _ZNSt6vectorIjSaIjEE8_M_eraseEN9__gnu_cxx17__normal_iteratorIPjS1_EE@Base 4.2.0
 _ZNSt6vectorIjSaIjEEC1ERKS1_@Base 4.2.0
 _ZNSt6vectorIjSaIjEEC2ERKS1_@Base 4.2.0
 _ZNSt6vectorIjSaIjEEaSERKS1_@Base 4.2.0
 _ZNSt6vectorImSaImEE12emplace_backIImEEEvDpOT_@Base 4.2.0
 _ZNSt6vectorImSaImEE12emplace_backIJmEEEvDpOT_@Base 4.2.0
 _ZNSt6vectorImSaImEE14_M_fill_insertEN9__gnu_cxx17__normal_iteratorIPmS1_EEmRKm@Base 4.2.0
 _ZNSt6vectorImSaImEE17_M_default_appendEm@Base 4.2.0
 _ZNSt6vectorImSaImEE19_M_emplace_back_auxIIRKmEEEvDpOT_@Base 4.2.0
 _ZNSt6vectorImSaImEE19_M_emplace_back_auxIImEEEvDpOT_@Base 4.2.0
 _ZNSt6vectorImSaImEE19_M_emplace_back_auxIJRKmEEEvDpOT_@Base 4.2.0
 _ZNSt6vectorImSaImEE19_M_emplace_back_auxIJmEEEvDpOT_@Base 4.2.0
 _ZNSt6vectorImSaImEEC1ERKS1_@Base 4.2.0
 _ZNSt6vectorImSaImEEC2ERKS1_@Base 4.2.0
 _ZNSt6vectorImSaImEEaSERKS1_@Base 4.2.0
 _ZNSt6vectorItSaItEE12emplace_backIItEEEvDpOT_@Base 4.2.0
 _ZNSt6vectorItSaItEE12emplace_backIJtEEEvDpOT_@Base 4.2.0
 _ZNSt6vectorItSaItEE13_M_insert_auxIIRKtEEEvN9__gnu_cxx17__normal_iteratorIPtS1_EEDpOT_@Base 4.2.0
 _ZNSt6vectorItSaItEE13_M_insert_auxIJRKtEEEvN9__gnu_cxx17__normal_iteratorIPtS1_EEDpOT_@Base 4.2.0
 _ZNSt6vectorItSaItEE15_M_range_insertIN9__gnu_cxx17__normal_iteratorIPKtS1_EEEEvNS4_IPtS1_EET_SA_St20forward_iterator_tag@Base 4.2.0
 _ZNSt6vectorItSaItEE15_M_range_insertIN9__gnu_cxx17__normal_iteratorIPtS1_EEEEvS6_T_S7_St20forward_iterator_tag@Base 4.2.0
 _ZNSt6vectorItSaItEE17_M_default_appendEm@Base 4.2.0
 _ZNSt6vectorItSaItEE19_M_emplace_back_auxIIRKtEEEvDpOT_@Base 4.2.0
 _ZNSt6vectorItSaItEE19_M_emplace_back_auxIItEEEvDpOT_@Base 4.2.0
 _ZNSt6vectorItSaItEE19_M_emplace_back_auxIJRKtEEEvDpOT_@Base 4.2.0
 _ZNSt6vectorItSaItEE19_M_emplace_back_auxIJtEEEvDpOT_@Base 4.2.0
 _ZNSt6vectorItSaItEE6insertEN9__gnu_cxx17__normal_iteratorIPKtS1_EERS4_@Base 4.2.0
 _ZNSt6vectorItSaItEE7reserveEm@Base 4.2.0
 _ZNSt6vectorItSaItEEC1ERKS1_@Base 4.2.0
 _ZNSt6vectorItSaItEEC1EmRKtRKS0_@Base 4.2.0
 _ZNSt6vectorItSaItEEC2ERKS1_@Base 4.2.0
 _ZNSt6vectorItSaItEEC2EmRKtRKS0_@Base 4.2.0
 _ZNSt6vectorItSaItEEaSERKS1_@Base 4.2.0
 _ZNSt6vectorIySaIyEE17_M_default_appendEm@Base 4.2.0
 _ZNSt7__cxx1110_List_baseIN5boost9list_edgeImN3ue214GoughEdgePropsEEESaIS5_EE8_M_clearEv@Base 4.2.0
 _ZNSt7__cxx1115basic_stringbufIcSt11char_traitsIcESaIcEED0Ev@Base 4.2.0
 _ZNSt7__cxx1115basic_stringbufIcSt11char_traitsIcESaIcEED1Ev@Base 4.2.0
 _ZNSt7__cxx1115basic_stringbufIcSt11char_traitsIcESaIcEED2Ev@Base 4.2.0
 _ZNSt8_Rb_treeIN3ue210PureRepeatESt4pairIKS1_S2_ISt10shared_ptrINS0_11CastleProtoEEjEESt10_Select1stIS8_ESt4lessIS1_ESaIS8_EE22_M_emplace_hint_uniqueIIRKSt21piecewise_construct_tSt5tupleIIRS3_EESJ_IIEEEEESt17_Rb_tree_iteratorIS8_ESt23_Rb_tree_const_iteratorIS8_EDpOT_@Base 4.2.0
 _ZNSt8_Rb_treeIN3ue210PureRepeatESt4pairIKS1_S2_ISt10shared_ptrINS0_11CastleProtoEEjEESt10_Select1stIS8_ESt4lessIS1_ESaIS8_EE22_M_emplace_hint_uniqueIJRKSt21piecewise_construct_tSt5tupleIJRS3_EESJ_IJEEEEESt17_Rb_tree_iteratorIS8_ESt23_Rb_tree_const_iteratorIS8_EDpOT_@Base 4.2.0
 _ZNSt8_Rb_treeIN3ue210PureRepeatESt4pairIKS1_S2_ISt10shared_ptrINS0_11CastleProtoEEjEESt10_Select1stIS8_ESt4lessIS1_ESaIS8_EE24_M_get_insert_unique_posERS3_@Base 4.2.0
 _ZNSt8_Rb_treeIN3ue210PureRepeatESt4pairIKS1_S2_ISt10shared_ptrINS0_11CastleProtoEEjEESt10_Select1stIS8_ESt4lessIS1_ESaIS8_EE29_M_get_insert_hint_unique_posESt23_Rb_tree_const_iteratorIS8_ERS3_@Base 4.2.0
 _ZNSt8_Rb_treeIN3ue210PureRepeatESt4pairIKS1_S2_ISt10shared_ptrINS0_11CastleProtoEEjEESt10_Select1stIS8_ESt4lessIS1_ESaIS8_EE8_M_eraseEPSt13_Rb_tree_nodeIS8_E@Base 4.2.0
 _ZNSt8_Rb_treeIN3ue210som_reportES1_St9_IdentityIS1_ESt4lessIS1_ESaIS1_EE11equal_rangeERKS1_@Base 4.2.0
 _ZNSt8_Rb_treeIN3ue210som_reportES1_St9_IdentityIS1_ESt4lessIS1_ESaIS1_EE16_M_insert_uniqueIS1_EESt4pairISt17_Rb_tree_iteratorIS1_EbEOT_@Base 4.2.0
 _ZNSt8_Rb_treeIN3ue210som_reportES1_St9_IdentityIS1_ESt4lessIS1_ESaIS1_EE7_M_copyINS7_11_Alloc_nodeEEEPSt13_Rb_tree_nodeIS1_EPKSB_SC_RT_@Base 4.2.0
 _ZNSt8_Rb_treeIN3ue210som_reportES1_St9_IdentityIS1_ESt4lessIS1_ESaIS1_EE8_M_eraseEPSt13_Rb_tree_nodeIS1_E@Base 4.2.0
 _ZNSt8_Rb_treeIN3ue210som_reportES1_St9_IdentityIS1_ESt4lessIS1_ESaIS1_EEC1ERKS7_@Base 4.2.0
 _ZNSt8_Rb_treeIN3ue210som_reportES1_St9_IdentityIS1_ESt4lessIS1_ESaIS1_EEC2ERKS7_@Base 4.2.0
 _ZNSt8_Rb_treeIN3ue211ue2_literalES1_St9_IdentityIS1_ESt4lessIS1_ESaIS1_EE10_M_insert_IRKS1_NS7_11_Alloc_nodeEEESt17_Rb_tree_iteratorIS1_EPSt18_Rb_tree_node_baseSF_OT_RT0_@Base 4.2.0
 _ZNSt8_Rb_treeIN3ue211ue2_literalES1_St9_IdentityIS1_ESt4lessIS1_ESaIS1_EE16_M_insert_uniqueIRKS1_EESt4pairISt17_Rb_tree_iteratorIS1_EbEOT_@Base 4.2.0
 _ZNSt8_Rb_treeIN3ue211ue2_literalES1_St9_IdentityIS1_ESt4lessIS1_ESaIS1_EE17_M_construct_nodeIIRKS1_EEEvPSt13_Rb_tree_nodeIS1_EDpOT_@Base 4.2.0
 _ZNSt8_Rb_treeIN3ue211ue2_literalES1_St9_IdentityIS1_ESt4lessIS1_ESaIS1_EE17_M_construct_nodeIJRKS1_EEEvPSt13_Rb_tree_nodeIS1_EDpOT_@Base 4.2.0
 _ZNSt8_Rb_treeIN3ue211ue2_literalES1_St9_IdentityIS1_ESt4lessIS1_ESaIS1_EE24_M_get_insert_unique_posERKS1_@Base 4.2.0
 _ZNSt8_Rb_treeIN3ue211ue2_literalES1_St9_IdentityIS1_ESt4lessIS1_ESaIS1_EE29_M_get_insert_hint_unique_posESt23_Rb_tree_const_iteratorIS1_ERKS1_@Base 4.2.0
 _ZNSt8_Rb_treeIN3ue211ue2_literalES1_St9_IdentityIS1_ESt4lessIS1_ESaIS1_EE7_M_copyINS7_11_Alloc_nodeEEEPSt13_Rb_tree_nodeIS1_EPKSB_SC_RT_@Base 4.2.0
 _ZNSt8_Rb_treeIN3ue211ue2_literalES1_St9_IdentityIS1_ESt4lessIS1_ESaIS1_EE7_M_copyINS7_20_Reuse_or_alloc_nodeEEEPSt13_Rb_tree_nodeIS1_EPKSB_SC_RT_@Base 4.2.0
 _ZNSt8_Rb_treeIN3ue211ue2_literalES1_St9_IdentityIS1_ESt4lessIS1_ESaIS1_EE8_M_eraseEPSt13_Rb_tree_nodeIS1_E@Base 4.2.0
 _ZNSt8_Rb_treeIN3ue211ue2_literalESt4pairIKS1_NS0_8flat_setIjSt4lessIjESaIjEEEESt10_Select1stIS9_ES5_IS1_ESaIS9_EE22_M_emplace_hint_uniqueIIRKSt21piecewise_construct_tSt5tupleIIOS1_EESJ_IIEEEEESt17_Rb_tree_iteratorIS9_ESt23_Rb_tree_const_iteratorIS9_EDpOT_@Base 4.2.0
 _ZNSt8_Rb_treeIN3ue211ue2_literalESt4pairIKS1_NS0_8flat_setIjSt4lessIjESaIjEEEESt10_Select1stIS9_ES5_IS1_ESaIS9_EE22_M_emplace_hint_uniqueIJRKSt21piecewise_construct_tSt5tupleIJOS1_EESJ_IJEEEEESt17_Rb_tree_iteratorIS9_ESt23_Rb_tree_const_iteratorIS9_EDpOT_@Base 4.2.0
 _ZNSt8_Rb_treeIN3ue211ue2_literalESt4pairIKS1_NS0_8flat_setIjSt4lessIjESaIjEEEESt10_Select1stIS9_ES5_IS1_ESaIS9_EE24_M_get_insert_unique_posERS3_@Base 4.2.0
 _ZNSt8_Rb_treeIN3ue211ue2_literalESt4pairIKS1_NS0_8flat_setIjSt4lessIjESaIjEEEESt10_Select1stIS9_ES5_IS1_ESaIS9_EE29_M_get_insert_hint_unique_posESt23_Rb_tree_const_iteratorIS9_ERS3_@Base 4.2.0
 _ZNSt8_Rb_treeIN3ue211ue2_literalESt4pairIKS1_NS0_8flat_setIjSt4lessIjESaIjEEEESt10_Select1stIS9_ES5_IS1_ESaIS9_EE8_M_eraseEPSt13_Rb_tree_nodeIS9_E@Base 4.2.0
 _ZNSt8_Rb_treeIN3ue213gough_edge_idESt4pairIKS1_St6vectorI9gough_insSaIS5_EEESt10_Select1stIS8_ESt4lessIS1_ESaIS8_EE11equal_rangeERS3_@Base 4.2.0
 _ZNSt8_Rb_treeIN3ue213gough_edge_idESt4pairIKS1_St6vectorI9gough_insSaIS5_EEESt10_Select1stIS8_ESt4lessIS1_ESaIS8_EE22_M_emplace_hint_uniqueIIRKSt21piecewise_construct_tSt5tupleIIOS1_EESJ_IIEEEEESt17_Rb_tree_iteratorIS8_ESt23_Rb_tree_const_iteratorIS8_EDpOT_@Base 4.2.0
 _ZNSt8_Rb_treeIN3ue213gough_edge_idESt4pairIKS1_St6vectorI9gough_insSaIS5_EEESt10_Select1stIS8_ESt4lessIS1_ESaIS8_EE22_M_emplace_hint_uniqueIJRKSt21piecewise_construct_tSt5tupleIJOS1_EESJ_IJEEEEESt17_Rb_tree_iteratorIS8_ESt23_Rb_tree_const_iteratorIS8_EDpOT_@Base 4.2.0
 _ZNSt8_Rb_treeIN3ue213gough_edge_idESt4pairIKS1_St6vectorI9gough_insSaIS5_EEESt10_Select1stIS8_ESt4lessIS1_ESaIS8_EE24_M_get_insert_unique_posERS3_@Base 4.2.0
 _ZNSt8_Rb_treeIN3ue213gough_edge_idESt4pairIKS1_St6vectorI9gough_insSaIS5_EEESt10_Select1stIS8_ESt4lessIS1_ESaIS8_EE29_M_get_insert_hint_unique_posESt23_Rb_tree_const_iteratorIS8_ERS3_@Base 4.2.0
 _ZNSt8_Rb_treeIN3ue213gough_edge_idESt4pairIKS1_St6vectorI9gough_insSaIS5_EEESt10_Select1stIS8_ESt4lessIS1_ESaIS8_EE8_M_eraseEPSt13_Rb_tree_nodeIS8_E@Base 4.2.0
 _ZNSt8_Rb_treeIN3ue218rose_literal_tableESt4pairIKS1_mESt10_Select1stIS4_ESt4lessIS1_ESaIS4_EE22_M_emplace_hint_uniqueIIRKSt21piecewise_construct_tSt5tupleIIRS3_EESF_IIEEEEESt17_Rb_tree_iteratorIS4_ESt23_Rb_tree_const_iteratorIS4_EDpOT_@Base 4.2.0
 _ZNSt8_Rb_treeIN3ue218rose_literal_tableESt4pairIKS1_mESt10_Select1stIS4_ESt4lessIS1_ESaIS4_EE22_M_emplace_hint_uniqueIJRKSt21piecewise_construct_tSt5tupleIJRS3_EESF_IJEEEEESt17_Rb_tree_iteratorIS4_ESt23_Rb_tree_const_iteratorIS4_EDpOT_@Base 4.2.0
 _ZNSt8_Rb_treeIN3ue218rose_literal_tableESt4pairIKS1_mESt10_Select1stIS4_ESt4lessIS1_ESaIS4_EE24_M_get_insert_unique_posERS3_@Base 4.2.0
 _ZNSt8_Rb_treeIN3ue218rose_literal_tableESt4pairIKS1_mESt10_Select1stIS4_ESt4lessIS1_ESaIS4_EE29_M_get_insert_hint_unique_posESt23_Rb_tree_const_iteratorIS4_ERS3_@Base 4.2.0
 _ZNSt8_Rb_treeIN3ue218rose_literal_tableESt4pairIKS1_mESt10_Select1stIS4_ESt4lessIS1_ESaIS4_EE8_M_eraseEPSt13_Rb_tree_nodeIS4_E@Base 4.2.0
 _ZNSt8_Rb_treeIN3ue220simple_anchored_infoESt4pairIKS1_St3setIjSt4lessIjESaIjEEESt10_Select1stIS9_ES5_IS1_ESaIS9_EE22_M_emplace_hint_uniqueIIRKSt21piecewise_construct_tSt5tupleIIOS1_EESJ_IIEEEEESt17_Rb_tree_iteratorIS9_ESt23_Rb_tree_const_iteratorIS9_EDpOT_@Base 4.2.0
 _ZNSt8_Rb_treeIN3ue220simple_anchored_infoESt4pairIKS1_St3setIjSt4lessIjESaIjEEESt10_Select1stIS9_ES5_IS1_ESaIS9_EE22_M_emplace_hint_uniqueIJRKSt21piecewise_construct_tSt5tupleIJOS1_EESJ_IJEEEEESt17_Rb_tree_iteratorIS9_ESt23_Rb_tree_const_iteratorIS9_EDpOT_@Base 4.2.0
 _ZNSt8_Rb_treeIN3ue220simple_anchored_infoESt4pairIKS1_St3setIjSt4lessIjESaIjEEESt10_Select1stIS9_ES5_IS1_ESaIS9_EE24_M_get_insert_unique_posERS3_@Base 4.2.0
 _ZNSt8_Rb_treeIN3ue220simple_anchored_infoESt4pairIKS1_St3setIjSt4lessIjESaIjEEESt10_Select1stIS9_ES5_IS1_ESaIS9_EE29_M_get_insert_hint_unique_posESt23_Rb_tree_const_iteratorIS9_ERS3_@Base 4.2.0
 _ZNSt8_Rb_treeIN3ue220simple_anchored_infoESt4pairIKS1_St3setIjSt4lessIjESaIjEEESt10_Select1stIS9_ES5_IS1_ESaIS9_EE8_M_eraseEPSt13_Rb_tree_nodeIS9_E@Base 4.2.0
 _ZNSt8_Rb_treeIN3ue25depthESt4pairIKS1_St6vectorIN5boost6detail14edge_desc_implINS5_17bidirectional_tagEPvEESaISA_EEESt10_Select1stISD_ESt4lessIS1_ESaISD_EE24_M_get_insert_unique_posERS3_@Base 4.2.0
 _ZNSt8_Rb_treeIN3ue25depthESt4pairIKS1_St6vectorIN5boost6detail14edge_desc_implINS5_17bidirectional_tagEPvEESaISA_EEESt10_Select1stISD_ESt4lessIS1_ESaISD_EE29_M_get_insert_hint_unique_posESt23_Rb_tree_const_iteratorISD_ERS3_@Base 4.2.0
 _ZNSt8_Rb_treeIN3ue25depthESt4pairIKS1_St6vectorIN5boost6detail14edge_desc_implINS5_17bidirectional_tagEPvEESaISA_EEESt10_Select1stISD_ESt4lessIS1_ESaISD_EE8_M_eraseEPSt13_Rb_tree_nodeISD_E@Base 4.2.0
 _ZNSt8_Rb_treeIN3ue26ReportESt4pairIKS1_mESt10_Select1stIS4_ESt4lessIS1_ESaIS4_EE24_M_get_insert_unique_posERS3_@Base 4.2.0
 _ZNSt8_Rb_treeIN3ue26ReportESt4pairIKS1_mESt10_Select1stIS4_ESt4lessIS1_ESaIS4_EE29_M_get_insert_hint_unique_posESt23_Rb_tree_const_iteratorIS4_ERS3_@Base 4.2.0
 _ZNSt8_Rb_treeIN3ue26ReportESt4pairIKS1_mESt10_Select1stIS4_ESt4lessIS1_ESaIS4_EE8_M_eraseEPSt13_Rb_tree_nodeIS4_E@Base 4.2.0
 _ZNSt8_Rb_treeIN3ue27left_idES1_St9_IdentityIS1_ESt4lessIS1_ESaIS1_EE16_M_insert_uniqueISt15_Deque_iteratorIS1_RS1_PS1_EEEvT_SD_@Base 4.2.0
 _ZNSt8_Rb_treeIN3ue27left_idES1_St9_IdentityIS1_ESt4lessIS1_ESaIS1_EE24_M_get_insert_unique_posERKS1_@Base 4.2.0
 _ZNSt8_Rb_treeIN3ue27left_idES1_St9_IdentityIS1_ESt4lessIS1_ESaIS1_EE29_M_get_insert_hint_unique_posESt23_Rb_tree_const_iteratorIS1_ERKS1_@Base 4.2.0
 _ZNSt8_Rb_treeIN3ue27left_idES1_St9_IdentityIS1_ESt4lessIS1_ESaIS1_EE8_M_eraseEPSt13_Rb_tree_nodeIS1_E@Base 4.2.0
 _ZNSt8_Rb_treeIN3ue27left_idESt4pairIKS1_St6vectorIPvSaIS5_EEESt10_Select1stIS8_ESt4lessIS1_ESaIS8_EE22_M_emplace_hint_uniqueIIRKSt21piecewise_construct_tSt5tupleIIOS1_EESJ_IIEEEEESt17_Rb_tree_iteratorIS8_ESt23_Rb_tree_const_iteratorIS8_EDpOT_@Base 4.2.0
 _ZNSt8_Rb_treeIN3ue27left_idESt4pairIKS1_St6vectorIPvSaIS5_EEESt10_Select1stIS8_ESt4lessIS1_ESaIS8_EE22_M_emplace_hint_uniqueIJRKSt21piecewise_construct_tSt5tupleIJOS1_EESJ_IJEEEEESt17_Rb_tree_iteratorIS8_ESt23_Rb_tree_const_iteratorIS8_EDpOT_@Base 4.2.0
 _ZNSt8_Rb_treeIN3ue27left_idESt4pairIKS1_St6vectorIPvSaIS5_EEESt10_Select1stIS8_ESt4lessIS1_ESaIS8_EE24_M_get_insert_unique_posERS3_@Base 4.2.0
 _ZNSt8_Rb_treeIN3ue27left_idESt4pairIKS1_St6vectorIPvSaIS5_EEESt10_Select1stIS8_ESt4lessIS1_ESaIS8_EE29_M_get_insert_hint_unique_posESt23_Rb_tree_const_iteratorIS8_ERS3_@Base 4.2.0
 _ZNSt8_Rb_treeIN3ue27left_idESt4pairIKS1_St6vectorIPvSaIS5_EEESt10_Select1stIS8_ESt4lessIS1_ESaIS8_EE8_M_eraseEPSt13_Rb_tree_nodeIS8_E@Base 4.2.0
 _ZNSt8_Rb_treeIN3ue28flat_setIjSt4lessIjESaIjEEESt4pairIKS5_St6vectorIjS4_EESt10_Select1stISA_ES2_IS5_ESaISA_EE22_M_emplace_hint_uniqueIIRKSt21piecewise_construct_tSt5tupleIIRS7_EESK_IIEEEEESt17_Rb_tree_iteratorISA_ESt23_Rb_tree_const_iteratorISA_EDpOT_@Base 4.2.0
 _ZNSt8_Rb_treeIN3ue28flat_setIjSt4lessIjESaIjEEESt4pairIKS5_St6vectorIjS4_EESt10_Select1stISA_ES2_IS5_ESaISA_EE22_M_emplace_hint_uniqueIJRKSt21piecewise_construct_tSt5tupleIJRS7_EESK_IJEEEEESt17_Rb_tree_iteratorISA_ESt23_Rb_tree_const_iteratorISA_EDpOT_@Base 4.2.0
 _ZNSt8_Rb_treeIN3ue28flat_setIjSt4lessIjESaIjEEESt4pairIKS5_St6vectorIjS4_EESt10_Select1stISA_ES2_IS5_ESaISA_EE24_M_get_insert_unique_posERS7_@Base 4.2.0
 _ZNSt8_Rb_treeIN3ue28flat_setIjSt4lessIjESaIjEEESt4pairIKS5_St6vectorIjS4_EESt10_Select1stISA_ES2_IS5_ESaISA_EE29_M_get_insert_hint_unique_posESt23_Rb_tree_const_iteratorISA_ERS7_@Base 4.2.0
 _ZNSt8_Rb_treeIN3ue28flat_setIjSt4lessIjESaIjEEESt4pairIKS5_St6vectorIjS4_EESt10_Select1stISA_ES2_IS5_ESaISA_EE8_M_eraseEPSt13_Rb_tree_nodeISA_E@Base 4.2.0
 _ZNSt8_Rb_treeIN3ue29CharReachES1_St9_IdentityIS1_ESt4lessIS1_ESaIS1_EE8_M_eraseEPSt13_Rb_tree_nodeIS1_E@Base 4.2.0
 _ZNSt8_Rb_treeIN3ue29CharReachESt4pairIKS1_S1_ESt10_Select1stIS4_ESt4lessIS1_ESaIS4_EE24_M_get_insert_unique_posERS3_@Base 4.2.0
 _ZNSt8_Rb_treeIN3ue29CharReachESt4pairIKS1_S1_ESt10_Select1stIS4_ESt4lessIS1_ESaIS4_EE29_M_get_insert_hint_unique_posESt23_Rb_tree_const_iteratorIS4_ERS3_@Base 4.2.0
 _ZNSt8_Rb_treeIN3ue29CharReachESt4pairIKS1_S1_ESt10_Select1stIS4_ESt4lessIS1_ESaIS4_EE8_M_eraseEPSt13_Rb_tree_nodeIS4_E@Base 4.2.0
 _ZNSt8_Rb_treeIN3ue29CharReachESt4pairIKS1_St3setIjSt4lessIjESaIjEEESt10_Select1stIS9_ES5_IS1_ESaIS9_EE22_M_emplace_hint_uniqueIIRKSt21piecewise_construct_tSt5tupleIIRS3_EESJ_IIEEEEESt17_Rb_tree_iteratorIS9_ESt23_Rb_tree_const_iteratorIS9_EDpOT_@Base 4.2.0
 _ZNSt8_Rb_treeIN3ue29CharReachESt4pairIKS1_St3setIjSt4lessIjESaIjEEESt10_Select1stIS9_ES5_IS1_ESaIS9_EE22_M_emplace_hint_uniqueIJRKSt21piecewise_construct_tSt5tupleIJRS3_EESJ_IJEEEEESt17_Rb_tree_iteratorIS9_ESt23_Rb_tree_const_iteratorIS9_EDpOT_@Base 4.2.0
 _ZNSt8_Rb_treeIN3ue29CharReachESt4pairIKS1_St3setIjSt4lessIjESaIjEEESt10_Select1stIS9_ES5_IS1_ESaIS9_EE24_M_get_insert_unique_posERS3_@Base 4.2.0
 _ZNSt8_Rb_treeIN3ue29CharReachESt4pairIKS1_St3setIjSt4lessIjESaIjEEESt10_Select1stIS9_ES5_IS1_ESaIS9_EE29_M_get_insert_hint_unique_posESt23_Rb_tree_const_iteratorIS9_ERS3_@Base 4.2.0
 _ZNSt8_Rb_treeIN3ue29CharReachESt4pairIKS1_St3setIjSt4lessIjESaIjEEESt10_Select1stIS9_ES5_IS1_ESaIS9_EE8_M_eraseEPSt13_Rb_tree_nodeIS9_E@Base 4.2.0
 _ZNSt8_Rb_treeIN3ue29CharReachESt4pairIKS1_St6vectorISt10shared_ptrINS0_11CastleProtoEESaIS7_EEESt10_Select1stISA_ESt4lessIS1_ESaISA_EE22_M_emplace_hint_uniqueIIRKSt21piecewise_construct_tSt5tupleIIRS3_EESL_IIEEEEESt17_Rb_tree_iteratorISA_ESt23_Rb_tree_const_iteratorISA_EDpOT_@Base 4.2.0
 _ZNSt8_Rb_treeIN3ue29CharReachESt4pairIKS1_St6vectorISt10shared_ptrINS0_11CastleProtoEESaIS7_EEESt10_Select1stISA_ESt4lessIS1_ESaISA_EE22_M_emplace_hint_uniqueIJRKSt21piecewise_construct_tSt5tupleIJRS3_EESL_IJEEEEESt17_Rb_tree_iteratorISA_ESt23_Rb_tree_const_iteratorISA_EDpOT_@Base 4.2.0
 _ZNSt8_Rb_treeIN3ue29CharReachESt4pairIKS1_St6vectorISt10shared_ptrINS0_11CastleProtoEESaIS7_EEESt10_Select1stISA_ESt4lessIS1_ESaISA_EE24_M_get_insert_unique_posERS3_@Base 4.2.0
 _ZNSt8_Rb_treeIN3ue29CharReachESt4pairIKS1_St6vectorISt10shared_ptrINS0_11CastleProtoEESaIS7_EEESt10_Select1stISA_ESt4lessIS1_ESaISA_EE29_M_get_insert_hint_unique_posESt23_Rb_tree_const_iteratorISA_ERS3_@Base 4.2.0
 _ZNSt8_Rb_treeIN3ue29CharReachESt4pairIKS1_St6vectorISt10shared_ptrINS0_11CastleProtoEESaIS7_EEESt10_Select1stISA_ESt4lessIS1_ESaISA_EE8_M_eraseEPSt13_Rb_tree_nodeISA_E@Base 4.2.0
 _ZNSt8_Rb_treeIN3ue29suffix_idES1_St9_IdentityIS1_ESt4lessIS1_ESaIS1_EE10_M_insert_IRKS1_NS7_11_Alloc_nodeEEESt17_Rb_tree_iteratorIS1_EPSt18_Rb_tree_node_baseSF_OT_RT0_@Base 4.2.0
 _ZNSt8_Rb_treeIN3ue29suffix_idES1_St9_IdentityIS1_ESt4lessIS1_ESaIS1_EE16_M_insert_uniqueIRKS1_EESt4pairISt17_Rb_tree_iteratorIS1_EbEOT_@Base 4.2.0
 _ZNSt8_Rb_treeIN3ue29suffix_idES1_St9_IdentityIS1_ESt4lessIS1_ESaIS1_EE16_M_insert_uniqueISt15_Deque_iteratorIS1_RS1_PS1_EEEvT_SD_@Base 4.2.0
 _ZNSt8_Rb_treeIN3ue29suffix_idES1_St9_IdentityIS1_ESt4lessIS1_ESaIS1_EE24_M_get_insert_unique_posERKS1_@Base 4.2.0
 _ZNSt8_Rb_treeIN3ue29suffix_idES1_St9_IdentityIS1_ESt4lessIS1_ESaIS1_EE29_M_get_insert_hint_unique_posESt23_Rb_tree_const_iteratorIS1_ERKS1_@Base 4.2.0
 _ZNSt8_Rb_treeIN3ue29suffix_idES1_St9_IdentityIS1_ESt4lessIS1_ESaIS1_EE8_M_eraseEPSt13_Rb_tree_nodeIS1_E@Base 4.2.0
 _ZNSt8_Rb_treeIN3ue29suffix_idESt4pairIKS1_St6vectorIPvSaIS5_EEESt10_Select1stIS8_ESt4lessIS1_ESaIS8_EE22_M_emplace_hint_uniqueIIRKSt21piecewise_construct_tSt5tupleIIOS1_EESJ_IIEEEEESt17_Rb_tree_iteratorIS8_ESt23_Rb_tree_const_iteratorIS8_EDpOT_@Base 4.2.0
 _ZNSt8_Rb_treeIN3ue29suffix_idESt4pairIKS1_St6vectorIPvSaIS5_EEESt10_Select1stIS8_ESt4lessIS1_ESaIS8_EE22_M_emplace_hint_uniqueIJRKSt21piecewise_construct_tSt5tupleIJOS1_EESJ_IJEEEEESt17_Rb_tree_iteratorIS8_ESt23_Rb_tree_const_iteratorIS8_EDpOT_@Base 4.2.0
 _ZNSt8_Rb_treeIN3ue29suffix_idESt4pairIKS1_St6vectorIPvSaIS5_EEESt10_Select1stIS8_ESt4lessIS1_ESaIS8_EE24_M_get_insert_unique_posERS3_@Base 4.2.0
 _ZNSt8_Rb_treeIN3ue29suffix_idESt4pairIKS1_St6vectorIPvSaIS5_EEESt10_Select1stIS8_ESt4lessIS1_ESaIS8_EE29_M_get_insert_hint_unique_posESt23_Rb_tree_const_iteratorIS8_ERS3_@Base 4.2.0
 _ZNSt8_Rb_treeIN3ue29suffix_idESt4pairIKS1_St6vectorIPvSaIS5_EEESt10_Select1stIS8_ESt4lessIS1_ESaIS8_EE8_M_eraseEPSt13_Rb_tree_nodeIS8_E@Base 4.2.0
 _ZNSt8_Rb_treeIN3ue29suffix_idESt4pairIKS1_jESt10_Select1stIS4_ESt4lessIS1_ESaIS4_EE17_M_emplace_uniqueIIRS3_RjEEES2_ISt17_Rb_tree_iteratorIS4_EbEDpOT_@Base 4.2.0
 _ZNSt8_Rb_treeIN3ue29suffix_idESt4pairIKS1_jESt10_Select1stIS4_ESt4lessIS1_ESaIS4_EE17_M_emplace_uniqueIJRS3_RjEEES2_ISt17_Rb_tree_iteratorIS4_EbEDpOT_@Base 4.2.0
 _ZNSt8_Rb_treeIN3ue29suffix_idESt4pairIKS1_jESt10_Select1stIS4_ESt4lessIS1_ESaIS4_EE8_M_eraseEPSt13_Rb_tree_nodeIS4_E@Base 4.2.0
 _ZNSt8_Rb_treeIN5boost14dynamic_bitsetImSaImEEESt4pairIKS3_N3ue29CharReachEESt10_Select1stIS8_ESt4lessIS3_ESaIS8_EE24_M_get_insert_unique_posERS5_@Base 4.2.0
 _ZNSt8_Rb_treeIN5boost14dynamic_bitsetImSaImEEESt4pairIKS3_N3ue29CharReachEESt10_Select1stIS8_ESt4lessIS3_ESaIS8_EE29_M_get_insert_hint_unique_posESt23_Rb_tree_const_iteratorIS8_ERS5_@Base 4.2.0
 _ZNSt8_Rb_treeIN5boost14dynamic_bitsetImSaImEEESt4pairIKS3_N3ue29CharReachEESt10_Select1stIS8_ESt4lessIS3_ESaIS8_EE8_M_eraseEPSt13_Rb_tree_nodeIS8_E@Base 4.2.0
 _ZNSt8_Rb_treeIN5boost14dynamic_bitsetImSaImEEESt4pairIKS3_tESt10_Select1stIS6_ESt4lessIS3_ESaIS6_EE22_M_emplace_hint_uniqueIIRKSt21piecewise_construct_tSt5tupleIIRS5_EESH_IIEEEEESt17_Rb_tree_iteratorIS6_ESt23_Rb_tree_const_iteratorIS6_EDpOT_@Base 4.2.0
 _ZNSt8_Rb_treeIN5boost14dynamic_bitsetImSaImEEESt4pairIKS3_tESt10_Select1stIS6_ESt4lessIS3_ESaIS6_EE22_M_emplace_hint_uniqueIJRKSt21piecewise_construct_tSt5tupleIJRS5_EESH_IJEEEEESt17_Rb_tree_iteratorIS6_ESt23_Rb_tree_const_iteratorIS6_EDpOT_@Base 4.2.0
 _ZNSt8_Rb_treeIN5boost14dynamic_bitsetImSaImEEESt4pairIKS3_tESt10_Select1stIS6_ESt4lessIS3_ESaIS6_EE24_M_get_insert_unique_posERS5_@Base 4.2.0
 _ZNSt8_Rb_treeIN5boost14dynamic_bitsetImSaImEEESt4pairIKS3_tESt10_Select1stIS6_ESt4lessIS3_ESaIS6_EE29_M_get_insert_hint_unique_posESt23_Rb_tree_const_iteratorIS6_ERS5_@Base 4.2.0
 _ZNSt8_Rb_treeIN5boost14dynamic_bitsetImSaImEEESt4pairIKS3_tESt10_Select1stIS6_ESt4lessIS3_ESaIS6_EE8_M_eraseEPSt13_Rb_tree_nodeIS6_E@Base 4.2.0
 _ZNSt8_Rb_treeIN5boost3icl15closed_intervalIjSt4lessEES4_St9_IdentityIS4_ENS1_19exclusive_less_thanIS4_EESaIS4_EE12_M_erase_auxESt23_Rb_tree_const_iteratorIS4_ESC_@Base 4.2.0
 _ZNSt8_Rb_treeIN5boost3icl15closed_intervalIjSt4lessEES4_St9_IdentityIS4_ENS1_19exclusive_less_thanIS4_EESaIS4_EE16_M_insert_uniqueIRKS4_EESt4pairISt17_Rb_tree_iteratorIS4_EbEOT_@Base 4.2.0
 _ZNSt8_Rb_treeIN5boost3icl15closed_intervalIjSt4lessEES4_St9_IdentityIS4_ENS1_19exclusive_less_thanIS4_EESaIS4_EE24_M_get_insert_unique_posERKS4_@Base 4.2.0
 _ZNSt8_Rb_treeIN5boost3icl15closed_intervalIjSt4lessEES4_St9_IdentityIS4_ENS1_19exclusive_less_thanIS4_EESaIS4_EE29_M_get_insert_hint_unique_posESt23_Rb_tree_const_iteratorIS4_ERKS4_@Base 4.2.0
 _ZNSt8_Rb_treeIN5boost3icl15closed_intervalIjSt4lessEES4_St9_IdentityIS4_ENS1_19exclusive_less_thanIS4_EESaIS4_EE7_M_copyINSA_11_Alloc_nodeEEEPSt13_Rb_tree_nodeIS4_EPKSE_SF_RT_@Base 4.2.0
 _ZNSt8_Rb_treeIN5boost3icl15closed_intervalIjSt4lessEES4_St9_IdentityIS4_ENS1_19exclusive_less_thanIS4_EESaIS4_EE8_M_eraseEPSt13_Rb_tree_nodeIS4_E@Base 4.2.0
 _ZNSt8_Rb_treeIN5boost6detail14edge_desc_implINS0_17bidirectional_tagEPvEES5_St9_IdentityIS5_ESt4lessIS5_ESaIS5_EE16_M_insert_uniqueIRKS5_EESt4pairISt17_Rb_tree_iteratorIS5_EbEOT_@Base 4.2.0
 _ZNSt8_Rb_treeIN5boost6detail14edge_desc_implINS0_17bidirectional_tagEPvEES5_St9_IdentityIS5_ESt4lessIS5_ESaIS5_EE24_M_get_insert_unique_posERKS5_@Base 4.2.0
 _ZNSt8_Rb_treeIN5boost6detail14edge_desc_implINS0_17bidirectional_tagEPvEES5_St9_IdentityIS5_ESt4lessIS5_ESaIS5_EE29_M_get_insert_hint_unique_posESt23_Rb_tree_const_iteratorIS5_ERKS5_@Base 4.2.0
 _ZNSt8_Rb_treeIN5boost6detail14edge_desc_implINS0_17bidirectional_tagEPvEES5_St9_IdentityIS5_ESt4lessIS5_ESaIS5_EE5eraseERKS5_@Base 4.2.0
 _ZNSt8_Rb_treeIN5boost6detail14edge_desc_implINS0_17bidirectional_tagEPvEES5_St9_IdentityIS5_ESt4lessIS5_ESaIS5_EE8_M_eraseEPSt13_Rb_tree_nodeIS5_E@Base 4.2.0
 _ZNSt8_Rb_treeIN5boost6detail14edge_desc_implINS0_17bidirectional_tagEPvEESt4pairIKS5_N3ue213RoseEdgePropsEESt10_Select1stISA_ESt4lessIS5_ESaISA_EE24_M_get_insert_unique_posERS7_@Base 4.2.0
 _ZNSt8_Rb_treeIN5boost6detail14edge_desc_implINS0_17bidirectional_tagEPvEESt4pairIKS5_N3ue213RoseEdgePropsEESt10_Select1stISA_ESt4lessIS5_ESaISA_EE29_M_get_insert_hint_unique_posESt23_Rb_tree_const_iteratorISA_ERS7_@Base 4.2.0
 _ZNSt8_Rb_treeIN5boost6detail14edge_desc_implINS0_17bidirectional_tagEPvEESt4pairIKS5_N3ue213RoseEdgePropsEESt10_Select1stISA_ESt4lessIS5_ESaISA_EE8_M_eraseEPSt13_Rb_tree_nodeISA_E@Base 4.2.0
 _ZNSt8_Rb_treeIN5boost6detail14edge_desc_implINS0_17bidirectional_tagEPvEESt4pairIKS5_St3setIN3ue211ue2_literalESt4lessISA_ESaISA_EEESt10_Select1stISF_ESB_IS5_ESaISF_EE22_M_emplace_hint_uniqueIIRKSt21piecewise_construct_tSt5tupleIIRS7_EESP_IIEEEEESt17_Rb_tree_iteratorISF_ESt23_Rb_tree_const_iteratorISF_EDpOT_@Base 4.2.0
 _ZNSt8_Rb_treeIN5boost6detail14edge_desc_implINS0_17bidirectional_tagEPvEESt4pairIKS5_St3setIN3ue211ue2_literalESt4lessISA_ESaISA_EEESt10_Select1stISF_ESB_IS5_ESaISF_EE22_M_emplace_hint_uniqueIJRKSt21piecewise_construct_tSt5tupleIJRS7_EESP_IJEEEEESt17_Rb_tree_iteratorISF_ESt23_Rb_tree_const_iteratorISF_EDpOT_@Base 4.2.0
 _ZNSt8_Rb_treeIN5boost6detail14edge_desc_implINS0_17bidirectional_tagEPvEESt4pairIKS5_St3setIN3ue211ue2_literalESt4lessISA_ESaISA_EEESt10_Select1stISF_ESB_IS5_ESaISF_EE24_M_get_insert_unique_posERS7_@Base 4.2.0
 _ZNSt8_Rb_treeIN5boost6detail14edge_desc_implINS0_17bidirectional_tagEPvEESt4pairIKS5_St3setIN3ue211ue2_literalESt4lessISA_ESaISA_EEESt10_Select1stISF_ESB_IS5_ESaISF_EE29_M_get_insert_hint_unique_posESt23_Rb_tree_const_iteratorISF_ERS7_@Base 4.2.0
 _ZNSt8_Rb_treeIN5boost6detail14edge_desc_implINS0_17bidirectional_tagEPvEESt4pairIKS5_St3setIN3ue211ue2_literalESt4lessISA_ESaISA_EEESt10_Select1stISF_ESB_IS5_ESaISF_EE8_M_eraseEPSt13_Rb_tree_nodeISF_E@Base 4.2.0
 _ZNSt8_Rb_treeIN5boost6detail16stored_edge_iterIPvSt14_List_iteratorINS0_9list_edgeIS3_NS0_11no_propertyEEEES6_EES9_St9_IdentityIS9_ESt4lessIS9_ESaIS9_EE16_M_insert_uniqueIS9_EESt4pairISt17_Rb_tree_iteratorIS9_EbEOT_@Base 4.2.0
 _ZNSt8_Rb_treeIN5boost6detail16stored_edge_iterIPvSt14_List_iteratorINS0_9list_edgeIS3_NS0_11no_propertyEEEES6_EES9_St9_IdentityIS9_ESt4lessIS9_ESaIS9_EE8_M_eraseEPSt13_Rb_tree_nodeIS9_E@Base 4.2.0
 _ZNSt8_Rb_treeIN5boost6detail29reverse_graph_edge_descriptorINS1_14edge_desc_implINS0_17bidirectional_tagEPvEEEES7_St9_IdentityIS7_ESt4lessIS7_ESaIS7_EE8_M_eraseEPSt13_Rb_tree_nodeIS7_E@Base 4.2.0
 _ZNSt8_Rb_treeIP11gough_accelSt4pairIKS1_tESt10_Select1stIS4_ESt4lessIS1_ESaIS4_EE24_M_get_insert_unique_posERS3_@Base 4.2.0
 _ZNSt8_Rb_treeIP11gough_accelSt4pairIKS1_tESt10_Select1stIS4_ESt4lessIS1_ESaIS4_EE29_M_get_insert_hint_unique_posESt23_Rb_tree_const_iteratorIS4_ERS3_@Base 4.2.0
 _ZNSt8_Rb_treeIP11gough_accelSt4pairIKS1_tESt10_Select1stIS4_ESt4lessIS1_ESaIS4_EE8_M_eraseEPSt13_Rb_tree_nodeIS4_E@Base 4.2.0
 _ZNSt8_Rb_treeIPKN3ue210OutfixInfoES3_St9_IdentityIS3_ESt4lessIS3_ESaIS3_EE24_M_get_insert_unique_posERKS3_@Base 4.2.0
 _ZNSt8_Rb_treeIPKN3ue210OutfixInfoES3_St9_IdentityIS3_ESt4lessIS3_ESaIS3_EE29_M_get_insert_hint_unique_posESt23_Rb_tree_const_iteratorIS3_ERKS3_@Base 4.2.0
 _ZNSt8_Rb_treeIPKN3ue210OutfixInfoES3_St9_IdentityIS3_ESt4lessIS3_ESaIS3_EE8_M_eraseEPSt13_Rb_tree_nodeIS3_E@Base 4.2.0
 _ZNSt8_Rb_treeIPKN3ue211GoughSSAVarES3_St9_IdentityIS3_ESt4lessIS3_ESaIS3_EE16_M_insert_uniqueIS3_EESt4pairISt17_Rb_tree_iteratorIS3_EbEOT_@Base 4.2.0
 _ZNSt8_Rb_treeIPKN3ue211GoughSSAVarES3_St9_IdentityIS3_ESt4lessIS3_ESaIS3_EE24_M_get_insert_unique_posERKS3_@Base 4.2.0
 _ZNSt8_Rb_treeIPKN3ue211GoughSSAVarES3_St9_IdentityIS3_ESt4lessIS3_ESaIS3_EE29_M_get_insert_hint_unique_posESt23_Rb_tree_const_iteratorIS3_ERKS3_@Base 4.2.0
 _ZNSt8_Rb_treeIPKN3ue211GoughSSAVarES3_St9_IdentityIS3_ESt4lessIS3_ESaIS3_EE5eraseERKS3_@Base 4.2.0
 _ZNSt8_Rb_treeIPKN3ue211GoughSSAVarES3_St9_IdentityIS3_ESt4lessIS3_ESaIS3_EE8_M_eraseEPSt13_Rb_tree_nodeIS3_E@Base 4.2.0
 _ZNSt8_Rb_treeIPKN3ue211GoughSSAVarESt4pairIKS3_N5boost6detail14edge_desc_implINS6_17bidirectional_tagEmEEESt10_Select1stISB_ESt4lessIS3_ESaISB_EE24_M_get_insert_unique_posERS5_@Base 4.2.0
 _ZNSt8_Rb_treeIPKN3ue211GoughSSAVarESt4pairIKS3_N5boost6detail14edge_desc_implINS6_17bidirectional_tagEmEEESt10_Select1stISB_ESt4lessIS3_ESaISB_EE29_M_get_insert_hint_unique_posESt23_Rb_tree_const_iteratorISB_ERS5_@Base 4.2.0
 _ZNSt8_Rb_treeIPKN3ue211GoughSSAVarESt4pairIKS3_N5boost6detail14edge_desc_implINS6_17bidirectional_tagEmEEESt10_Select1stISB_ESt4lessIS3_ESaISB_EE8_M_eraseEPSt13_Rb_tree_nodeISB_E@Base 4.2.0
 _ZNSt8_Rb_treeIPKN3ue211GoughSSAVarESt4pairIKS3_NSt7__cxx1112basic_stringIcSt11char_traitsIcESaIcEEEESt10_Select1stISC_ESt4lessIS3_ESaISC_EE16_M_insert_uniqueIS4_IS3_SB_EEES4_ISt17_Rb_tree_iteratorISC_EbEOT_@Base 4.2.0
 _ZNSt8_Rb_treeIPKN3ue211GoughSSAVarESt4pairIKS3_NSt7__cxx1112basic_stringIcSt11char_traitsIcESaIcEEEESt10_Select1stISC_ESt4lessIS3_ESaISC_EE22_M_emplace_hint_uniqueIIRKSt21piecewise_construct_tSt5tupleIIRS5_EESN_IIEEEEESt17_Rb_tree_iteratorISC_ESt23_Rb_tree_const_iteratorISC_EDpOT_@Base 4.2.0
 _ZNSt8_Rb_treeIPKN3ue211GoughSSAVarESt4pairIKS3_NSt7__cxx1112basic_stringIcSt11char_traitsIcESaIcEEEESt10_Select1stISC_ESt4lessIS3_ESaISC_EE22_M_emplace_hint_uniqueIJRKSt21piecewise_construct_tSt5tupleIJRS5_EESN_IJEEEEESt17_Rb_tree_iteratorISC_ESt23_Rb_tree_const_iteratorISC_EDpOT_@Base 4.2.0
 _ZNSt8_Rb_treeIPKN3ue211GoughSSAVarESt4pairIKS3_NSt7__cxx1112basic_stringIcSt11char_traitsIcESaIcEEEESt10_Select1stISC_ESt4lessIS3_ESaISC_EE24_M_get_insert_unique_posERS5_@Base 4.2.0
 _ZNSt8_Rb_treeIPKN3ue211GoughSSAVarESt4pairIKS3_NSt7__cxx1112basic_stringIcSt11char_traitsIcESaIcEEEESt10_Select1stISC_ESt4lessIS3_ESaISC_EE29_M_get_insert_hint_unique_posESt23_Rb_tree_const_iteratorISC_ERS5_@Base 4.2.0
 _ZNSt8_Rb_treeIPKN3ue211GoughSSAVarESt4pairIKS3_NSt7__cxx1112basic_stringIcSt11char_traitsIcESaIcEEEESt10_Select1stISC_ESt4lessIS3_ESaISC_EE8_M_eraseEPSt13_Rb_tree_nodeISC_E@Base 4.2.0
 _ZNSt8_Rb_treeIPKN3ue211GoughSSAVarESt4pairIKS3_St3setImSt4lessImESaImEEESt10_Select1stISB_ES7_IS3_ESaISB_EE22_M_emplace_hint_uniqueIIRKSt21piecewise_construct_tSt5tupleIIOS3_EESL_IIEEEEESt17_Rb_tree_iteratorISB_ESt23_Rb_tree_const_iteratorISB_EDpOT_@Base 4.2.0
 _ZNSt8_Rb_treeIPKN3ue211GoughSSAVarESt4pairIKS3_St3setImSt4lessImESaImEEESt10_Select1stISB_ES7_IS3_ESaISB_EE22_M_emplace_hint_uniqueIJRKSt21piecewise_construct_tSt5tupleIJOS3_EESL_IJEEEEESt17_Rb_tree_iteratorISB_ESt23_Rb_tree_const_iteratorISB_EDpOT_@Base 4.2.0
 _ZNSt8_Rb_treeIPKN3ue211GoughSSAVarESt4pairIKS3_St3setImSt4lessImESaImEEESt10_Select1stISB_ES7_IS3_ESaISB_EE24_M_get_insert_unique_posERS5_@Base 4.2.0
 _ZNSt8_Rb_treeIPKN3ue211GoughSSAVarESt4pairIKS3_St3setImSt4lessImESaImEEESt10_Select1stISB_ES7_IS3_ESaISB_EE29_M_get_insert_hint_unique_posESt23_Rb_tree_const_iteratorISB_ERS5_@Base 4.2.0
 _ZNSt8_Rb_treeIPKN3ue211GoughSSAVarESt4pairIKS3_St3setImSt4lessImESaImEEESt10_Select1stISB_ES7_IS3_ESaISB_EE8_M_eraseEPSt13_Rb_tree_nodeISB_E@Base 4.2.0
 _ZNSt8_Rb_treeIPKN3ue211GoughSSAVarESt4pairIKS3_mESt10_Select1stIS6_ESt4lessIS3_ESaIS6_EE22_M_emplace_hint_uniqueIIRKSt21piecewise_construct_tSt5tupleIIOS3_EESH_IIEEEEESt17_Rb_tree_iteratorIS6_ESt23_Rb_tree_const_iteratorIS6_EDpOT_@Base 4.2.0
 _ZNSt8_Rb_treeIPKN3ue211GoughSSAVarESt4pairIKS3_mESt10_Select1stIS6_ESt4lessIS3_ESaIS6_EE22_M_emplace_hint_uniqueIJRKSt21piecewise_construct_tSt5tupleIJOS3_EESH_IJEEEEESt17_Rb_tree_iteratorIS6_ESt23_Rb_tree_const_iteratorIS6_EDpOT_@Base 4.2.0
 _ZNSt8_Rb_treeIPKN3ue211GoughSSAVarESt4pairIKS3_mESt10_Select1stIS6_ESt4lessIS3_ESaIS6_EE24_M_get_insert_unique_posERS5_@Base 4.2.0
 _ZNSt8_Rb_treeIPKN3ue211GoughSSAVarESt4pairIKS3_mESt10_Select1stIS6_ESt4lessIS3_ESaIS6_EE29_M_get_insert_hint_unique_posESt23_Rb_tree_const_iteratorIS6_ERS5_@Base 4.2.0
 _ZNSt8_Rb_treeIPKN3ue211GoughSSAVarESt4pairIKS3_mESt10_Select1stIS6_ESt4lessIS3_ESaIS6_EE8_M_eraseEPSt13_Rb_tree_nodeIS6_E@Base 4.2.0
 _ZNSt8_Rb_treeIPKN3ue28raw_puffES3_St9_IdentityIS3_ESt4lessIS3_ESaIS3_EE16_M_insert_uniqueIS3_EESt4pairISt17_Rb_tree_iteratorIS3_EbEOT_@Base 4.2.0
 _ZNSt8_Rb_treeIPKN3ue28raw_puffES3_St9_IdentityIS3_ESt4lessIS3_ESaIS3_EE24_M_get_insert_unique_posERKS3_@Base 4.2.0
 _ZNSt8_Rb_treeIPKN3ue28raw_puffES3_St9_IdentityIS3_ESt4lessIS3_ESaIS3_EE29_M_get_insert_hint_unique_posESt23_Rb_tree_const_iteratorIS3_ERKS3_@Base 4.2.0
 _ZNSt8_Rb_treeIPKN3ue28raw_puffES3_St9_IdentityIS3_ESt4lessIS3_ESaIS3_EE8_M_eraseEPSt13_Rb_tree_nodeIS3_E@Base 4.2.0
 _ZNSt8_Rb_treeIPN3ue211GoughSSAVarES2_St9_IdentityIS2_ESt4lessIS2_ESaIS2_EE8_M_eraseEPSt13_Rb_tree_nodeIS2_E@Base 4.2.0
 _ZNSt8_Rb_treeIPN3ue211GoughSSAVarESt4pairIKS2_NS0_8flat_setIN5boost6detail14edge_desc_implINS6_17bidirectional_tagEmEESt4lessISA_ESaISA_EEEESt10_Select1stISF_ESB_IS2_ESaISF_EE22_M_emplace_hint_uniqueIIRKSt21piecewise_construct_tSt5tupleIIRS4_EESP_IIEEEEESt17_Rb_tree_iteratorISF_ESt23_Rb_tree_const_iteratorISF_EDpOT_@Base 4.2.0
 _ZNSt8_Rb_treeIPN3ue211GoughSSAVarESt4pairIKS2_NS0_8flat_setIN5boost6detail14edge_desc_implINS6_17bidirectional_tagEmEESt4lessISA_ESaISA_EEEESt10_Select1stISF_ESB_IS2_ESaISF_EE22_M_emplace_hint_uniqueIJRKSt21piecewise_construct_tSt5tupleIJRS4_EESP_IJEEEEESt17_Rb_tree_iteratorISF_ESt23_Rb_tree_const_iteratorISF_EDpOT_@Base 4.2.0
 _ZNSt8_Rb_treeIPN3ue211GoughSSAVarESt4pairIKS2_NS0_8flat_setIN5boost6detail14edge_desc_implINS6_17bidirectional_tagEmEESt4lessISA_ESaISA_EEEESt10_Select1stISF_ESB_IS2_ESaISF_EE24_M_get_insert_unique_posERS4_@Base 4.2.0
 _ZNSt8_Rb_treeIPN3ue211GoughSSAVarESt4pairIKS2_NS0_8flat_setIN5boost6detail14edge_desc_implINS6_17bidirectional_tagEmEESt4lessISA_ESaISA_EEEESt10_Select1stISF_ESB_IS2_ESaISF_EE29_M_get_insert_hint_unique_posESt23_Rb_tree_const_iteratorISF_ERS4_@Base 4.2.0
 _ZNSt8_Rb_treeIPN3ue211GoughSSAVarESt4pairIKS2_NS0_8flat_setIN5boost6detail14edge_desc_implINS6_17bidirectional_tagEmEESt4lessISA_ESaISA_EEEESt10_Select1stISF_ESB_IS2_ESaISF_EE5eraseERS4_@Base 4.2.0
 _ZNSt8_Rb_treeIPN3ue211GoughSSAVarESt4pairIKS2_NS0_8flat_setIN5boost6detail14edge_desc_implINS6_17bidirectional_tagEmEESt4lessISA_ESaISA_EEEESt10_Select1stISF_ESB_IS2_ESaISF_EE8_M_eraseEPSt13_Rb_tree_nodeISF_E@Base 4.2.0
 _ZNSt8_Rb_treeIPN3ue28NGHolderESt4pairIKS2_PvESt10_Select1stIS6_ESt4lessIS2_ESaIS6_EE22_M_emplace_hint_uniqueIIRKSt21piecewise_construct_tSt5tupleIIRS4_EESH_IIEEEEESt17_Rb_tree_iteratorIS6_ESt23_Rb_tree_const_iteratorIS6_EDpOT_@Base 4.2.0
 _ZNSt8_Rb_treeIPN3ue28NGHolderESt4pairIKS2_PvESt10_Select1stIS6_ESt4lessIS2_ESaIS6_EE22_M_emplace_hint_uniqueIJRKSt21piecewise_construct_tSt5tupleIJRS4_EESH_IJEEEEESt17_Rb_tree_iteratorIS6_ESt23_Rb_tree_const_iteratorIS6_EDpOT_@Base 4.2.0
 _ZNSt8_Rb_treeIPN3ue28NGHolderESt4pairIKS2_PvESt10_Select1stIS6_ESt4lessIS2_ESaIS6_EE24_M_get_insert_unique_posERS4_@Base 4.2.0
 _ZNSt8_Rb_treeIPN3ue28NGHolderESt4pairIKS2_PvESt10_Select1stIS6_ESt4lessIS2_ESaIS6_EE29_M_get_insert_hint_unique_posESt23_Rb_tree_const_iteratorIS6_ERS4_@Base 4.2.0
 _ZNSt8_Rb_treeIPN3ue28NGHolderESt4pairIKS2_PvESt10_Select1stIS6_ESt4lessIS2_ESaIS6_EE8_M_eraseEPSt13_Rb_tree_nodeIS6_E@Base 4.2.0
 _ZNSt8_Rb_treeIPN3ue28NGHolderESt4pairIKS2_S2_ESt10_Select1stIS5_ESt4lessIS2_ESaIS5_EE17_M_emplace_uniqueIIS2_S2_EEES3_ISt17_Rb_tree_iteratorIS5_EbEDpOT_@Base 4.2.0
 _ZNSt8_Rb_treeIPN3ue28NGHolderESt4pairIKS2_S2_ESt10_Select1stIS5_ESt4lessIS2_ESaIS5_EE17_M_emplace_uniqueIJS2_S2_EEES3_ISt17_Rb_tree_iteratorIS5_EbEDpOT_@Base 4.2.0
 _ZNSt8_Rb_treeIPN3ue28NGHolderESt4pairIKS2_S2_ESt10_Select1stIS5_ESt4lessIS2_ESaIS5_EE8_M_eraseEPSt13_Rb_tree_nodeIS5_E@Base 4.2.0
 _ZNSt8_Rb_treeIPN3ue28NGHolderESt4pairIKS2_St6vectorIN5boost6detail14edge_desc_implINS6_17bidirectional_tagEPvEESaISB_EEESt10_Select1stISE_ESt4lessIS2_ESaISE_EE14_M_insert_nodeEPSt18_Rb_tree_node_baseSM_PSt13_Rb_tree_nodeISE_E@Base 4.2.0
 _ZNSt8_Rb_treeIPN3ue28NGHolderESt4pairIKS2_St6vectorIN5boost6detail14edge_desc_implINS6_17bidirectional_tagEPvEESaISB_EEESt10_Select1stISE_ESt4lessIS2_ESaISE_EE24_M_get_insert_unique_posERS4_@Base 4.2.0
 _ZNSt8_Rb_treeIPN3ue28NGHolderESt4pairIKS2_St6vectorIN5boost6detail14edge_desc_implINS6_17bidirectional_tagEPvEESaISB_EEESt10_Select1stISE_ESt4lessIS2_ESaISE_EE29_M_get_insert_hint_unique_posESt23_Rb_tree_const_iteratorISE_ERS4_@Base 4.2.0
 _ZNSt8_Rb_treeIPN3ue28NGHolderESt4pairIKS2_St6vectorIN5boost6detail14edge_desc_implINS6_17bidirectional_tagEPvEESaISB_EEESt10_Select1stISE_ESt4lessIS2_ESaISE_EE8_M_eraseEPSt13_Rb_tree_nodeISE_E@Base 4.2.0
 _ZNSt8_Rb_treeIPN3ue28NGHolderESt4pairIKS2_mESt10_Select1stIS5_ESt4lessIS2_ESaIS5_EE22_M_emplace_hint_uniqueIIRKSt21piecewise_construct_tSt5tupleIIOS2_EESG_IIEEEEESt17_Rb_tree_iteratorIS5_ESt23_Rb_tree_const_iteratorIS5_EDpOT_@Base 4.2.0
 _ZNSt8_Rb_treeIPN3ue28NGHolderESt4pairIKS2_mESt10_Select1stIS5_ESt4lessIS2_ESaIS5_EE22_M_emplace_hint_uniqueIIRKSt21piecewise_construct_tSt5tupleIIRS4_EESG_IIEEEEESt17_Rb_tree_iteratorIS5_ESt23_Rb_tree_const_iteratorIS5_EDpOT_@Base 4.2.0
 _ZNSt8_Rb_treeIPN3ue28NGHolderESt4pairIKS2_mESt10_Select1stIS5_ESt4lessIS2_ESaIS5_EE22_M_emplace_hint_uniqueIJRKSt21piecewise_construct_tSt5tupleIJOS2_EESG_IJEEEEESt17_Rb_tree_iteratorIS5_ESt23_Rb_tree_const_iteratorIS5_EDpOT_@Base 4.2.0
 _ZNSt8_Rb_treeIPN3ue28NGHolderESt4pairIKS2_mESt10_Select1stIS5_ESt4lessIS2_ESaIS5_EE22_M_emplace_hint_uniqueIJRKSt21piecewise_construct_tSt5tupleIJRS4_EESG_IJEEEEESt17_Rb_tree_iteratorIS5_ESt23_Rb_tree_const_iteratorIS5_EDpOT_@Base 4.2.0
 _ZNSt8_Rb_treeIPN3ue28NGHolderESt4pairIKS2_mESt10_Select1stIS5_ESt4lessIS2_ESaIS5_EE24_M_get_insert_unique_posERS4_@Base 4.2.0
 _ZNSt8_Rb_treeIPN3ue28NGHolderESt4pairIKS2_mESt10_Select1stIS5_ESt4lessIS2_ESaIS5_EE29_M_get_insert_hint_unique_posESt23_Rb_tree_const_iteratorIS5_ERS4_@Base 4.2.0
 _ZNSt8_Rb_treeIPN3ue28NGHolderESt4pairIKS2_mESt10_Select1stIS5_ESt4lessIS2_ESaIS5_EE8_M_eraseEPSt13_Rb_tree_nodeIS5_E@Base 4.2.0
 _ZNSt8_Rb_treeIPvS0_St9_IdentityIS0_EN3ue215VertexIndexCompESaIS0_EE11equal_rangeERKS0_@Base 4.2.0
 _ZNSt8_Rb_treeIPvS0_St9_IdentityIS0_EN3ue215VertexIndexCompESaIS0_EE12_M_erase_auxESt23_Rb_tree_const_iteratorIS0_E@Base 4.2.0
 _ZNSt8_Rb_treeIPvS0_St9_IdentityIS0_EN3ue215VertexIndexCompESaIS0_EE16_M_insert_uniqueIRKS0_EESt4pairISt17_Rb_tree_iteratorIS0_EbEOT_@Base 4.2.0
 _ZNSt8_Rb_treeIPvS0_St9_IdentityIS0_EN3ue215VertexIndexCompESaIS0_EE5eraseERKS0_@Base 4.2.0
 _ZNSt8_Rb_treeIPvS0_St9_IdentityIS0_EN3ue215VertexIndexCompESaIS0_EE7_M_copyINS6_11_Alloc_nodeEEEPSt13_Rb_tree_nodeIS0_EPKSA_SB_RT_@Base 4.2.0
 _ZNSt8_Rb_treeIPvS0_St9_IdentityIS0_EN3ue215VertexIndexCompESaIS0_EE8_M_eraseEPSt13_Rb_tree_nodeIS0_E@Base 4.2.0
 _ZNSt8_Rb_treeIPvS0_St9_IdentityIS0_EN3ue215VertexIndexCompESaIS0_EEC1ERKS6_@Base 4.2.0
 _ZNSt8_Rb_treeIPvS0_St9_IdentityIS0_EN3ue215VertexIndexCompESaIS0_EEC2ERKS6_@Base 4.2.0
 _ZNSt8_Rb_treeIPvS0_St9_IdentityIS0_EN3ue219VertexIndexOrderingINS3_8NGHolderEEESaIS0_EE24_M_get_insert_unique_posERKS0_@Base 4.2.0
 _ZNSt8_Rb_treeIPvS0_St9_IdentityIS0_EN3ue219VertexIndexOrderingINS3_8NGHolderEEESaIS0_EE29_M_get_insert_hint_unique_posESt23_Rb_tree_const_iteratorIS0_ERKS0_@Base 4.2.0
 _ZNSt8_Rb_treeIPvS0_St9_IdentityIS0_EN3ue219VertexIndexOrderingINS3_8NGHolderEEESaIS0_EE5eraseERKS0_@Base 4.2.0
 _ZNSt8_Rb_treeIPvS0_St9_IdentityIS0_EN3ue219VertexIndexOrderingINS3_8NGHolderEEESaIS0_EE8_M_eraseEPSt13_Rb_tree_nodeIS0_E@Base 4.2.0
 _ZNSt8_Rb_treeIPvS0_St9_IdentityIS0_ESt4lessIS0_ESaIS0_EE16_M_insert_uniqueIRKS0_EESt4pairISt17_Rb_tree_iteratorIS0_EbEOT_@Base 4.2.0
 _ZNSt8_Rb_treeIPvS0_St9_IdentityIS0_ESt4lessIS0_ESaIS0_EE24_M_get_insert_unique_posERKS0_@Base 4.2.0
 _ZNSt8_Rb_treeIPvS0_St9_IdentityIS0_ESt4lessIS0_ESaIS0_EE29_M_get_insert_hint_unique_posESt23_Rb_tree_const_iteratorIS0_ERKS0_@Base 4.2.0
 _ZNSt8_Rb_treeIPvS0_St9_IdentityIS0_ESt4lessIS0_ESaIS0_EE4swapERS6_@Base 4.2.0
 _ZNSt8_Rb_treeIPvS0_St9_IdentityIS0_ESt4lessIS0_ESaIS0_EE5eraseERKS0_@Base 4.2.0
 _ZNSt8_Rb_treeIPvS0_St9_IdentityIS0_ESt4lessIS0_ESaIS0_EE7_M_copyINS6_11_Alloc_nodeEEEPSt13_Rb_tree_nodeIS0_EPKSA_SB_RT_@Base 4.2.0
 _ZNSt8_Rb_treeIPvS0_St9_IdentityIS0_ESt4lessIS0_ESaIS0_EE7_M_copyINS6_20_Reuse_or_alloc_nodeEEEPSt13_Rb_tree_nodeIS0_EPKSA_SB_RT_@Base 4.2.0
 _ZNSt8_Rb_treeIPvS0_St9_IdentityIS0_ESt4lessIS0_ESaIS0_EE8_M_eraseEPSt13_Rb_tree_nodeIS0_E@Base 4.2.0
 _ZNSt8_Rb_treeIPvSt4pairIKS0_N3ue213RoseEdgePropsEESt10_Select1stIS5_ESt4lessIS0_ESaIS5_EE24_M_get_insert_unique_posERS2_@Base 4.2.0
 _ZNSt8_Rb_treeIPvSt4pairIKS0_N3ue213RoseEdgePropsEESt10_Select1stIS5_ESt4lessIS0_ESaIS5_EE29_M_get_insert_hint_unique_posESt23_Rb_tree_const_iteratorIS5_ERS2_@Base 4.2.0
 _ZNSt8_Rb_treeIPvSt4pairIKS0_N3ue213RoseEdgePropsEESt10_Select1stIS5_ESt4lessIS0_ESaIS5_EE8_M_eraseEPSt13_Rb_tree_nodeIS5_E@Base 4.2.0
 _ZNSt8_Rb_treeIPvSt4pairIKS0_N3ue220BoundedRepeatSummaryEESt10_Select1stIS5_ESt4lessIS0_ESaIS5_EE24_M_get_insert_unique_posERS2_@Base 4.2.0
 _ZNSt8_Rb_treeIPvSt4pairIKS0_N3ue220BoundedRepeatSummaryEESt10_Select1stIS5_ESt4lessIS0_ESaIS5_EE29_M_get_insert_hint_unique_posESt23_Rb_tree_const_iteratorIS5_ERS2_@Base 4.2.0
 _ZNSt8_Rb_treeIPvSt4pairIKS0_N3ue220BoundedRepeatSummaryEESt10_Select1stIS5_ESt4lessIS0_ESaIS5_EE8_M_eraseEPSt13_Rb_tree_nodeIS5_E@Base 4.2.0
 _ZNSt8_Rb_treeIPvSt4pairIKS0_N5boost14dynamic_bitsetImSaImEEEESt10_Select1stIS7_ESt4lessIS0_ESaIS7_EE12_M_erase_auxESt23_Rb_tree_const_iteratorIS7_E@Base 4.2.0
 _ZNSt8_Rb_treeIPvSt4pairIKS0_N5boost14dynamic_bitsetImSaImEEEESt10_Select1stIS7_ESt4lessIS0_ESaIS7_EE14_M_insert_nodeEPSt18_Rb_tree_node_baseSF_PSt13_Rb_tree_nodeIS7_E@Base 4.2.0
 _ZNSt8_Rb_treeIPvSt4pairIKS0_N5boost14dynamic_bitsetImSaImEEEESt10_Select1stIS7_ESt4lessIS0_ESaIS7_EE17_M_emplace_uniqueIIRS0_RS6_EEES1_ISt17_Rb_tree_iteratorIS7_EbEDpOT_@Base 4.2.0
 _ZNSt8_Rb_treeIPvSt4pairIKS0_N5boost14dynamic_bitsetImSaImEEEESt10_Select1stIS7_ESt4lessIS0_ESaIS7_EE17_M_emplace_uniqueIJRS0_RS6_EEES1_ISt17_Rb_tree_iteratorIS7_EbEDpOT_@Base 4.2.0
 _ZNSt8_Rb_treeIPvSt4pairIKS0_N5boost14dynamic_bitsetImSaImEEEESt10_Select1stIS7_ESt4lessIS0_ESaIS7_EE22_M_emplace_hint_uniqueIIRKSt21piecewise_construct_tSt5tupleIIRS2_EESI_IIEEEEESt17_Rb_tree_iteratorIS7_ESt23_Rb_tree_const_iteratorIS7_EDpOT_@Base 4.2.0
 _ZNSt8_Rb_treeIPvSt4pairIKS0_N5boost14dynamic_bitsetImSaImEEEESt10_Select1stIS7_ESt4lessIS0_ESaIS7_EE22_M_emplace_hint_uniqueIJRKSt21piecewise_construct_tSt5tupleIJRS2_EESI_IJEEEEESt17_Rb_tree_iteratorIS7_ESt23_Rb_tree_const_iteratorIS7_EDpOT_@Base 4.2.0
 _ZNSt8_Rb_treeIPvSt4pairIKS0_N5boost14dynamic_bitsetImSaImEEEESt10_Select1stIS7_ESt4lessIS0_ESaIS7_EE24_M_get_insert_unique_posERS2_@Base 4.2.0
 _ZNSt8_Rb_treeIPvSt4pairIKS0_N5boost14dynamic_bitsetImSaImEEEESt10_Select1stIS7_ESt4lessIS0_ESaIS7_EE29_M_get_insert_hint_unique_posESt23_Rb_tree_const_iteratorIS7_ERS2_@Base 4.2.0
 _ZNSt8_Rb_treeIPvSt4pairIKS0_N5boost14dynamic_bitsetImSaImEEEESt10_Select1stIS7_ESt4lessIS0_ESaIS7_EE5eraseERS2_@Base 4.2.0
 _ZNSt8_Rb_treeIPvSt4pairIKS0_N5boost14dynamic_bitsetImSaImEEEESt10_Select1stIS7_ESt4lessIS0_ESaIS7_EE8_M_eraseEPSt13_Rb_tree_nodeIS7_E@Base 4.2.0
 _ZNSt8_Rb_treeIPvSt4pairIKS0_N5boost14dynamic_bitsetImSaImEEEESt10_Select1stIS7_ESt4lessIS0_ESaIS7_EEaSEOSD_@Base 4.2.0
 _ZNSt8_Rb_treeIPvSt4pairIKS0_N5boost18default_color_typeEESt10_Select1stIS5_ESt4lessIS0_ESaIS5_EE22_M_emplace_hint_uniqueIIRKSt21piecewise_construct_tSt5tupleIIRS2_EESG_IIEEEEESt17_Rb_tree_iteratorIS5_ESt23_Rb_tree_const_iteratorIS5_EDpOT_@Base 4.2.0
 _ZNSt8_Rb_treeIPvSt4pairIKS0_N5boost18default_color_typeEESt10_Select1stIS5_ESt4lessIS0_ESaIS5_EE22_M_emplace_hint_uniqueIJRKSt21piecewise_construct_tSt5tupleIJRS2_EESG_IJEEEEESt17_Rb_tree_iteratorIS5_ESt23_Rb_tree_const_iteratorIS5_EDpOT_@Base 4.2.0
 _ZNSt8_Rb_treeIPvSt4pairIKS0_N5boost18default_color_typeEESt10_Select1stIS5_ESt4lessIS0_ESaIS5_EE24_M_get_insert_unique_posERS2_@Base 4.2.0
 _ZNSt8_Rb_treeIPvSt4pairIKS0_N5boost18default_color_typeEESt10_Select1stIS5_ESt4lessIS0_ESaIS5_EE29_M_get_insert_hint_unique_posESt23_Rb_tree_const_iteratorIS5_ERS2_@Base 4.2.0
 _ZNSt8_Rb_treeIPvSt4pairIKS0_N5boost18default_color_typeEESt10_Select1stIS5_ESt4lessIS0_ESaIS5_EE8_M_eraseEPSt13_Rb_tree_nodeIS5_E@Base 4.2.0
 _ZNSt8_Rb_treeIPvSt4pairIKS0_N5boost6detail14edge_desc_implINS3_17bidirectional_tagES0_EEESt10_Select1stIS8_ESt4lessIS0_ESaIS8_EE16_M_insert_uniqueIS1_IS0_S7_EEES1_ISt17_Rb_tree_iteratorIS8_EbEOT_@Base 4.2.0
 _ZNSt8_Rb_treeIPvSt4pairIKS0_N5boost6detail14edge_desc_implINS3_17bidirectional_tagES0_EEESt10_Select1stIS8_ESt4lessIS0_ESaIS8_EE8_M_eraseEPSt13_Rb_tree_nodeIS8_E@Base 4.2.0
 _ZNSt8_Rb_treeIPvSt4pairIKS0_S0_ESt10_Select1stIS3_ESt4lessIS0_ESaIS3_EE14_M_insert_nodeEPSt18_Rb_tree_node_baseSB_PSt13_Rb_tree_nodeIS3_E@Base 4.2.0
 _ZNSt8_Rb_treeIPvSt4pairIKS0_S0_ESt10_Select1stIS3_ESt4lessIS0_ESaIS3_EE22_M_emplace_hint_uniqueIIRKSt21piecewise_construct_tSt5tupleIIRS2_EESE_IIEEEEESt17_Rb_tree_iteratorIS3_ESt23_Rb_tree_const_iteratorIS3_EDpOT_@Base 4.2.0
 _ZNSt8_Rb_treeIPvSt4pairIKS0_S0_ESt10_Select1stIS3_ESt4lessIS0_ESaIS3_EE22_M_emplace_hint_uniqueIJRKSt21piecewise_construct_tSt5tupleIJRS2_EESE_IJEEEEESt17_Rb_tree_iteratorIS3_ESt23_Rb_tree_const_iteratorIS3_EDpOT_@Base 4.2.0
 _ZNSt8_Rb_treeIPvSt4pairIKS0_S0_ESt10_Select1stIS3_ESt4lessIS0_ESaIS3_EE24_M_get_insert_unique_posERS2_@Base 4.2.0
 _ZNSt8_Rb_treeIPvSt4pairIKS0_S0_ESt10_Select1stIS3_ESt4lessIS0_ESaIS3_EE29_M_get_insert_hint_unique_posESt23_Rb_tree_const_iteratorIS3_ERS2_@Base 4.2.0
 _ZNSt8_Rb_treeIPvSt4pairIKS0_S0_ESt10_Select1stIS3_ESt4lessIS0_ESaIS3_EE8_M_eraseEPSt13_Rb_tree_nodeIS3_E@Base 4.2.0
 _ZNSt8_Rb_treeIPvSt4pairIKS0_St3setIS0_St4lessIS0_ESaIS0_EEESt10_Select1stIS8_ES5_SaIS8_EE22_M_emplace_hint_uniqueIIRKSt21piecewise_construct_tSt5tupleIIRS2_EESH_IIEEEEESt17_Rb_tree_iteratorIS8_ESt23_Rb_tree_const_iteratorIS8_EDpOT_@Base 4.2.0
 _ZNSt8_Rb_treeIPvSt4pairIKS0_St3setIS0_St4lessIS0_ESaIS0_EEESt10_Select1stIS8_ES5_SaIS8_EE22_M_emplace_hint_uniqueIJRKSt21piecewise_construct_tSt5tupleIJRS2_EESH_IJEEEEESt17_Rb_tree_iteratorIS8_ESt23_Rb_tree_const_iteratorIS8_EDpOT_@Base 4.2.0
 _ZNSt8_Rb_treeIPvSt4pairIKS0_St3setIS0_St4lessIS0_ESaIS0_EEESt10_Select1stIS8_ES5_SaIS8_EE24_M_get_insert_unique_posERS2_@Base 4.2.0
 _ZNSt8_Rb_treeIPvSt4pairIKS0_St3setIS0_St4lessIS0_ESaIS0_EEESt10_Select1stIS8_ES5_SaIS8_EE29_M_get_insert_hint_unique_posESt23_Rb_tree_const_iteratorIS8_ERS2_@Base 4.2.0
 _ZNSt8_Rb_treeIPvSt4pairIKS0_St3setIS0_St4lessIS0_ESaIS0_EEESt10_Select1stIS8_ES5_SaIS8_EE8_M_eraseEPSt13_Rb_tree_nodeIS8_E@Base 4.2.0
 _ZNSt8_Rb_treeIPvSt4pairIKS0_St3setIjSt4lessIjESaIjEEESt10_Select1stIS8_ES4_IS0_ESaIS8_EE24_M_get_insert_unique_posERS2_@Base 4.2.0
 _ZNSt8_Rb_treeIPvSt4pairIKS0_St3setIjSt4lessIjESaIjEEESt10_Select1stIS8_ES4_IS0_ESaIS8_EE29_M_get_insert_hint_unique_posESt23_Rb_tree_const_iteratorIS8_ERS2_@Base 4.2.0
 _ZNSt8_Rb_treeIPvSt4pairIKS0_St3setIjSt4lessIjESaIjEEESt10_Select1stIS8_ES4_IS0_ESaIS8_EE8_M_eraseEPSt13_Rb_tree_nodeIS8_E@Base 4.2.0
 _ZNSt8_Rb_treeIPvSt4pairIKS0_St6vectorIN3ue211ue2_literalESaIS5_EEESt10_Select1stIS8_ESt4lessIS0_ESaIS8_EE22_M_emplace_hint_uniqueIIRKSt21piecewise_construct_tSt5tupleIIRS2_EESJ_IIEEEEESt17_Rb_tree_iteratorIS8_ESt23_Rb_tree_const_iteratorIS8_EDpOT_@Base 4.2.0
 _ZNSt8_Rb_treeIPvSt4pairIKS0_St6vectorIN3ue211ue2_literalESaIS5_EEESt10_Select1stIS8_ESt4lessIS0_ESaIS8_EE22_M_emplace_hint_uniqueIJRKSt21piecewise_construct_tSt5tupleIJRS2_EESJ_IJEEEEESt17_Rb_tree_iteratorIS8_ESt23_Rb_tree_const_iteratorIS8_EDpOT_@Base 4.2.0
 _ZNSt8_Rb_treeIPvSt4pairIKS0_St6vectorIN3ue211ue2_literalESaIS5_EEESt10_Select1stIS8_ESt4lessIS0_ESaIS8_EE24_M_get_insert_unique_posERS2_@Base 4.2.0
 _ZNSt8_Rb_treeIPvSt4pairIKS0_St6vectorIN3ue211ue2_literalESaIS5_EEESt10_Select1stIS8_ESt4lessIS0_ESaIS8_EE29_M_get_insert_hint_unique_posESt23_Rb_tree_const_iteratorIS8_ERS2_@Base 4.2.0
 _ZNSt8_Rb_treeIPvSt4pairIKS0_St6vectorIN3ue211ue2_literalESaIS5_EEESt10_Select1stIS8_ESt4lessIS0_ESaIS8_EE8_M_eraseEPSt13_Rb_tree_nodeIS8_E@Base 4.2.0
 _ZNSt8_Rb_treeIPvSt4pairIKS0_St6vectorIN5boost6detail14edge_desc_implINS4_17bidirectional_tagES0_EESaIS8_EEESt10_Select1stISB_ESt4lessIS0_ESaISB_EE14_M_insert_nodeEPSt18_Rb_tree_node_baseSJ_PSt13_Rb_tree_nodeISB_E@Base 4.2.0
 _ZNSt8_Rb_treeIPvSt4pairIKS0_St6vectorIN5boost6detail14edge_desc_implINS4_17bidirectional_tagES0_EESaIS8_EEESt10_Select1stISB_ESt4lessIS0_ESaISB_EE22_M_emplace_hint_uniqueIIRKSt21piecewise_construct_tSt5tupleIIOS0_EESM_IIEEEEESt17_Rb_tree_iteratorISB_ESt23_Rb_tree_const_iteratorISB_EDpOT_@Base 4.2.0
 _ZNSt8_Rb_treeIPvSt4pairIKS0_St6vectorIN5boost6detail14edge_desc_implINS4_17bidirectional_tagES0_EESaIS8_EEESt10_Select1stISB_ESt4lessIS0_ESaISB_EE22_M_emplace_hint_uniqueIJRKSt21piecewise_construct_tSt5tupleIJOS0_EESM_IJEEEEESt17_Rb_tree_iteratorISB_ESt23_Rb_tree_const_iteratorISB_EDpOT_@Base 4.2.0
 _ZNSt8_Rb_treeIPvSt4pairIKS0_St6vectorIN5boost6detail14edge_desc_implINS4_17bidirectional_tagES0_EESaIS8_EEESt10_Select1stISB_ESt4lessIS0_ESaISB_EE24_M_get_insert_unique_posERS2_@Base 4.2.0
 _ZNSt8_Rb_treeIPvSt4pairIKS0_St6vectorIN5boost6detail14edge_desc_implINS4_17bidirectional_tagES0_EESaIS8_EEESt10_Select1stISB_ESt4lessIS0_ESaISB_EE29_M_get_insert_hint_unique_posESt23_Rb_tree_const_iteratorISB_ERS2_@Base 4.2.0
 _ZNSt8_Rb_treeIPvSt4pairIKS0_St6vectorIN5boost6detail14edge_desc_implINS4_17bidirectional_tagES0_EESaIS8_EEESt10_Select1stISB_ESt4lessIS0_ESaISB_EE8_M_eraseEPSt13_Rb_tree_nodeISB_E@Base 4.2.0
 _ZNSt8_Rb_treeIPvSt4pairIKS0_St6vectorIS0_SaIS0_EEESt10_Select1stIS6_ESt4lessIS0_ESaIS6_EE22_M_emplace_hint_uniqueIIRKSt21piecewise_construct_tSt5tupleIIRS2_EESH_IIEEEEESt17_Rb_tree_iteratorIS6_ESt23_Rb_tree_const_iteratorIS6_EDpOT_@Base 4.2.0
 _ZNSt8_Rb_treeIPvSt4pairIKS0_St6vectorIS0_SaIS0_EEESt10_Select1stIS6_ESt4lessIS0_ESaIS6_EE22_M_emplace_hint_uniqueIJRKSt21piecewise_construct_tSt5tupleIJRS2_EESH_IJEEEEESt17_Rb_tree_iteratorIS6_ESt23_Rb_tree_const_iteratorIS6_EDpOT_@Base 4.2.0
 _ZNSt8_Rb_treeIPvSt4pairIKS0_St6vectorIS0_SaIS0_EEESt10_Select1stIS6_ESt4lessIS0_ESaIS6_EE24_M_get_insert_unique_posERS2_@Base 4.2.0
 _ZNSt8_Rb_treeIPvSt4pairIKS0_St6vectorIS0_SaIS0_EEESt10_Select1stIS6_ESt4lessIS0_ESaIS6_EE29_M_get_insert_hint_unique_posESt23_Rb_tree_const_iteratorIS6_ERS2_@Base 4.2.0
 _ZNSt8_Rb_treeIPvSt4pairIKS0_St6vectorIS0_SaIS0_EEESt10_Select1stIS6_ESt4lessIS0_ESaIS6_EE8_M_eraseEPSt13_Rb_tree_nodeIS6_E@Base 4.2.0
 _ZNSt8_Rb_treeIPvSt4pairIKS0_bESt10_Select1stIS3_ESt4lessIS0_ESaIS3_EE22_M_emplace_hint_uniqueIIRKSt21piecewise_construct_tSt5tupleIIRS2_EESE_IIEEEEESt17_Rb_tree_iteratorIS3_ESt23_Rb_tree_const_iteratorIS3_EDpOT_@Base 4.2.0
 _ZNSt8_Rb_treeIPvSt4pairIKS0_bESt10_Select1stIS3_ESt4lessIS0_ESaIS3_EE22_M_emplace_hint_uniqueIJRKSt21piecewise_construct_tSt5tupleIJRS2_EESE_IJEEEEESt17_Rb_tree_iteratorIS3_ESt23_Rb_tree_const_iteratorIS3_EDpOT_@Base 4.2.0
 _ZNSt8_Rb_treeIPvSt4pairIKS0_bESt10_Select1stIS3_ESt4lessIS0_ESaIS3_EE24_M_get_insert_unique_posERS2_@Base 4.2.0
 _ZNSt8_Rb_treeIPvSt4pairIKS0_bESt10_Select1stIS3_ESt4lessIS0_ESaIS3_EE29_M_get_insert_hint_unique_posESt23_Rb_tree_const_iteratorIS3_ERS2_@Base 4.2.0
 _ZNSt8_Rb_treeIPvSt4pairIKS0_bESt10_Select1stIS3_ESt4lessIS0_ESaIS3_EE8_M_eraseEPSt13_Rb_tree_nodeIS3_E@Base 4.2.0
 _ZNSt8_Rb_treeIPvSt4pairIKS0_jESt10_Select1stIS3_ESt4lessIS0_ESaIS3_EE14_M_insert_nodeEPSt18_Rb_tree_node_baseSB_PSt13_Rb_tree_nodeIS3_E@Base 4.2.0
 _ZNSt8_Rb_treeIPvSt4pairIKS0_jESt10_Select1stIS3_ESt4lessIS0_ESaIS3_EE22_M_emplace_hint_uniqueIIRKSt21piecewise_construct_tSt5tupleIIOS0_EESE_IIEEEEESt17_Rb_tree_iteratorIS3_ESt23_Rb_tree_const_iteratorIS3_EDpOT_@Base 4.2.0
 _ZNSt8_Rb_treeIPvSt4pairIKS0_jESt10_Select1stIS3_ESt4lessIS0_ESaIS3_EE22_M_emplace_hint_uniqueIIRKSt21piecewise_construct_tSt5tupleIIRS2_EESE_IIEEEEESt17_Rb_tree_iteratorIS3_ESt23_Rb_tree_const_iteratorIS3_EDpOT_@Base 4.2.0
 _ZNSt8_Rb_treeIPvSt4pairIKS0_jESt10_Select1stIS3_ESt4lessIS0_ESaIS3_EE22_M_emplace_hint_uniqueIJRKSt21piecewise_construct_tSt5tupleIJOS0_EESE_IJEEEEESt17_Rb_tree_iteratorIS3_ESt23_Rb_tree_const_iteratorIS3_EDpOT_@Base 4.2.0
 _ZNSt8_Rb_treeIPvSt4pairIKS0_jESt10_Select1stIS3_ESt4lessIS0_ESaIS3_EE22_M_emplace_hint_uniqueIJRKSt21piecewise_construct_tSt5tupleIJRS2_EESE_IJEEEEESt17_Rb_tree_iteratorIS3_ESt23_Rb_tree_const_iteratorIS3_EDpOT_@Base 4.2.0
 _ZNSt8_Rb_treeIPvSt4pairIKS0_jESt10_Select1stIS3_ESt4lessIS0_ESaIS3_EE24_M_get_insert_unique_posERS2_@Base 4.2.0
 _ZNSt8_Rb_treeIPvSt4pairIKS0_jESt10_Select1stIS3_ESt4lessIS0_ESaIS3_EE29_M_get_insert_hint_unique_posESt23_Rb_tree_const_iteratorIS3_ERS2_@Base 4.2.0
 _ZNSt8_Rb_treeIPvSt4pairIKS0_jESt10_Select1stIS3_ESt4lessIS0_ESaIS3_EE8_M_eraseEPSt13_Rb_tree_nodeIS3_E@Base 4.2.0
 _ZNSt8_Rb_treeIPvSt4pairIKS0_mESt10_Select1stIS3_ESt4lessIS0_ESaIS3_EE22_M_emplace_hint_uniqueIIRKSt21piecewise_construct_tSt5tupleIIRS2_EESE_IIEEEEESt17_Rb_tree_iteratorIS3_ESt23_Rb_tree_const_iteratorIS3_EDpOT_@Base 4.2.0
 _ZNSt8_Rb_treeIPvSt4pairIKS0_mESt10_Select1stIS3_ESt4lessIS0_ESaIS3_EE22_M_emplace_hint_uniqueIJRKSt21piecewise_construct_tSt5tupleIJRS2_EESE_IJEEEEESt17_Rb_tree_iteratorIS3_ESt23_Rb_tree_const_iteratorIS3_EDpOT_@Base 4.2.0
 _ZNSt8_Rb_treeIPvSt4pairIKS0_mESt10_Select1stIS3_ESt4lessIS0_ESaIS3_EE24_M_get_insert_unique_posERS2_@Base 4.2.0
 _ZNSt8_Rb_treeIPvSt4pairIKS0_mESt10_Select1stIS3_ESt4lessIS0_ESaIS3_EE29_M_get_insert_hint_unique_posESt23_Rb_tree_const_iteratorIS3_ERS2_@Base 4.2.0
 _ZNSt8_Rb_treeIPvSt4pairIKS0_mESt10_Select1stIS3_ESt4lessIS0_ESaIS3_EE8_M_eraseEPSt13_Rb_tree_nodeIS3_E@Base 4.2.0
 _ZNSt8_Rb_treeIPvSt4pairIKS0_yESt10_Select1stIS3_ESt4lessIS0_ESaIS3_EE22_M_emplace_hint_uniqueIIRKSt21piecewise_construct_tSt5tupleIIRS2_EESE_IIEEEEESt17_Rb_tree_iteratorIS3_ESt23_Rb_tree_const_iteratorIS3_EDpOT_@Base 4.2.0
 _ZNSt8_Rb_treeIPvSt4pairIKS0_yESt10_Select1stIS3_ESt4lessIS0_ESaIS3_EE22_M_emplace_hint_uniqueIJRKSt21piecewise_construct_tSt5tupleIJRS2_EESE_IJEEEEESt17_Rb_tree_iteratorIS3_ESt23_Rb_tree_const_iteratorIS3_EDpOT_@Base 4.2.0
 _ZNSt8_Rb_treeIPvSt4pairIKS0_yESt10_Select1stIS3_ESt4lessIS0_ESaIS3_EE24_M_get_insert_unique_posERS2_@Base 4.2.0
 _ZNSt8_Rb_treeIPvSt4pairIKS0_yESt10_Select1stIS3_ESt4lessIS0_ESaIS3_EE29_M_get_insert_hint_unique_posESt23_Rb_tree_const_iteratorIS3_ERS2_@Base 4.2.0
 _ZNSt8_Rb_treeIPvSt4pairIKS0_yESt10_Select1stIS3_ESt4lessIS0_ESaIS3_EE8_M_eraseEPSt13_Rb_tree_nodeIS3_E@Base 4.2.0
 _ZNSt8_Rb_treeISt10shared_ptrIN3ue211CastleProtoEESt4pairIKS3_St6vectorIPvSaIS7_EEESt10_Select1stISA_ESt4lessIS3_ESaISA_EE22_M_emplace_hint_uniqueIIRKSt21piecewise_construct_tSt5tupleIIRS5_EESL_IIEEEEESt17_Rb_tree_iteratorISA_ESt23_Rb_tree_const_iteratorISA_EDpOT_@Base 4.2.0
 _ZNSt8_Rb_treeISt10shared_ptrIN3ue211CastleProtoEESt4pairIKS3_St6vectorIPvSaIS7_EEESt10_Select1stISA_ESt4lessIS3_ESaISA_EE22_M_emplace_hint_uniqueIJRKSt21piecewise_construct_tSt5tupleIJRS5_EESL_IJEEEEESt17_Rb_tree_iteratorISA_ESt23_Rb_tree_const_iteratorISA_EDpOT_@Base 4.2.0
 _ZNSt8_Rb_treeISt10shared_ptrIN3ue211CastleProtoEESt4pairIKS3_St6vectorIPvSaIS7_EEESt10_Select1stISA_ESt4lessIS3_ESaISA_EE24_M_get_insert_unique_posERS5_@Base 4.2.0
 _ZNSt8_Rb_treeISt10shared_ptrIN3ue211CastleProtoEESt4pairIKS3_St6vectorIPvSaIS7_EEESt10_Select1stISA_ESt4lessIS3_ESaISA_EE29_M_get_insert_hint_unique_posESt23_Rb_tree_const_iteratorISA_ERS5_@Base 4.2.0
 _ZNSt8_Rb_treeISt10shared_ptrIN3ue211CastleProtoEESt4pairIKS3_St6vectorIPvSaIS7_EEESt10_Select1stISA_ESt4lessIS3_ESaISA_EE8_M_eraseEPSt13_Rb_tree_nodeISA_E@Base 4.2.0
 _ZNSt8_Rb_treeISt4pairIN3ue28flat_setIjSt4lessIjESaIjEEENS1_14RoseSuffixInfoEES0_IKS8_mESt10_Select1stISA_ES3_IS8_ESaISA_EE22_M_emplace_hint_uniqueIIRKSt21piecewise_construct_tSt5tupleIIRS9_EESK_IIEEEEESt17_Rb_tree_iteratorISA_ESt23_Rb_tree_const_iteratorISA_EDpOT_@Base 4.2.0
 _ZNSt8_Rb_treeISt4pairIN3ue28flat_setIjSt4lessIjESaIjEEENS1_14RoseSuffixInfoEES0_IKS8_mESt10_Select1stISA_ES3_IS8_ESaISA_EE22_M_emplace_hint_uniqueIJRKSt21piecewise_construct_tSt5tupleIJRS9_EESK_IJEEEEESt17_Rb_tree_iteratorISA_ESt23_Rb_tree_const_iteratorISA_EDpOT_@Base 4.2.0
 _ZNSt8_Rb_treeISt4pairIN3ue28flat_setIjSt4lessIjESaIjEEENS1_14RoseSuffixInfoEES0_IKS8_mESt10_Select1stISA_ES3_IS8_ESaISA_EE24_M_get_insert_unique_posERS9_@Base 4.2.0
 _ZNSt8_Rb_treeISt4pairIN3ue28flat_setIjSt4lessIjESaIjEEENS1_14RoseSuffixInfoEES0_IKS8_mESt10_Select1stISA_ES3_IS8_ESaISA_EE29_M_get_insert_hint_unique_posESt23_Rb_tree_const_iteratorISA_ERS9_@Base 4.2.0
 _ZNSt8_Rb_treeISt4pairIN3ue28flat_setIjSt4lessIjESaIjEEENS1_14RoseSuffixInfoEES0_IKS8_mESt10_Select1stISA_ES3_IS8_ESaISA_EE8_M_eraseEPSt13_Rb_tree_nodeISA_E@Base 4.2.0
 _ZNSt8_Rb_treeISt4pairIN3ue28flat_setIjSt4lessIjESaIjEEES6_ES0_IKS7_mESt10_Select1stIS9_ES3_IS7_ESaIS9_EE22_M_emplace_hint_uniqueIIRKSt21piecewise_construct_tSt5tupleIIRS8_EESJ_IIEEEEESt17_Rb_tree_iteratorIS9_ESt23_Rb_tree_const_iteratorIS9_EDpOT_@Base 4.2.0
 _ZNSt8_Rb_treeISt4pairIN3ue28flat_setIjSt4lessIjESaIjEEES6_ES0_IKS7_mESt10_Select1stIS9_ES3_IS7_ESaIS9_EE22_M_emplace_hint_uniqueIJRKSt21piecewise_construct_tSt5tupleIJRS8_EESJ_IJEEEEESt17_Rb_tree_iteratorIS9_ESt23_Rb_tree_const_iteratorIS9_EDpOT_@Base 4.2.0
 _ZNSt8_Rb_treeISt4pairIN3ue28flat_setIjSt4lessIjESaIjEEES6_ES0_IKS7_mESt10_Select1stIS9_ES3_IS7_ESaIS9_EE24_M_get_insert_unique_posERS8_@Base 4.2.0
 _ZNSt8_Rb_treeISt4pairIN3ue28flat_setIjSt4lessIjESaIjEEES6_ES0_IKS7_mESt10_Select1stIS9_ES3_IS7_ESaIS9_EE29_M_get_insert_hint_unique_posESt23_Rb_tree_const_iteratorIS9_ERS8_@Base 4.2.0
 _ZNSt8_Rb_treeISt4pairIN3ue28flat_setIjSt4lessIjESaIjEEES6_ES0_IKS7_mESt10_Select1stIS9_ES3_IS7_ESaIS9_EE8_M_eraseEPSt13_Rb_tree_nodeIS9_E@Base 4.2.0
 _ZNSt8_Rb_treeISt4pairIN3ue29CharReachEhES0_IKS3_jESt10_Select1stIS5_ESt4lessIS3_ESaIS5_EE22_M_emplace_hint_uniqueIIRKSt21piecewise_construct_tSt5tupleIIRS4_EESG_IIEEEEESt17_Rb_tree_iteratorIS5_ESt23_Rb_tree_const_iteratorIS5_EDpOT_@Base 4.2.0
 _ZNSt8_Rb_treeISt4pairIN3ue29CharReachEhES0_IKS3_jESt10_Select1stIS5_ESt4lessIS3_ESaIS5_EE22_M_emplace_hint_uniqueIJRKSt21piecewise_construct_tSt5tupleIJRS4_EESG_IJEEEEESt17_Rb_tree_iteratorIS5_ESt23_Rb_tree_const_iteratorIS5_EDpOT_@Base 4.2.0
 _ZNSt8_Rb_treeISt4pairIN3ue29CharReachEhES0_IKS3_jESt10_Select1stIS5_ESt4lessIS3_ESaIS5_EE24_M_get_insert_unique_posERS4_@Base 4.2.0
 _ZNSt8_Rb_treeISt4pairIN3ue29CharReachEhES0_IKS3_jESt10_Select1stIS5_ESt4lessIS3_ESaIS5_EE29_M_get_insert_hint_unique_posESt23_Rb_tree_const_iteratorIS5_ERS4_@Base 4.2.0
 _ZNSt8_Rb_treeISt4pairIN3ue29CharReachEhES0_IKS3_jESt10_Select1stIS5_ESt4lessIS3_ESaIS5_EE8_M_eraseEPSt13_Rb_tree_nodeIS5_E@Base 4.2.0
 _ZNSt8_Rb_treeISt4pairIPvS1_ES0_IKS2_N5boost6detail14edge_desc_implINS4_17bidirectional_tagES1_EEESt10_Select1stIS9_ESt4lessIS2_ESaIS9_EE14_M_insert_nodeEPSt18_Rb_tree_node_baseSH_PSt13_Rb_tree_nodeIS9_E@Base 4.2.0
 _ZNSt8_Rb_treeISt4pairIPvS1_ES0_IKS2_N5boost6detail14edge_desc_implINS4_17bidirectional_tagES1_EEESt10_Select1stIS9_ESt4lessIS2_ESaIS9_EE24_M_get_insert_unique_posERS3_@Base 4.2.0
 _ZNSt8_Rb_treeISt4pairIPvS1_ES0_IKS2_N5boost6detail14edge_desc_implINS4_17bidirectional_tagES1_EEESt10_Select1stIS9_ESt4lessIS2_ESaIS9_EE29_M_get_insert_hint_unique_posESt23_Rb_tree_const_iteratorIS9_ERS3_@Base 4.2.0
 _ZNSt8_Rb_treeISt4pairIPvS1_ES0_IKS2_N5boost6detail14edge_desc_implINS4_17bidirectional_tagES1_EEESt10_Select1stIS9_ESt4lessIS2_ESaIS9_EE8_M_eraseEPSt13_Rb_tree_nodeIS9_E@Base 4.2.0
 _ZNSt8_Rb_treeISt4pairIS0_IjjEjES2_St9_IdentityIS2_ESt4lessIS2_ESaIS2_EE8_M_eraseEPSt13_Rb_tree_nodeIS2_E@Base 4.2.0
 _ZNSt8_Rb_treeISt4pairIjhES0_IKS1_S0_IP10FDRConfirmmEESt10_Select1stIS6_ESt4lessIS1_ESaIS6_EE24_M_get_insert_unique_posERS2_@Base 4.2.0
 _ZNSt8_Rb_treeISt4pairIjhES0_IKS1_S0_IP10FDRConfirmmEESt10_Select1stIS6_ESt4lessIS1_ESaIS6_EE29_M_get_insert_hint_unique_posESt23_Rb_tree_const_iteratorIS6_ERS2_@Base 4.2.0
 _ZNSt8_Rb_treeISt4pairIjhES0_IKS1_S0_IP10FDRConfirmmEESt10_Select1stIS6_ESt4lessIS1_ESaIS6_EE8_M_eraseEPSt13_Rb_tree_nodeIS6_E@Base 4.2.0
 _ZNSt8_Rb_treeISt4pairIjjES0_IKS1_bESt10_Select1stIS3_ESt4lessIS1_ESaIS3_EE22_M_emplace_hint_uniqueIIRKSt21piecewise_construct_tSt5tupleIIRS2_EESE_IIEEEEESt17_Rb_tree_iteratorIS3_ESt23_Rb_tree_const_iteratorIS3_EDpOT_@Base 4.2.0
 _ZNSt8_Rb_treeISt4pairIjjES0_IKS1_bESt10_Select1stIS3_ESt4lessIS1_ESaIS3_EE22_M_emplace_hint_uniqueIJRKSt21piecewise_construct_tSt5tupleIJRS2_EESE_IJEEEEESt17_Rb_tree_iteratorIS3_ESt23_Rb_tree_const_iteratorIS3_EDpOT_@Base 4.2.0
 _ZNSt8_Rb_treeISt4pairIjjES0_IKS1_bESt10_Select1stIS3_ESt4lessIS1_ESaIS3_EE24_M_get_insert_unique_posERS2_@Base 4.2.0
 _ZNSt8_Rb_treeISt4pairIjjES0_IKS1_bESt10_Select1stIS3_ESt4lessIS1_ESaIS3_EE29_M_get_insert_hint_unique_posESt23_Rb_tree_const_iteratorIS3_ERS2_@Base 4.2.0
 _ZNSt8_Rb_treeISt4pairIjjES0_IKS1_bESt10_Select1stIS3_ESt4lessIS1_ESaIS3_EE8_M_eraseEPSt13_Rb_tree_nodeIS3_E@Base 4.2.0
 _ZNSt8_Rb_treeISt4pairIjyES0_IKS1_St6vectorISt10shared_ptrIN3ue28NGHolderEESaIS7_EEESt10_Select1stISA_ESt4lessIS1_ESaISA_EE24_M_get_insert_unique_posERS2_@Base 4.2.0
 _ZNSt8_Rb_treeISt4pairIjyES0_IKS1_St6vectorISt10shared_ptrIN3ue28NGHolderEESaIS7_EEESt10_Select1stISA_ESt4lessIS1_ESaISA_EE29_M_get_insert_hint_unique_posESt23_Rb_tree_const_iteratorISA_ERS2_@Base 4.2.0
 _ZNSt8_Rb_treeISt4pairIjyES0_IKS1_St6vectorISt10shared_ptrIN3ue28NGHolderEESaIS7_EEESt10_Select1stISA_ESt4lessIS1_ESaISA_EE8_M_eraseEPSt13_Rb_tree_nodeISA_E@Base 4.2.0
 _ZNSt8_Rb_treeISt4pairImSt3setIjSt4lessIjESaIjEEES0_IKS6_St6vectorIN3ue29suffix_idESaISA_EEESt10_Select1stISD_ES2_IS6_ESaISD_EE22_M_emplace_hint_uniqueIIRKSt21piecewise_construct_tSt5tupleIIOS6_EESN_IIEEEEESt17_Rb_tree_iteratorISD_ESt23_Rb_tree_const_iteratorISD_EDpOT_@Base 4.2.0
 _ZNSt8_Rb_treeISt4pairImSt3setIjSt4lessIjESaIjEEES0_IKS6_St6vectorIN3ue29suffix_idESaISA_EEESt10_Select1stISD_ES2_IS6_ESaISD_EE22_M_emplace_hint_uniqueIJRKSt21piecewise_construct_tSt5tupleIJOS6_EESN_IJEEEEESt17_Rb_tree_iteratorISD_ESt23_Rb_tree_const_iteratorISD_EDpOT_@Base 4.2.0
 _ZNSt8_Rb_treeISt4pairImSt3setIjSt4lessIjESaIjEEES0_IKS6_St6vectorIN3ue29suffix_idESaISA_EEESt10_Select1stISD_ES2_IS6_ESaISD_EE24_M_get_insert_unique_posERS7_@Base 4.2.0
 _ZNSt8_Rb_treeISt4pairImSt3setIjSt4lessIjESaIjEEES0_IKS6_St6vectorIN3ue29suffix_idESaISA_EEESt10_Select1stISD_ES2_IS6_ESaISD_EE29_M_get_insert_hint_unique_posESt23_Rb_tree_const_iteratorISD_ERS7_@Base 4.2.0
 _ZNSt8_Rb_treeISt4pairImSt3setIjSt4lessIjESaIjEEES0_IKS6_St6vectorIN3ue29suffix_idESaISA_EEESt10_Select1stISD_ES2_IS6_ESaISD_EE8_M_eraseEPSt13_Rb_tree_nodeISD_E@Base 4.2.0
 _ZNSt8_Rb_treeISt4pairImjES1_St9_IdentityIS1_ESt4lessIS1_ESaIS1_EE8_M_eraseEPSt13_Rb_tree_nodeIS1_E@Base 4.2.0
 _ZNSt8_Rb_treeISt4pairImmES0_IKS1_N5boost6detail14edge_desc_implINS3_17bidirectional_tagEPvEEESt10_Select1stIS9_ESt4lessIS1_ESaIS9_EE24_M_get_insert_unique_posERS2_@Base 4.2.0
 _ZNSt8_Rb_treeISt4pairImmES0_IKS1_N5boost6detail14edge_desc_implINS3_17bidirectional_tagEPvEEESt10_Select1stIS9_ESt4lessIS1_ESaIS9_EE29_M_get_insert_hint_unique_posESt23_Rb_tree_const_iteratorIS9_ERS2_@Base 4.2.0
 _ZNSt8_Rb_treeISt4pairImmES0_IKS1_N5boost6detail14edge_desc_implINS3_17bidirectional_tagEPvEEESt10_Select1stIS9_ESt4lessIS1_ESaIS9_EE8_M_eraseEPSt13_Rb_tree_nodeIS9_E@Base 4.2.0
 _ZNSt8_Rb_treeISt5arrayItLm4EESt4pairIKS1_S1_ESt10_Select1stIS4_ESt4lessIS1_ESaIS4_EE22_M_emplace_hint_uniqueIIRKSt21piecewise_construct_tSt5tupleIIRS3_EESF_IIEEEEESt17_Rb_tree_iteratorIS4_ESt23_Rb_tree_const_iteratorIS4_EDpOT_@Base 4.2.0
 _ZNSt8_Rb_treeISt5arrayItLm4EESt4pairIKS1_S1_ESt10_Select1stIS4_ESt4lessIS1_ESaIS4_EE22_M_emplace_hint_uniqueIJRKSt21piecewise_construct_tSt5tupleIJRS3_EESF_IJEEEEESt17_Rb_tree_iteratorIS4_ESt23_Rb_tree_const_iteratorIS4_EDpOT_@Base 4.2.0
 _ZNSt8_Rb_treeISt5arrayItLm4EESt4pairIKS1_S1_ESt10_Select1stIS4_ESt4lessIS1_ESaIS4_EE24_M_get_insert_unique_posERS3_@Base 4.2.0
 _ZNSt8_Rb_treeISt5arrayItLm4EESt4pairIKS1_S1_ESt10_Select1stIS4_ESt4lessIS1_ESaIS4_EE29_M_get_insert_hint_unique_posESt23_Rb_tree_const_iteratorIS4_ERS3_@Base 4.2.0
 _ZNSt8_Rb_treeISt5arrayItLm4EESt4pairIKS1_S1_ESt10_Select1stIS4_ESt4lessIS1_ESaIS4_EE8_M_eraseEPSt13_Rb_tree_nodeIS4_E@Base 4.2.0
 _ZNSt8_Rb_treeISt6vectorI17mmbit_sparse_iterSaIS1_EESt4pairIKS3_jESt10_Select1stIS6_ESt4lessIS3_ESaIS6_EE16_M_insert_uniqueIS4_IS3_jEEES4_ISt17_Rb_tree_iteratorIS6_EbEOT_@Base 4.2.0
 _ZNSt8_Rb_treeISt6vectorI17mmbit_sparse_iterSaIS1_EESt4pairIKS3_jESt10_Select1stIS6_ESt4lessIS3_ESaIS6_EE8_M_eraseEPSt13_Rb_tree_nodeIS6_E@Base 4.2.0
 _ZNSt8_Rb_treeISt6vectorI9gough_insSaIS1_EESt4pairIKS3_jESt10_Select1stIS6_ESt4lessIS3_ESaIS6_EE22_M_emplace_hint_uniqueIIRKSt21piecewise_construct_tSt5tupleIIRS5_EESH_IIEEEEESt17_Rb_tree_iteratorIS6_ESt23_Rb_tree_const_iteratorIS6_EDpOT_@Base 4.2.0
 _ZNSt8_Rb_treeISt6vectorI9gough_insSaIS1_EESt4pairIKS3_jESt10_Select1stIS6_ESt4lessIS3_ESaIS6_EE22_M_emplace_hint_uniqueIJRKSt21piecewise_construct_tSt5tupleIJRS5_EESH_IJEEEEESt17_Rb_tree_iteratorIS6_ESt23_Rb_tree_const_iteratorIS6_EDpOT_@Base 4.2.0
 _ZNSt8_Rb_treeISt6vectorI9gough_insSaIS1_EESt4pairIKS3_jESt10_Select1stIS6_ESt4lessIS3_ESaIS6_EE24_M_get_insert_unique_posERS5_@Base 4.2.0
 _ZNSt8_Rb_treeISt6vectorI9gough_insSaIS1_EESt4pairIKS3_jESt10_Select1stIS6_ESt4lessIS3_ESaIS6_EE29_M_get_insert_hint_unique_posESt23_Rb_tree_const_iteratorIS6_ERS5_@Base 4.2.0
 _ZNSt8_Rb_treeISt6vectorI9gough_insSaIS1_EESt4pairIKS3_jESt10_Select1stIS6_ESt4lessIS3_ESaIS6_EE8_M_eraseEPSt13_Rb_tree_nodeIS6_E@Base 4.2.0
 _ZNSt8_Rb_treeISt6vectorIPvSaIS1_EESt4pairIKS3_St10shared_ptrIN3ue28NGHolderEEESt10_Select1stISA_ESt4lessIS3_ESaISA_EE16_M_insert_uniqueIS4_IS3_S9_EEES4_ISt17_Rb_tree_iteratorISA_EbEOT_@Base 4.2.0
 _ZNSt8_Rb_treeISt6vectorIPvSaIS1_EESt4pairIKS3_St10shared_ptrIN3ue28NGHolderEEESt10_Select1stISA_ESt4lessIS3_ESaISA_EE22_M_emplace_hint_uniqueIIRKSt21piecewise_construct_tSt5tupleIIRS5_EESL_IIEEEEESt17_Rb_tree_iteratorISA_ESt23_Rb_tree_const_iteratorISA_EDpOT_@Base 4.2.0
 _ZNSt8_Rb_treeISt6vectorIPvSaIS1_EESt4pairIKS3_St10shared_ptrIN3ue28NGHolderEEESt10_Select1stISA_ESt4lessIS3_ESaISA_EE22_M_emplace_hint_uniqueIJRKSt21piecewise_construct_tSt5tupleIJRS5_EESL_IJEEEEESt17_Rb_tree_iteratorISA_ESt23_Rb_tree_const_iteratorISA_EDpOT_@Base 4.2.0
 _ZNSt8_Rb_treeISt6vectorIPvSaIS1_EESt4pairIKS3_St10shared_ptrIN3ue28NGHolderEEESt10_Select1stISA_ESt4lessIS3_ESaISA_EE24_M_get_insert_unique_posERS5_@Base 4.2.0
 _ZNSt8_Rb_treeISt6vectorIPvSaIS1_EESt4pairIKS3_St10shared_ptrIN3ue28NGHolderEEESt10_Select1stISA_ESt4lessIS3_ESaISA_EE29_M_get_insert_hint_unique_posESt23_Rb_tree_const_iteratorISA_ERS5_@Base 4.2.0
 _ZNSt8_Rb_treeISt6vectorIPvSaIS1_EESt4pairIKS3_St10shared_ptrIN3ue28NGHolderEEESt10_Select1stISA_ESt4lessIS3_ESaISA_EE8_M_eraseEPSt13_Rb_tree_nodeISA_E@Base 4.2.0
 _ZNSt8_Rb_treeISt6vectorIjSaIjEESt4pairIKS2_jESt10_Select1stIS5_ESt4lessIS2_ESaIS5_EE22_M_emplace_hint_uniqueIIRKSt21piecewise_construct_tSt5tupleIIRS4_EESG_IIEEEEESt17_Rb_tree_iteratorIS5_ESt23_Rb_tree_const_iteratorIS5_EDpOT_@Base 4.2.0
 _ZNSt8_Rb_treeISt6vectorIjSaIjEESt4pairIKS2_jESt10_Select1stIS5_ESt4lessIS2_ESaIS5_EE22_M_emplace_hint_uniqueIJRKSt21piecewise_construct_tSt5tupleIJRS4_EESG_IJEEEEESt17_Rb_tree_iteratorIS5_ESt23_Rb_tree_const_iteratorIS5_EDpOT_@Base 4.2.0
 _ZNSt8_Rb_treeISt6vectorIjSaIjEESt4pairIKS2_jESt10_Select1stIS5_ESt4lessIS2_ESaIS5_EE24_M_get_insert_unique_posERS4_@Base 4.2.0
 _ZNSt8_Rb_treeISt6vectorIjSaIjEESt4pairIKS2_jESt10_Select1stIS5_ESt4lessIS2_ESaIS5_EE29_M_get_insert_hint_unique_posESt23_Rb_tree_const_iteratorIS5_ERS4_@Base 4.2.0
 _ZNSt8_Rb_treeISt6vectorIjSaIjEESt4pairIKS2_jESt10_Select1stIS5_ESt4lessIS2_ESaIS5_EE8_M_eraseEPSt13_Rb_tree_nodeIS5_E@Base 4.2.0
 _ZNSt8_Rb_treeIhSt4pairIKhN3ue29CharReachEESt10_Select1stIS4_ESt4lessIhESaIS4_EE22_M_emplace_hint_uniqueIIRKSt21piecewise_construct_tSt5tupleIIRS1_EESF_IIEEEEESt17_Rb_tree_iteratorIS4_ESt23_Rb_tree_const_iteratorIS4_EDpOT_@Base 4.2.0
 _ZNSt8_Rb_treeIhSt4pairIKhN3ue29CharReachEESt10_Select1stIS4_ESt4lessIhESaIS4_EE22_M_emplace_hint_uniqueIJRKSt21piecewise_construct_tSt5tupleIJRS1_EESF_IJEEEEESt17_Rb_tree_iteratorIS4_ESt23_Rb_tree_const_iteratorIS4_EDpOT_@Base 4.2.0
 _ZNSt8_Rb_treeIhSt4pairIKhN3ue29CharReachEESt10_Select1stIS4_ESt4lessIhESaIS4_EE24_M_get_insert_unique_posERS1_@Base 4.2.0
 _ZNSt8_Rb_treeIhSt4pairIKhN3ue29CharReachEESt10_Select1stIS4_ESt4lessIhESaIS4_EE29_M_get_insert_hint_unique_posESt23_Rb_tree_const_iteratorIS4_ERS1_@Base 4.2.0
 _ZNSt8_Rb_treeIhSt4pairIKhN3ue29CharReachEESt10_Select1stIS4_ESt4lessIhESaIS4_EE8_M_eraseEPSt13_Rb_tree_nodeIS4_E@Base 4.2.0
 _ZNSt8_Rb_treeIhSt4pairIKhjESt10_Select1stIS2_ESt4lessIhESaIS2_EE14_M_insert_nodeEPSt18_Rb_tree_node_baseSA_PSt13_Rb_tree_nodeIS2_E@Base 4.2.0
 _ZNSt8_Rb_treeIhSt4pairIKhjESt10_Select1stIS2_ESt4lessIhESaIS2_EE22_M_emplace_hint_uniqueIIRKSt21piecewise_construct_tSt5tupleIIOhEESD_IIEEEEESt17_Rb_tree_iteratorIS2_ESt23_Rb_tree_const_iteratorIS2_EDpOT_@Base 4.2.0
 _ZNSt8_Rb_treeIhSt4pairIKhjESt10_Select1stIS2_ESt4lessIhESaIS2_EE22_M_emplace_hint_uniqueIIRKSt21piecewise_construct_tSt5tupleIIRS1_EESD_IIEEEEESt17_Rb_tree_iteratorIS2_ESt23_Rb_tree_const_iteratorIS2_EDpOT_@Base 4.2.0
 _ZNSt8_Rb_treeIhSt4pairIKhjESt10_Select1stIS2_ESt4lessIhESaIS2_EE22_M_emplace_hint_uniqueIJRKSt21piecewise_construct_tSt5tupleIJOhEESD_IJEEEEESt17_Rb_tree_iteratorIS2_ESt23_Rb_tree_const_iteratorIS2_EDpOT_@Base 4.2.0
 _ZNSt8_Rb_treeIhSt4pairIKhjESt10_Select1stIS2_ESt4lessIhESaIS2_EE22_M_emplace_hint_uniqueIJRKSt21piecewise_construct_tSt5tupleIJRS1_EESD_IJEEEEESt17_Rb_tree_iteratorIS2_ESt23_Rb_tree_const_iteratorIS2_EDpOT_@Base 4.2.0
 _ZNSt8_Rb_treeIhSt4pairIKhjESt10_Select1stIS2_ESt4lessIhESaIS2_EE24_M_get_insert_unique_posERS1_@Base 4.2.0
 _ZNSt8_Rb_treeIhSt4pairIKhjESt10_Select1stIS2_ESt4lessIhESaIS2_EE29_M_get_insert_hint_unique_posESt23_Rb_tree_const_iteratorIS2_ERS1_@Base 4.2.0
 _ZNSt8_Rb_treeIhSt4pairIKhjESt10_Select1stIS2_ESt4lessIhESaIS2_EE7_M_copyINS8_11_Alloc_nodeEEEPSt13_Rb_tree_nodeIS2_EPKSC_SD_RT_@Base 4.2.0
 _ZNSt8_Rb_treeIhSt4pairIKhjESt10_Select1stIS2_ESt4lessIhESaIS2_EE8_M_eraseEPSt13_Rb_tree_nodeIS2_E@Base 4.2.0
 _ZNSt8_Rb_treeIiSt4pairIKiN3ue29CharReachEESt10_Select1stIS4_ESt4lessIiESaIS4_EE14_M_insert_nodeEPSt18_Rb_tree_node_baseSC_PSt13_Rb_tree_nodeIS4_E@Base 4.2.0
 _ZNSt8_Rb_treeIiSt4pairIKiN3ue29CharReachEESt10_Select1stIS4_ESt4lessIiESaIS4_EE16_M_insert_uniqueIS0_IiS3_EEES0_ISt17_Rb_tree_iteratorIS4_EbEOT_@Base 4.2.0
 _ZNSt8_Rb_treeIiSt4pairIKiN3ue29CharReachEESt10_Select1stIS4_ESt4lessIiESaIS4_EE22_M_emplace_hint_uniqueIIRKSt21piecewise_construct_tSt5tupleIIOiEESF_IIEEEEESt17_Rb_tree_iteratorIS4_ESt23_Rb_tree_const_iteratorIS4_EDpOT_@Base 4.2.0
 _ZNSt8_Rb_treeIiSt4pairIKiN3ue29CharReachEESt10_Select1stIS4_ESt4lessIiESaIS4_EE22_M_emplace_hint_uniqueIIRKSt21piecewise_construct_tSt5tupleIIRS1_EESF_IIEEEEESt17_Rb_tree_iteratorIS4_ESt23_Rb_tree_const_iteratorIS4_EDpOT_@Base 4.2.0
 _ZNSt8_Rb_treeIiSt4pairIKiN3ue29CharReachEESt10_Select1stIS4_ESt4lessIiESaIS4_EE22_M_emplace_hint_uniqueIJRKSt21piecewise_construct_tSt5tupleIJOiEESF_IJEEEEESt17_Rb_tree_iteratorIS4_ESt23_Rb_tree_const_iteratorIS4_EDpOT_@Base 4.2.0
 _ZNSt8_Rb_treeIiSt4pairIKiN3ue29CharReachEESt10_Select1stIS4_ESt4lessIiESaIS4_EE22_M_emplace_hint_uniqueIJRKSt21piecewise_construct_tSt5tupleIJRS1_EESF_IJEEEEESt17_Rb_tree_iteratorIS4_ESt23_Rb_tree_const_iteratorIS4_EDpOT_@Base 4.2.0
 _ZNSt8_Rb_treeIiSt4pairIKiN3ue29CharReachEESt10_Select1stIS4_ESt4lessIiESaIS4_EE24_M_get_insert_unique_posERS1_@Base 4.2.0
 _ZNSt8_Rb_treeIiSt4pairIKiN3ue29CharReachEESt10_Select1stIS4_ESt4lessIiESaIS4_EE29_M_get_insert_hint_unique_posESt23_Rb_tree_const_iteratorIS4_ERS1_@Base 4.2.0
 _ZNSt8_Rb_treeIiSt4pairIKiN3ue29CharReachEESt10_Select1stIS4_ESt4lessIiESaIS4_EE5eraseERS1_@Base 4.2.0
 _ZNSt8_Rb_treeIiSt4pairIKiN3ue29CharReachEESt10_Select1stIS4_ESt4lessIiESaIS4_EE8_M_eraseEPSt13_Rb_tree_nodeIS4_E@Base 4.2.0
 _ZNSt8_Rb_treeIjSt4pairIKjN3ue210PureRepeatEESt10_Select1stIS4_ESt4lessIjESaIS4_EE17_M_emplace_uniqueIIRjRKS3_EEES0_ISt17_Rb_tree_iteratorIS4_EbEDpOT_@Base 4.2.0
 _ZNSt8_Rb_treeIjSt4pairIKjN3ue210PureRepeatEESt10_Select1stIS4_ESt4lessIjESaIS4_EE17_M_emplace_uniqueIJRjRKS3_EEES0_ISt17_Rb_tree_iteratorIS4_EbEDpOT_@Base 4.2.0
 _ZNSt8_Rb_treeIjSt4pairIKjN3ue210PureRepeatEESt10_Select1stIS4_ESt4lessIjESaIS4_EE22_M_emplace_hint_uniqueIIRKSt21piecewise_construct_tSt5tupleIIRS1_EESF_IIEEEEESt17_Rb_tree_iteratorIS4_ESt23_Rb_tree_const_iteratorIS4_EDpOT_@Base 4.2.0
 _ZNSt8_Rb_treeIjSt4pairIKjN3ue210PureRepeatEESt10_Select1stIS4_ESt4lessIjESaIS4_EE22_M_emplace_hint_uniqueIJRKSt21piecewise_construct_tSt5tupleIJRS1_EESF_IJEEEEESt17_Rb_tree_iteratorIS4_ESt23_Rb_tree_const_iteratorIS4_EDpOT_@Base 4.2.0
 _ZNSt8_Rb_treeIjSt4pairIKjN3ue210PureRepeatEESt10_Select1stIS4_ESt4lessIjESaIS4_EE24_M_get_insert_unique_posERS1_@Base 4.2.0
 _ZNSt8_Rb_treeIjSt4pairIKjN3ue210PureRepeatEESt10_Select1stIS4_ESt4lessIjESaIS4_EE29_M_get_insert_hint_unique_posESt23_Rb_tree_const_iteratorIS4_ERS1_@Base 4.2.0
 _ZNSt8_Rb_treeIjSt4pairIKjN3ue210PureRepeatEESt10_Select1stIS4_ESt4lessIjESaIS4_EE7_M_copyINSA_11_Alloc_nodeEEEPSt13_Rb_tree_nodeIS4_EPKSE_SF_RT_@Base 4.2.0
 _ZNSt8_Rb_treeIjSt4pairIKjN3ue210PureRepeatEESt10_Select1stIS4_ESt4lessIjESaIS4_EE8_M_eraseEPSt13_Rb_tree_nodeIS4_E@Base 4.2.0
 _ZNSt8_Rb_treeIjSt4pairIKjN3ue211DepthMinMaxEESt10_Select1stIS4_ESt4lessIjESaIS4_EE22_M_emplace_hint_uniqueIIRKSt21piecewise_construct_tSt5tupleIIRS1_EESF_IIEEEEESt17_Rb_tree_iteratorIS4_ESt23_Rb_tree_const_iteratorIS4_EDpOT_@Base 4.2.0
 _ZNSt8_Rb_treeIjSt4pairIKjN3ue211DepthMinMaxEESt10_Select1stIS4_ESt4lessIjESaIS4_EE22_M_emplace_hint_uniqueIJRKSt21piecewise_construct_tSt5tupleIJRS1_EESF_IJEEEEESt17_Rb_tree_iteratorIS4_ESt23_Rb_tree_const_iteratorIS4_EDpOT_@Base 4.2.0
 _ZNSt8_Rb_treeIjSt4pairIKjN3ue211DepthMinMaxEESt10_Select1stIS4_ESt4lessIjESaIS4_EE24_M_get_insert_unique_posERS1_@Base 4.2.0
 _ZNSt8_Rb_treeIjSt4pairIKjN3ue211DepthMinMaxEESt10_Select1stIS4_ESt4lessIjESaIS4_EE29_M_get_insert_hint_unique_posESt23_Rb_tree_const_iteratorIS4_ERS1_@Base 4.2.0
 _ZNSt8_Rb_treeIjSt4pairIKjN3ue211DepthMinMaxEESt10_Select1stIS4_ESt4lessIjESaIS4_EE8_M_eraseEPSt13_Rb_tree_nodeIS4_E@Base 4.2.0
 _ZNSt8_Rb_treeIjSt4pairIKjN3ue215rose_literal_idEESt10_Select1stIS4_ESt4lessIjESaIS4_EE16_M_insert_uniqueIS0_IjS3_EEES0_ISt17_Rb_tree_iteratorIS4_EbEOT_@Base 4.2.0
 _ZNSt8_Rb_treeIjSt4pairIKjN3ue215rose_literal_idEESt10_Select1stIS4_ESt4lessIjESaIS4_EE8_M_eraseEPSt13_Rb_tree_nodeIS4_E@Base 4.2.0
 _ZNSt8_Rb_treeIjSt4pairIKjN3ue220external_report_infoEESt10_Select1stIS4_ESt4lessIjESaIS4_EE17_M_emplace_uniqueIIRjRKS3_EEES0_ISt17_Rb_tree_iteratorIS4_EbEDpOT_@Base 4.2.0
 _ZNSt8_Rb_treeIjSt4pairIKjN3ue220external_report_infoEESt10_Select1stIS4_ESt4lessIjESaIS4_EE17_M_emplace_uniqueIJRjRKS3_EEES0_ISt17_Rb_tree_iteratorIS4_EbEDpOT_@Base 4.2.0
 _ZNSt8_Rb_treeIjSt4pairIKjN3ue220external_report_infoEESt10_Select1stIS4_ESt4lessIjESaIS4_EE8_M_eraseEPSt13_Rb_tree_nodeIS4_E@Base 4.2.0
 _ZNSt8_Rb_treeIjSt4pairIKjN3ue28bitfieldILm256EEEESt10_Select1stIS5_ESt4lessIjESaIS5_EE24_M_get_insert_unique_posERS1_@Base 4.2.0
 _ZNSt8_Rb_treeIjSt4pairIKjN3ue28bitfieldILm256EEEESt10_Select1stIS5_ESt4lessIjESaIS5_EE29_M_get_insert_hint_unique_posESt23_Rb_tree_const_iteratorIS5_ERS1_@Base 4.2.0
 _ZNSt8_Rb_treeIjSt4pairIKjN3ue28bitfieldILm256EEEESt10_Select1stIS5_ESt4lessIjESaIS5_EE8_M_eraseEPSt13_Rb_tree_nodeIS5_E@Base 4.2.0
 _ZNSt8_Rb_treeIjSt4pairIKjN3ue28flat_setIN5boost6detail14edge_desc_implINS4_17bidirectional_tagEPvEESt4lessIS9_ESaIS9_EEEESt10_Select1stISE_ESA_IjESaISE_EE24_M_get_insert_unique_posERS1_@Base 4.2.0
 _ZNSt8_Rb_treeIjSt4pairIKjN3ue28flat_setIN5boost6detail14edge_desc_implINS4_17bidirectional_tagEPvEESt4lessIS9_ESaIS9_EEEESt10_Select1stISE_ESA_IjESaISE_EE29_M_get_insert_hint_unique_posESt23_Rb_tree_const_iteratorISE_ERS1_@Base 4.2.0
 _ZNSt8_Rb_treeIjSt4pairIKjN3ue28flat_setIN5boost6detail14edge_desc_implINS4_17bidirectional_tagEPvEESt4lessIS9_ESaIS9_EEEESt10_Select1stISE_ESA_IjESaISE_EE8_M_eraseEPSt13_Rb_tree_nodeISE_E@Base 4.2.0
 _ZNSt8_Rb_treeIjSt4pairIKjN3ue28flat_setINS2_12PositionInfoESt4lessIS4_ESaIS4_EEEESt10_Select1stIS9_ES5_IjESaIS9_EE14_M_insert_nodeEPSt18_Rb_tree_node_baseSG_PSt13_Rb_tree_nodeIS9_E@Base 4.2.0
 _ZNSt8_Rb_treeIjSt4pairIKjN3ue28flat_setINS2_12PositionInfoESt4lessIS4_ESaIS4_EEEESt10_Select1stIS9_ES5_IjESaIS9_EE22_M_emplace_hint_uniqueIIRKSt21piecewise_construct_tSt5tupleIIOjEESJ_IIEEEEESt17_Rb_tree_iteratorIS9_ESt23_Rb_tree_const_iteratorIS9_EDpOT_@Base 4.2.0
 _ZNSt8_Rb_treeIjSt4pairIKjN3ue28flat_setINS2_12PositionInfoESt4lessIS4_ESaIS4_EEEESt10_Select1stIS9_ES5_IjESaIS9_EE22_M_emplace_hint_uniqueIIRKSt21piecewise_construct_tSt5tupleIIRS1_EESJ_IIEEEEESt17_Rb_tree_iteratorIS9_ESt23_Rb_tree_const_iteratorIS9_EDpOT_@Base 4.2.0
 _ZNSt8_Rb_treeIjSt4pairIKjN3ue28flat_setINS2_12PositionInfoESt4lessIS4_ESaIS4_EEEESt10_Select1stIS9_ES5_IjESaIS9_EE22_M_emplace_hint_uniqueIJRKSt21piecewise_construct_tSt5tupleIJOjEESJ_IJEEEEESt17_Rb_tree_iteratorIS9_ESt23_Rb_tree_const_iteratorIS9_EDpOT_@Base 4.2.0
 _ZNSt8_Rb_treeIjSt4pairIKjN3ue28flat_setINS2_12PositionInfoESt4lessIS4_ESaIS4_EEEESt10_Select1stIS9_ES5_IjESaIS9_EE22_M_emplace_hint_uniqueIJRKSt21piecewise_construct_tSt5tupleIJRS1_EESJ_IJEEEEESt17_Rb_tree_iteratorIS9_ESt23_Rb_tree_const_iteratorIS9_EDpOT_@Base 4.2.0
 _ZNSt8_Rb_treeIjSt4pairIKjN3ue28flat_setINS2_12PositionInfoESt4lessIS4_ESaIS4_EEEESt10_Select1stIS9_ES5_IjESaIS9_EE24_M_get_insert_unique_posERS1_@Base 4.2.0
 _ZNSt8_Rb_treeIjSt4pairIKjN3ue28flat_setINS2_12PositionInfoESt4lessIS4_ESaIS4_EEEESt10_Select1stIS9_ES5_IjESaIS9_EE29_M_get_insert_hint_unique_posESt23_Rb_tree_const_iteratorIS9_ERS1_@Base 4.2.0
 _ZNSt8_Rb_treeIjSt4pairIKjN3ue28flat_setINS2_12PositionInfoESt4lessIS4_ESaIS4_EEEESt10_Select1stIS9_ES5_IjESaIS9_EE8_M_eraseEPSt13_Rb_tree_nodeIS9_E@Base 4.2.0
 _ZNSt8_Rb_treeIjSt4pairIKjN3ue28flat_setIjSt4lessIjESaIjEEEESt10_Select1stIS8_ES5_SaIS8_EE24_M_get_insert_unique_posERS1_@Base 4.2.0
 _ZNSt8_Rb_treeIjSt4pairIKjN3ue28flat_setIjSt4lessIjESaIjEEEESt10_Select1stIS8_ES5_SaIS8_EE29_M_get_insert_hint_unique_posESt23_Rb_tree_const_iteratorIS8_ERS1_@Base 4.2.0
 _ZNSt8_Rb_treeIjSt4pairIKjN3ue28flat_setIjSt4lessIjESaIjEEEESt10_Select1stIS8_ES5_SaIS8_EE8_M_eraseEPSt13_Rb_tree_nodeIS8_E@Base 4.2.0
 _ZNSt8_Rb_treeIjSt4pairIKjN3ue29CharReachEESt10_Select1stIS4_ESt4lessIjESaIS4_EE24_M_get_insert_unique_posERS1_@Base 4.2.0
 _ZNSt8_Rb_treeIjSt4pairIKjN3ue29CharReachEESt10_Select1stIS4_ESt4lessIjESaIS4_EE29_M_get_insert_hint_unique_posESt23_Rb_tree_const_iteratorIS4_ERS1_@Base 4.2.0
 _ZNSt8_Rb_treeIjSt4pairIKjN3ue29CharReachEESt10_Select1stIS4_ESt4lessIjESaIS4_EE8_M_eraseEPSt13_Rb_tree_nodeIS4_E@Base 4.2.0
 _ZNSt8_Rb_treeIjSt4pairIKjN5boost14dynamic_bitsetImSaImEEEESt10_Select1stIS6_ESt4lessIjESaIS6_EE24_M_get_insert_unique_posERS1_@Base 4.2.0
 _ZNSt8_Rb_treeIjSt4pairIKjN5boost14dynamic_bitsetImSaImEEEESt10_Select1stIS6_ESt4lessIjESaIS6_EE29_M_get_insert_hint_unique_posESt23_Rb_tree_const_iteratorIS6_ERS1_@Base 4.2.0
 _ZNSt8_Rb_treeIjSt4pairIKjN5boost14dynamic_bitsetImSaImEEEESt10_Select1stIS6_ESt4lessIjESaIS6_EE8_M_eraseEPSt13_Rb_tree_nodeIS6_E@Base 4.2.0
 _ZNSt8_Rb_treeIjSt4pairIKjN5boost9unordered13unordered_setIjNS2_4hashIjEESt8equal_toIjESaIjEEEESt10_Select1stISB_ESt4lessIjESaISB_EE22_M_emplace_hint_uniqueIIRKSt21piecewise_construct_tSt5tupleIIRS1_EESM_IIEEEEESt17_Rb_tree_iteratorISB_ESt23_Rb_tree_const_iteratorISB_EDpOT_@Base 4.2.0
 _ZNSt8_Rb_treeIjSt4pairIKjN5boost9unordered13unordered_setIjNS2_4hashIjEESt8equal_toIjESaIjEEEESt10_Select1stISB_ESt4lessIjESaISB_EE22_M_emplace_hint_uniqueIJRKSt21piecewise_construct_tSt5tupleIJRS1_EESM_IJEEEEESt17_Rb_tree_iteratorISB_ESt23_Rb_tree_const_iteratorISB_EDpOT_@Base 4.2.0
 _ZNSt8_Rb_treeIjSt4pairIKjN5boost9unordered13unordered_setIjNS2_4hashIjEESt8equal_toIjESaIjEEEESt10_Select1stISB_ESt4lessIjESaISB_EE24_M_get_insert_unique_posERS1_@Base 4.2.0
 _ZNSt8_Rb_treeIjSt4pairIKjN5boost9unordered13unordered_setIjNS2_4hashIjEESt8equal_toIjESaIjEEEESt10_Select1stISB_ESt4lessIjESaISB_EE29_M_get_insert_hint_unique_posESt23_Rb_tree_const_iteratorISB_ERS1_@Base 4.2.0
 _ZNSt8_Rb_treeIjSt4pairIKjN5boost9unordered13unordered_setIjNS2_4hashIjEESt8equal_toIjESaIjEEEESt10_Select1stISB_ESt4lessIjESaISB_EE8_M_eraseEPSt13_Rb_tree_nodeISB_E@Base 4.2.0
 _ZNSt8_Rb_treeIjSt4pairIKjPKN3ue214SlotCacheEntryEESt10_Select1stIS6_ESt4lessIjESaIS6_EE24_M_get_insert_unique_posERS1_@Base 4.2.0
 _ZNSt8_Rb_treeIjSt4pairIKjPKN3ue214SlotCacheEntryEESt10_Select1stIS6_ESt4lessIjESaIS6_EE29_M_get_insert_hint_unique_posESt23_Rb_tree_const_iteratorIS6_ERS1_@Base 4.2.0
 _ZNSt8_Rb_treeIjSt4pairIKjPKN3ue214SlotCacheEntryEESt10_Select1stIS6_ESt4lessIjESaIS6_EE8_M_eraseEPSt13_Rb_tree_nodeIS6_E@Base 4.2.0
 _ZNSt8_Rb_treeIjSt4pairIKjPKN3ue216InitialResetInfoEESt10_Select1stIS6_ESt4lessIjESaIS6_EE22_M_emplace_hint_uniqueIIRKSt21piecewise_construct_tSt5tupleIIRS1_EESH_IIEEEEESt17_Rb_tree_iteratorIS6_ESt23_Rb_tree_const_iteratorIS6_EDpOT_@Base 4.2.0
 _ZNSt8_Rb_treeIjSt4pairIKjPKN3ue216InitialResetInfoEESt10_Select1stIS6_ESt4lessIjESaIS6_EE22_M_emplace_hint_uniqueIJRKSt21piecewise_construct_tSt5tupleIJRS1_EESH_IJEEEEESt17_Rb_tree_iteratorIS6_ESt23_Rb_tree_const_iteratorIS6_EDpOT_@Base 4.2.0
 _ZNSt8_Rb_treeIjSt4pairIKjPKN3ue216InitialResetInfoEESt10_Select1stIS6_ESt4lessIjESaIS6_EE24_M_get_insert_unique_posERS1_@Base 4.2.0
 _ZNSt8_Rb_treeIjSt4pairIKjPKN3ue216InitialResetInfoEESt10_Select1stIS6_ESt4lessIjESaIS6_EE29_M_get_insert_hint_unique_posESt23_Rb_tree_const_iteratorIS6_ERS1_@Base 4.2.0
 _ZNSt8_Rb_treeIjSt4pairIKjPKN3ue216InitialResetInfoEESt10_Select1stIS6_ESt4lessIjESaIS6_EE8_M_eraseEPSt13_Rb_tree_nodeIS6_E@Base 4.2.0
 _ZNSt8_Rb_treeIjSt4pairIKjPvESt10_Select1stIS3_ESt4lessIjESaIS3_EE14_M_insert_nodeEPSt18_Rb_tree_node_baseSB_PSt13_Rb_tree_nodeIS3_E@Base 4.2.0
 _ZNSt8_Rb_treeIjSt4pairIKjPvESt10_Select1stIS3_ESt4lessIjESaIS3_EE17_M_emplace_uniqueIIRS1_RS2_EEES0_ISt17_Rb_tree_iteratorIS3_EbEDpOT_@Base 4.2.0
 _ZNSt8_Rb_treeIjSt4pairIKjPvESt10_Select1stIS3_ESt4lessIjESaIS3_EE17_M_emplace_uniqueIJRS1_RS2_EEES0_ISt17_Rb_tree_iteratorIS3_EbEDpOT_@Base 4.2.0
 _ZNSt8_Rb_treeIjSt4pairIKjPvESt10_Select1stIS3_ESt4lessIjESaIS3_EE24_M_get_insert_unique_posERS1_@Base 4.2.0
 _ZNSt8_Rb_treeIjSt4pairIKjPvESt10_Select1stIS3_ESt4lessIjESaIS3_EE29_M_get_insert_hint_unique_posESt23_Rb_tree_const_iteratorIS3_ERS1_@Base 4.2.0
 _ZNSt8_Rb_treeIjSt4pairIKjPvESt10_Select1stIS3_ESt4lessIjESaIS3_EE8_M_eraseEPSt13_Rb_tree_nodeIS3_E@Base 4.2.0
 _ZNSt8_Rb_treeIjSt4pairIKjSt10shared_ptrIN3ue214GoughSSAVarNewEEESt10_Select1stIS6_ESt4lessIjESaIS6_EE22_M_emplace_hint_uniqueIIRKSt21piecewise_construct_tSt5tupleIIRS1_EESH_IIEEEEESt17_Rb_tree_iteratorIS6_ESt23_Rb_tree_const_iteratorIS6_EDpOT_@Base 4.2.0
 _ZNSt8_Rb_treeIjSt4pairIKjSt10shared_ptrIN3ue214GoughSSAVarNewEEESt10_Select1stIS6_ESt4lessIjESaIS6_EE22_M_emplace_hint_uniqueIJRKSt21piecewise_construct_tSt5tupleIJRS1_EESH_IJEEEEESt17_Rb_tree_iteratorIS6_ESt23_Rb_tree_const_iteratorIS6_EDpOT_@Base 4.2.0
 _ZNSt8_Rb_treeIjSt4pairIKjSt10shared_ptrIN3ue214GoughSSAVarNewEEESt10_Select1stIS6_ESt4lessIjESaIS6_EE24_M_get_insert_unique_posERS1_@Base 4.2.0
 _ZNSt8_Rb_treeIjSt4pairIKjSt10shared_ptrIN3ue214GoughSSAVarNewEEESt10_Select1stIS6_ESt4lessIjESaIS6_EE29_M_get_insert_hint_unique_posESt23_Rb_tree_const_iteratorIS6_ERS1_@Base 4.2.0
 _ZNSt8_Rb_treeIjSt4pairIKjSt10shared_ptrIN3ue214GoughSSAVarNewEEESt10_Select1stIS6_ESt4lessIjESaIS6_EE8_M_eraseEPSt13_Rb_tree_nodeIS6_E@Base 4.2.0
 _ZNSt8_Rb_treeIjSt4pairIKjSt3mapIhjSt4lessIhESaIS0_IKhjEEEESt10_Select1stIS9_ES3_IjESaIS9_EE24_M_get_insert_unique_posERS1_@Base 4.2.0
 _ZNSt8_Rb_treeIjSt4pairIKjSt3mapIhjSt4lessIhESaIS0_IKhjEEEESt10_Select1stIS9_ES3_IjESaIS9_EE29_M_get_insert_hint_unique_posESt23_Rb_tree_const_iteratorIS9_ERS1_@Base 4.2.0
 _ZNSt8_Rb_treeIjSt4pairIKjSt3mapIhjSt4lessIhESaIS0_IKhjEEEESt10_Select1stIS9_ES3_IjESaIS9_EE8_M_eraseEPSt13_Rb_tree_nodeIS9_E@Base 4.2.0
 _ZNSt8_Rb_treeIjSt4pairIKjSt3setIN3ue29suffix_idESt4lessIS4_ESaIS4_EEESt10_Select1stIS9_ES5_IjESaIS9_EE24_M_get_insert_unique_posERS1_@Base 4.2.0
 _ZNSt8_Rb_treeIjSt4pairIKjSt3setIN3ue29suffix_idESt4lessIS4_ESaIS4_EEESt10_Select1stIS9_ES5_IjESaIS9_EE29_M_get_insert_hint_unique_posESt23_Rb_tree_const_iteratorIS9_ERS1_@Base 4.2.0
 _ZNSt8_Rb_treeIjSt4pairIKjSt3setIN3ue29suffix_idESt4lessIS4_ESaIS4_EEESt10_Select1stIS9_ES5_IjESaIS9_EE8_M_eraseEPSt13_Rb_tree_nodeIS9_E@Base 4.2.0
 _ZNSt8_Rb_treeIjSt4pairIKjSt3setIPKN3ue210OutfixInfoESt4lessIS6_ESaIS6_EEESt10_Select1stISB_ES7_IjESaISB_EE24_M_get_insert_unique_posERS1_@Base 4.2.0
 _ZNSt8_Rb_treeIjSt4pairIKjSt3setIPKN3ue210OutfixInfoESt4lessIS6_ESaIS6_EEESt10_Select1stISB_ES7_IjESaISB_EE29_M_get_insert_hint_unique_posESt23_Rb_tree_const_iteratorISB_ERS1_@Base 4.2.0
 _ZNSt8_Rb_treeIjSt4pairIKjSt3setIPKN3ue210OutfixInfoESt4lessIS6_ESaIS6_EEESt10_Select1stISB_ES7_IjESaISB_EE8_M_eraseEPSt13_Rb_tree_nodeISB_E@Base 4.2.0
 _ZNSt8_Rb_treeIjSt4pairIKjSt3setIPKN3ue28raw_puffESt4lessIS6_ESaIS6_EEESt10_Select1stISB_ES7_IjESaISB_EE22_M_emplace_hint_uniqueIIRKSt21piecewise_construct_tSt5tupleIIRS1_EESL_IIEEEEESt17_Rb_tree_iteratorISB_ESt23_Rb_tree_const_iteratorISB_EDpOT_@Base 4.2.0
 _ZNSt8_Rb_treeIjSt4pairIKjSt3setIPKN3ue28raw_puffESt4lessIS6_ESaIS6_EEESt10_Select1stISB_ES7_IjESaISB_EE22_M_emplace_hint_uniqueIJRKSt21piecewise_construct_tSt5tupleIJRS1_EESL_IJEEEEESt17_Rb_tree_iteratorISB_ESt23_Rb_tree_const_iteratorISB_EDpOT_@Base 4.2.0
 _ZNSt8_Rb_treeIjSt4pairIKjSt3setIPKN3ue28raw_puffESt4lessIS6_ESaIS6_EEESt10_Select1stISB_ES7_IjESaISB_EE24_M_get_insert_unique_posERS1_@Base 4.2.0
 _ZNSt8_Rb_treeIjSt4pairIKjSt3setIPKN3ue28raw_puffESt4lessIS6_ESaIS6_EEESt10_Select1stISB_ES7_IjESaISB_EE29_M_get_insert_hint_unique_posESt23_Rb_tree_const_iteratorISB_ERS1_@Base 4.2.0
 _ZNSt8_Rb_treeIjSt4pairIKjSt3setIPKN3ue28raw_puffESt4lessIS6_ESaIS6_EEESt10_Select1stISB_ES7_IjESaISB_EE8_M_eraseEPSt13_Rb_tree_nodeISB_E@Base 4.2.0
 _ZNSt8_Rb_treeIjSt4pairIKjSt3setIPvSt4lessIS3_ESaIS3_EEESt10_Select1stIS8_ES4_IjESaIS8_EE24_M_get_insert_unique_posERS1_@Base 4.2.0
 _ZNSt8_Rb_treeIjSt4pairIKjSt3setIPvSt4lessIS3_ESaIS3_EEESt10_Select1stIS8_ES4_IjESaIS8_EE29_M_get_insert_hint_unique_posESt23_Rb_tree_const_iteratorIS8_ERS1_@Base 4.2.0
 _ZNSt8_Rb_treeIjSt4pairIKjSt3setIPvSt4lessIS3_ESaIS3_EEESt10_Select1stIS8_ES4_IjESaIS8_EE8_M_eraseEPSt13_Rb_tree_nodeIS8_E@Base 4.2.0
 _ZNSt8_Rb_treeIjSt4pairIKjSt3setIjSt4lessIjESaIjEEESt10_Select1stIS7_ES4_SaIS7_EE22_M_emplace_hint_uniqueIIRKSt21piecewise_construct_tSt5tupleIIRS1_EESG_IIEEEEESt17_Rb_tree_iteratorIS7_ESt23_Rb_tree_const_iteratorIS7_EDpOT_@Base 4.2.0
 _ZNSt8_Rb_treeIjSt4pairIKjSt3setIjSt4lessIjESaIjEEESt10_Select1stIS7_ES4_SaIS7_EE22_M_emplace_hint_uniqueIJRKSt21piecewise_construct_tSt5tupleIJRS1_EESG_IJEEEEESt17_Rb_tree_iteratorIS7_ESt23_Rb_tree_const_iteratorIS7_EDpOT_@Base 4.2.0
 _ZNSt8_Rb_treeIjSt4pairIKjSt3setIjSt4lessIjESaIjEEESt10_Select1stIS7_ES4_SaIS7_EE24_M_get_insert_unique_posERS1_@Base 4.2.0
 _ZNSt8_Rb_treeIjSt4pairIKjSt3setIjSt4lessIjESaIjEEESt10_Select1stIS7_ES4_SaIS7_EE29_M_get_insert_hint_unique_posESt23_Rb_tree_const_iteratorIS7_ERS1_@Base 4.2.0
 _ZNSt8_Rb_treeIjSt4pairIKjSt3setIjSt4lessIjESaIjEEESt10_Select1stIS7_ES4_SaIS7_EE5eraseERS1_@Base 4.2.0
 _ZNSt8_Rb_treeIjSt4pairIKjSt3setIjSt4lessIjESaIjEEESt10_Select1stIS7_ES4_SaIS7_EE8_M_eraseEPSt13_Rb_tree_nodeIS7_E@Base 4.2.0
 _ZNSt8_Rb_treeIjSt4pairIKjSt5dequeIS0_IjjESaIS3_EEESt10_Select1stIS6_ESt4lessIjESaIS6_EE24_M_get_insert_unique_posERS1_@Base 4.2.0
 _ZNSt8_Rb_treeIjSt4pairIKjSt5dequeIS0_IjjESaIS3_EEESt10_Select1stIS6_ESt4lessIjESaIS6_EE29_M_get_insert_hint_unique_posESt23_Rb_tree_const_iteratorIS6_ERS1_@Base 4.2.0
 _ZNSt8_Rb_treeIjSt4pairIKjSt5dequeIS0_IjjESaIS3_EEESt10_Select1stIS6_ESt4lessIjESaIS6_EE8_M_eraseEPSt13_Rb_tree_nodeIS6_E@Base 4.2.0
 _ZNSt8_Rb_treeIjSt4pairIKjSt6vectorIN5boost6detail14edge_desc_implINS3_17bidirectional_tagEPvEESaIS8_EEESt10_Select1stISB_ESt4lessIjESaISB_EE14_M_insert_nodeEPSt18_Rb_tree_node_baseSJ_PSt13_Rb_tree_nodeISB_E@Base 4.2.0
 _ZNSt8_Rb_treeIjSt4pairIKjSt6vectorIN5boost6detail14edge_desc_implINS3_17bidirectional_tagEPvEESaIS8_EEESt10_Select1stISB_ESt4lessIjESaISB_EE17_M_emplace_uniqueIIRS1_RSA_EEES0_ISt17_Rb_tree_iteratorISB_EbEDpOT_@Base 4.2.0
 _ZNSt8_Rb_treeIjSt4pairIKjSt6vectorIN5boost6detail14edge_desc_implINS3_17bidirectional_tagEPvEESaIS8_EEESt10_Select1stISB_ESt4lessIjESaISB_EE17_M_emplace_uniqueIJRS1_RSA_EEES0_ISt17_Rb_tree_iteratorISB_EbEDpOT_@Base 4.2.0
 _ZNSt8_Rb_treeIjSt4pairIKjSt6vectorIN5boost6detail14edge_desc_implINS3_17bidirectional_tagEPvEESaIS8_EEESt10_Select1stISB_ESt4lessIjESaISB_EE24_M_get_insert_unique_posERS1_@Base 4.2.0
 _ZNSt8_Rb_treeIjSt4pairIKjSt6vectorIN5boost6detail14edge_desc_implINS3_17bidirectional_tagEPvEESaIS8_EEESt10_Select1stISB_ESt4lessIjESaISB_EE29_M_get_insert_hint_unique_posESt23_Rb_tree_const_iteratorISB_ERS1_@Base 4.2.0
 _ZNSt8_Rb_treeIjSt4pairIKjSt6vectorIN5boost6detail14edge_desc_implINS3_17bidirectional_tagEPvEESaIS8_EEESt10_Select1stISB_ESt4lessIjESaISB_EE8_M_eraseEPSt13_Rb_tree_nodeISB_E@Base 4.2.0
 _ZNSt8_Rb_treeIjSt4pairIKjSt6vectorIPvSaIS3_EEESt10_Select1stIS6_ESt4lessIjESaIS6_EE24_M_get_insert_unique_posERS1_@Base 4.2.0
 _ZNSt8_Rb_treeIjSt4pairIKjSt6vectorIPvSaIS3_EEESt10_Select1stIS6_ESt4lessIjESaIS6_EE29_M_get_insert_hint_unique_posESt23_Rb_tree_const_iteratorIS6_ERS1_@Base 4.2.0
 _ZNSt8_Rb_treeIjSt4pairIKjSt6vectorIPvSaIS3_EEESt10_Select1stIS6_ESt4lessIjESaIS6_EE8_M_eraseEPSt13_Rb_tree_nodeIS6_E@Base 4.2.0
 _ZNSt8_Rb_treeIjSt4pairIKjSt6vectorIS2_IN3ue29CharReachESaIS4_EESaIS6_EEESt10_Select1stIS9_ESt4lessIjESaIS9_EE14_M_insert_nodeEPSt18_Rb_tree_node_baseSH_PSt13_Rb_tree_nodeIS9_E@Base 4.2.0
 _ZNSt8_Rb_treeIjSt4pairIKjSt6vectorIS2_IN3ue29CharReachESaIS4_EESaIS6_EEESt10_Select1stIS9_ESt4lessIjESaIS9_EE24_M_get_insert_unique_posERS1_@Base 4.2.0
 _ZNSt8_Rb_treeIjSt4pairIKjSt6vectorIS2_IN3ue29CharReachESaIS4_EESaIS6_EEESt10_Select1stIS9_ESt4lessIjESaIS9_EE29_M_get_insert_hint_unique_posESt23_Rb_tree_const_iteratorIS9_ERS1_@Base 4.2.0
 _ZNSt8_Rb_treeIjSt4pairIKjSt6vectorIS2_IN3ue29CharReachESaIS4_EESaIS6_EEESt10_Select1stIS9_ESt4lessIjESaIS9_EE8_M_eraseEPSt13_Rb_tree_nodeIS9_E@Base 4.2.0
 _ZNSt8_Rb_treeIjSt4pairIKjSt6vectorIjSaIjEEESt10_Select1stIS5_ESt4lessIjESaIS5_EE22_M_emplace_hint_uniqueIIRKSt21piecewise_construct_tSt5tupleIIRS1_EESG_IIEEEEESt17_Rb_tree_iteratorIS5_ESt23_Rb_tree_const_iteratorIS5_EDpOT_@Base 4.2.0
 _ZNSt8_Rb_treeIjSt4pairIKjSt6vectorIjSaIjEEESt10_Select1stIS5_ESt4lessIjESaIS5_EE22_M_emplace_hint_uniqueIJRKSt21piecewise_construct_tSt5tupleIJRS1_EESG_IJEEEEESt17_Rb_tree_iteratorIS5_ESt23_Rb_tree_const_iteratorIS5_EDpOT_@Base 4.2.0
 _ZNSt8_Rb_treeIjSt4pairIKjSt6vectorIjSaIjEEESt10_Select1stIS5_ESt4lessIjESaIS5_EE24_M_get_insert_unique_posERS1_@Base 4.2.0
 _ZNSt8_Rb_treeIjSt4pairIKjSt6vectorIjSaIjEEESt10_Select1stIS5_ESt4lessIjESaIS5_EE29_M_get_insert_hint_unique_posESt23_Rb_tree_const_iteratorIS5_ERS1_@Base 4.2.0
 _ZNSt8_Rb_treeIjSt4pairIKjSt6vectorIjSaIjEEESt10_Select1stIS5_ESt4lessIjESaIS5_EE8_M_eraseEPSt13_Rb_tree_nodeIS5_E@Base 4.2.0
 _ZNSt8_Rb_treeIjSt4pairIKjjESt10_Select1stIS2_ESt4lessIjESaIS2_EE14_M_insert_nodeEPSt18_Rb_tree_node_baseSA_PSt13_Rb_tree_nodeIS2_E@Base 4.2.0
 _ZNSt8_Rb_treeIjSt4pairIKjjESt10_Select1stIS2_ESt4lessIjESaIS2_EE17_M_emplace_uniqueIIRS1_RKN3ue25depthEEEES0_ISt17_Rb_tree_iteratorIS2_EbEDpOT_@Base 4.2.0
 _ZNSt8_Rb_treeIjSt4pairIKjjESt10_Select1stIS2_ESt4lessIjESaIS2_EE17_M_emplace_uniqueIIjRS1_EEES0_ISt17_Rb_tree_iteratorIS2_EbEDpOT_@Base 4.2.0
 _ZNSt8_Rb_treeIjSt4pairIKjjESt10_Select1stIS2_ESt4lessIjESaIS2_EE17_M_emplace_uniqueIJRS1_RKN3ue25depthEEEES0_ISt17_Rb_tree_iteratorIS2_EbEDpOT_@Base 4.2.0
 _ZNSt8_Rb_treeIjSt4pairIKjjESt10_Select1stIS2_ESt4lessIjESaIS2_EE17_M_emplace_uniqueIJjRS1_EEES0_ISt17_Rb_tree_iteratorIS2_EbEDpOT_@Base 4.2.0
 _ZNSt8_Rb_treeIjSt4pairIKjjESt10_Select1stIS2_ESt4lessIjESaIS2_EE22_M_emplace_hint_uniqueIIRKSt21piecewise_construct_tSt5tupleIIRS1_EESD_IIEEEEESt17_Rb_tree_iteratorIS2_ESt23_Rb_tree_const_iteratorIS2_EDpOT_@Base 4.2.0
 _ZNSt8_Rb_treeIjSt4pairIKjjESt10_Select1stIS2_ESt4lessIjESaIS2_EE22_M_emplace_hint_uniqueIJRKSt21piecewise_construct_tSt5tupleIJRS1_EESD_IJEEEEESt17_Rb_tree_iteratorIS2_ESt23_Rb_tree_const_iteratorIS2_EDpOT_@Base 4.2.0
 _ZNSt8_Rb_treeIjSt4pairIKjjESt10_Select1stIS2_ESt4lessIjESaIS2_EE24_M_get_insert_unique_posERS1_@Base 4.2.0
 _ZNSt8_Rb_treeIjSt4pairIKjjESt10_Select1stIS2_ESt4lessIjESaIS2_EE29_M_get_insert_hint_unique_posESt23_Rb_tree_const_iteratorIS2_ERS1_@Base 4.2.0
 _ZNSt8_Rb_treeIjSt4pairIKjjESt10_Select1stIS2_ESt4lessIjESaIS2_EE5eraseERS1_@Base 4.2.0
 _ZNSt8_Rb_treeIjSt4pairIKjjESt10_Select1stIS2_ESt4lessIjESaIS2_EE7_M_copyINS8_11_Alloc_nodeEEEPSt13_Rb_tree_nodeIS2_EPKSC_SD_RT_@Base 4.2.0
 _ZNSt8_Rb_treeIjSt4pairIKjjESt10_Select1stIS2_ESt4lessIjESaIS2_EE8_M_eraseEPSt13_Rb_tree_nodeIS2_E@Base 4.2.0
 _ZNSt8_Rb_treeIjSt4pairIKjyESt10_Select1stIS2_ESt4lessIjESaIS2_EE24_M_get_insert_unique_posERS1_@Base 4.2.0
 _ZNSt8_Rb_treeIjSt4pairIKjyESt10_Select1stIS2_ESt4lessIjESaIS2_EE29_M_get_insert_hint_unique_posESt23_Rb_tree_const_iteratorIS2_ERS1_@Base 4.2.0
 _ZNSt8_Rb_treeIjSt4pairIKjyESt10_Select1stIS2_ESt4lessIjESaIS2_EE8_M_eraseEPSt13_Rb_tree_nodeIS2_E@Base 4.2.0
 _ZNSt8_Rb_treeIjjSt9_IdentityIjESt4lessIjESaIjEE16_M_insert_uniqueIRKjEESt4pairISt17_Rb_tree_iteratorIjEbEOT_@Base 4.2.0
 _ZNSt8_Rb_treeIjjSt9_IdentityIjESt4lessIjESaIjEE16_M_insert_uniqueISt23_Rb_tree_const_iteratorIjEEEvT_S9_@Base 4.2.0
 _ZNSt8_Rb_treeIjjSt9_IdentityIjESt4lessIjESaIjEE16_M_insert_uniqueIjEESt4pairISt17_Rb_tree_iteratorIjEbEOT_@Base 4.2.0
 _ZNSt8_Rb_treeIjjSt9_IdentityIjESt4lessIjESaIjEE24_M_get_insert_unique_posERKj@Base 4.2.0
 _ZNSt8_Rb_treeIjjSt9_IdentityIjESt4lessIjESaIjEE29_M_get_insert_hint_unique_posESt23_Rb_tree_const_iteratorIjERKj@Base 4.2.0
 _ZNSt8_Rb_treeIjjSt9_IdentityIjESt4lessIjESaIjEE4swapERS5_@Base 4.2.0
 _ZNSt8_Rb_treeIjjSt9_IdentityIjESt4lessIjESaIjEE5eraseERKj@Base 4.2.0
 _ZNSt8_Rb_treeIjjSt9_IdentityIjESt4lessIjESaIjEE7_M_copyINS5_11_Alloc_nodeEEEPSt13_Rb_tree_nodeIjEPKS9_SA_RT_@Base 4.2.0
 _ZNSt8_Rb_treeIjjSt9_IdentityIjESt4lessIjESaIjEE8_M_eraseEPSt13_Rb_tree_nodeIjE@Base 4.2.0
 _ZNSt8_Rb_treeImSt4pairIKmSt3mapImmSt4lessImESaIS0_IS1_mEEEESt10_Select1stIS8_ES4_SaIS8_EE22_M_emplace_hint_uniqueIIRKSt21piecewise_construct_tSt5tupleIIRS1_EESH_IIEEEEESt17_Rb_tree_iteratorIS8_ESt23_Rb_tree_const_iteratorIS8_EDpOT_@Base 4.2.0
 _ZNSt8_Rb_treeImSt4pairIKmSt3mapImmSt4lessImESaIS0_IS1_mEEEESt10_Select1stIS8_ES4_SaIS8_EE22_M_emplace_hint_uniqueIJRKSt21piecewise_construct_tSt5tupleIJRS1_EESH_IJEEEEESt17_Rb_tree_iteratorIS8_ESt23_Rb_tree_const_iteratorIS8_EDpOT_@Base 4.2.0
 _ZNSt8_Rb_treeImSt4pairIKmSt3mapImmSt4lessImESaIS0_IS1_mEEEESt10_Select1stIS8_ES4_SaIS8_EE24_M_get_insert_unique_posERS1_@Base 4.2.0
 _ZNSt8_Rb_treeImSt4pairIKmSt3mapImmSt4lessImESaIS0_IS1_mEEEESt10_Select1stIS8_ES4_SaIS8_EE29_M_get_insert_hint_unique_posESt23_Rb_tree_const_iteratorIS8_ERS1_@Base 4.2.0
 _ZNSt8_Rb_treeImSt4pairIKmSt3mapImmSt4lessImESaIS0_IS1_mEEEESt10_Select1stIS8_ES4_SaIS8_EE8_M_eraseEPSt13_Rb_tree_nodeIS8_E@Base 4.2.0
 _ZNSt8_Rb_treeImSt4pairIKmSt3setIPvSt4lessIS3_ESaIS3_EEESt10_Select1stIS8_ES4_ImESaIS8_EE24_M_get_insert_unique_posERS1_@Base 4.2.0
 _ZNSt8_Rb_treeImSt4pairIKmSt3setIPvSt4lessIS3_ESaIS3_EEESt10_Select1stIS8_ES4_ImESaIS8_EE29_M_get_insert_hint_unique_posESt23_Rb_tree_const_iteratorIS8_ERS1_@Base 4.2.0
 _ZNSt8_Rb_treeImSt4pairIKmSt3setIPvSt4lessIS3_ESaIS3_EEESt10_Select1stIS8_ES4_ImESaIS8_EE8_M_eraseEPSt13_Rb_tree_nodeIS8_E@Base 4.2.0
 _ZNSt8_Rb_treeImSt4pairIKmSt6vectorIPvSaIS3_EEESt10_Select1stIS6_ESt4lessImESaIS6_EE14_M_insert_nodeEPSt18_Rb_tree_node_baseSE_PSt13_Rb_tree_nodeIS6_E@Base 4.2.0
 _ZNSt8_Rb_treeImSt4pairIKmSt6vectorIPvSaIS3_EEESt10_Select1stIS6_ESt4lessImESaIS6_EE22_M_emplace_hint_uniqueIIRKSt21piecewise_construct_tSt5tupleIIRS1_EESH_IIEEEEESt17_Rb_tree_iteratorIS6_ESt23_Rb_tree_const_iteratorIS6_EDpOT_@Base 4.2.0
 _ZNSt8_Rb_treeImSt4pairIKmSt6vectorIPvSaIS3_EEESt10_Select1stIS6_ESt4lessImESaIS6_EE22_M_emplace_hint_uniqueIJRKSt21piecewise_construct_tSt5tupleIJRS1_EESH_IJEEEEESt17_Rb_tree_iteratorIS6_ESt23_Rb_tree_const_iteratorIS6_EDpOT_@Base 4.2.0
 _ZNSt8_Rb_treeImSt4pairIKmSt6vectorIPvSaIS3_EEESt10_Select1stIS6_ESt4lessImESaIS6_EE24_M_get_insert_unique_posERS1_@Base 4.2.0
 _ZNSt8_Rb_treeImSt4pairIKmSt6vectorIPvSaIS3_EEESt10_Select1stIS6_ESt4lessImESaIS6_EE29_M_get_insert_hint_unique_posESt23_Rb_tree_const_iteratorIS6_ERS1_@Base 4.2.0
 _ZNSt8_Rb_treeImSt4pairIKmSt6vectorIPvSaIS3_EEESt10_Select1stIS6_ESt4lessImESaIS6_EE8_M_eraseEPSt13_Rb_tree_nodeIS6_E@Base 4.2.0
 _ZNSt8_Rb_treeImSt4pairIKmSt6vectorISt10unique_ptrIN3ue27raw_dfaESt14default_deleteIS5_EESaIS8_EEESt10_Select1stISB_ESt4lessImESaISB_EE22_M_emplace_hint_uniqueIIRKSt21piecewise_construct_tSt5tupleIIRS1_EESM_IIEEEEESt17_Rb_tree_iteratorISB_ESt23_Rb_tree_const_iteratorISB_EDpOT_@Base 4.2.0
 _ZNSt8_Rb_treeImSt4pairIKmSt6vectorISt10unique_ptrIN3ue27raw_dfaESt14default_deleteIS5_EESaIS8_EEESt10_Select1stISB_ESt4lessImESaISB_EE22_M_emplace_hint_uniqueIJRKSt21piecewise_construct_tSt5tupleIJRS1_EESM_IJEEEEESt17_Rb_tree_iteratorISB_ESt23_Rb_tree_const_iteratorISB_EDpOT_@Base 4.2.0
 _ZNSt8_Rb_treeImSt4pairIKmSt6vectorISt10unique_ptrIN3ue27raw_dfaESt14default_deleteIS5_EESaIS8_EEESt10_Select1stISB_ESt4lessImESaISB_EE24_M_get_insert_unique_posERS1_@Base 4.2.0
 _ZNSt8_Rb_treeImSt4pairIKmSt6vectorISt10unique_ptrIN3ue27raw_dfaESt14default_deleteIS5_EESaIS8_EEESt10_Select1stISB_ESt4lessImESaISB_EE29_M_get_insert_hint_unique_posESt23_Rb_tree_const_iteratorISB_ERS1_@Base 4.2.0
 _ZNSt8_Rb_treeImSt4pairIKmSt6vectorISt10unique_ptrIN3ue27raw_dfaESt14default_deleteIS5_EESaIS8_EEESt10_Select1stISB_ESt4lessImESaISB_EE8_M_eraseEPSt13_Rb_tree_nodeISB_E@Base 4.2.0
 _ZNSt8_Rb_treeImSt4pairIKmmESt10_Select1stIS2_ESt4lessImESaIS2_EE22_M_emplace_hint_uniqueIIRKSt21piecewise_construct_tSt5tupleIIRS1_EESD_IIEEEEESt17_Rb_tree_iteratorIS2_ESt23_Rb_tree_const_iteratorIS2_EDpOT_@Base 4.2.0
 _ZNSt8_Rb_treeImSt4pairIKmmESt10_Select1stIS2_ESt4lessImESaIS2_EE22_M_emplace_hint_uniqueIJRKSt21piecewise_construct_tSt5tupleIJRS1_EESD_IJEEEEESt17_Rb_tree_iteratorIS2_ESt23_Rb_tree_const_iteratorIS2_EDpOT_@Base 4.2.0
 _ZNSt8_Rb_treeImSt4pairIKmmESt10_Select1stIS2_ESt4lessImESaIS2_EE24_M_get_insert_unique_posERS1_@Base 4.2.0
 _ZNSt8_Rb_treeImSt4pairIKmmESt10_Select1stIS2_ESt4lessImESaIS2_EE29_M_get_insert_hint_unique_posESt23_Rb_tree_const_iteratorIS2_ERS1_@Base 4.2.0
 _ZNSt8_Rb_treeImSt4pairIKmmESt10_Select1stIS2_ESt4lessImESaIS2_EE8_M_eraseEPSt13_Rb_tree_nodeIS2_E@Base 4.2.0
 _ZNSt8_Rb_treeImmSt9_IdentityImESt4lessImESaImEE16_M_insert_uniqueIRKmEESt4pairISt17_Rb_tree_iteratorImEbEOT_@Base 4.2.0
 _ZNSt8_Rb_treeImmSt9_IdentityImESt4lessImESaImEE16_M_insert_uniqueImEESt4pairISt17_Rb_tree_iteratorImEbEOT_@Base 4.2.0
 _ZNSt8_Rb_treeImmSt9_IdentityImESt4lessImESaImEE8_M_eraseEPSt13_Rb_tree_nodeImE@Base 4.2.0
 _ZNSt8_Rb_treeItSt4pairIKtN3ue211AccelSchemeEESt10_Select1stIS4_ESt4lessItESaIS4_EE14_M_insert_nodeEPSt18_Rb_tree_node_baseSC_PSt13_Rb_tree_nodeIS4_E@Base 4.2.0
 _ZNSt8_Rb_treeItSt4pairIKtN3ue211AccelSchemeEESt10_Select1stIS4_ESt4lessItESaIS4_EE22_M_emplace_hint_uniqueIIRKSt21piecewise_construct_tSt5tupleIIRS1_EESF_IIEEEEESt17_Rb_tree_iteratorIS4_ESt23_Rb_tree_const_iteratorIS4_EDpOT_@Base 4.2.0
 _ZNSt8_Rb_treeItSt4pairIKtN3ue211AccelSchemeEESt10_Select1stIS4_ESt4lessItESaIS4_EE22_M_emplace_hint_uniqueIJRKSt21piecewise_construct_tSt5tupleIJRS1_EESF_IJEEEEESt17_Rb_tree_iteratorIS4_ESt23_Rb_tree_const_iteratorIS4_EDpOT_@Base 4.2.0
 _ZNSt8_Rb_treeItSt4pairIKtN3ue211AccelSchemeEESt10_Select1stIS4_ESt4lessItESaIS4_EE24_M_get_insert_unique_posERS1_@Base 4.2.0
 _ZNSt8_Rb_treeItSt4pairIKtN3ue211AccelSchemeEESt10_Select1stIS4_ESt4lessItESaIS4_EE29_M_get_insert_hint_unique_posESt23_Rb_tree_const_iteratorIS4_ERS1_@Base 4.2.0
 _ZNSt8_Rb_treeItSt4pairIKtN3ue211AccelSchemeEESt10_Select1stIS4_ESt4lessItESaIS4_EE8_M_eraseEPSt13_Rb_tree_nodeIS4_E@Base 4.2.0
 _ZNSt8_Rb_treeItSt4pairIKtN3ue222gough_accel_state_infoEESt10_Select1stIS4_ESt4lessItESaIS4_EE17_M_emplace_uniqueIIRKjS3_EEES0_ISt17_Rb_tree_iteratorIS4_EbEDpOT_@Base 4.2.0
 _ZNSt8_Rb_treeItSt4pairIKtN3ue222gough_accel_state_infoEESt10_Select1stIS4_ESt4lessItESaIS4_EE17_M_emplace_uniqueIJRKjS3_EEES0_ISt17_Rb_tree_iteratorIS4_EbEDpOT_@Base 4.2.0
 _ZNSt8_Rb_treeItSt4pairIKtN3ue222gough_accel_state_infoEESt10_Select1stIS4_ESt4lessItESaIS4_EE7_M_copyINSA_11_Alloc_nodeEEEPSt13_Rb_tree_nodeIS4_EPKSE_SF_RT_@Base 4.2.0
 _ZNSt8_Rb_treeItSt4pairIKtN3ue222gough_accel_state_infoEESt10_Select1stIS4_ESt4lessItESaIS4_EE8_M_eraseEPSt13_Rb_tree_nodeIS4_E@Base 4.2.0
 _ZNSt8_Rb_treeItSt4pairIKtN3ue29CharReachEESt10_Select1stIS4_ESt4lessItESaIS4_EE24_M_get_insert_unique_posERS1_@Base 4.2.0
 _ZNSt8_Rb_treeItSt4pairIKtN3ue29CharReachEESt10_Select1stIS4_ESt4lessItESaIS4_EE29_M_get_insert_hint_unique_posESt23_Rb_tree_const_iteratorIS4_ERS1_@Base 4.2.0
 _ZNSt8_Rb_treeItSt4pairIKtN3ue29CharReachEESt10_Select1stIS4_ESt4lessItESaIS4_EE8_M_eraseEPSt13_Rb_tree_nodeIS4_E@Base 4.2.0
 _ZNSt8_Rb_treeItSt4pairIKtN5boost6detail14edge_desc_implINS2_17bidirectional_tagEmEEESt10_Select1stIS7_ESt4lessItESaIS7_EE22_M_emplace_hint_uniqueIIRKSt21piecewise_construct_tSt5tupleIIRS1_EESI_IIEEEEESt17_Rb_tree_iteratorIS7_ESt23_Rb_tree_const_iteratorIS7_EDpOT_@Base 4.2.0
 _ZNSt8_Rb_treeItSt4pairIKtN5boost6detail14edge_desc_implINS2_17bidirectional_tagEmEEESt10_Select1stIS7_ESt4lessItESaIS7_EE22_M_emplace_hint_uniqueIJRKSt21piecewise_construct_tSt5tupleIJRS1_EESI_IJEEEEESt17_Rb_tree_iteratorIS7_ESt23_Rb_tree_const_iteratorIS7_EDpOT_@Base 4.2.0
 _ZNSt8_Rb_treeItSt4pairIKtN5boost6detail14edge_desc_implINS2_17bidirectional_tagEmEEESt10_Select1stIS7_ESt4lessItESaIS7_EE24_M_get_insert_unique_posERS1_@Base 4.2.0
 _ZNSt8_Rb_treeItSt4pairIKtN5boost6detail14edge_desc_implINS2_17bidirectional_tagEmEEESt10_Select1stIS7_ESt4lessItESaIS7_EE29_M_get_insert_hint_unique_posESt23_Rb_tree_const_iteratorIS7_ERS1_@Base 4.2.0
 _ZNSt8_Rb_treeItSt4pairIKtN5boost6detail14edge_desc_implINS2_17bidirectional_tagEmEEESt10_Select1stIS7_ESt4lessItESaIS7_EE8_M_eraseEPSt13_Rb_tree_nodeIS7_E@Base 4.2.0
 _ZNSt8_Rb_treeItSt4pairIKtmESt10_Select1stIS2_ESt4lessItESaIS2_EE14_M_insert_nodeEPSt18_Rb_tree_node_baseSA_PSt13_Rb_tree_nodeIS2_E@Base 4.2.0
 _ZNSt8_Rb_treeItSt4pairIKtmESt10_Select1stIS2_ESt4lessItESaIS2_EE24_M_get_insert_unique_posERS1_@Base 4.2.0
 _ZNSt8_Rb_treeItSt4pairIKtmESt10_Select1stIS2_ESt4lessItESaIS2_EE29_M_get_insert_hint_unique_posESt23_Rb_tree_const_iteratorIS2_ERS1_@Base 4.2.0
 _ZNSt8_Rb_treeItSt4pairIKtmESt10_Select1stIS2_ESt4lessItESaIS2_EE8_M_eraseEPSt13_Rb_tree_nodeIS2_E@Base 4.2.0
 _ZNSt8_Rb_treeIttSt9_IdentityItESt4lessItESaItEE16_M_insert_uniqueIRKtEESt4pairISt17_Rb_tree_iteratorItEbEOT_@Base 4.2.0
 _ZNSt8_Rb_treeIttSt9_IdentityItESt4lessItESaItEE24_M_get_insert_unique_posERKt@Base 4.2.0
 _ZNSt8_Rb_treeIttSt9_IdentityItESt4lessItESaItEE29_M_get_insert_hint_unique_posESt23_Rb_tree_const_iteratorItERKt@Base 4.2.0
 _ZNSt8_Rb_treeIttSt9_IdentityItESt4lessItESaItEE8_M_eraseEPSt13_Rb_tree_nodeItE@Base 4.2.0
 _ZNSt8_Rb_treeIxSt4pairIKxjESt10_Select1stIS2_ESt4lessIxESaIS2_EE17_M_emplace_uniqueIIRxRjEEES0_ISt17_Rb_tree_iteratorIS2_EbEDpOT_@Base 4.2.0
 _ZNSt8_Rb_treeIxSt4pairIKxjESt10_Select1stIS2_ESt4lessIxESaIS2_EE17_M_emplace_uniqueIJRxRjEEES0_ISt17_Rb_tree_iteratorIS2_EbEDpOT_@Base 4.2.0
 _ZNSt8_Rb_treeIxSt4pairIKxjESt10_Select1stIS2_ESt4lessIxESaIS2_EE8_M_eraseEPSt13_Rb_tree_nodeIS2_E@Base 4.2.0
 _ZSt11__make_heapIN9__gnu_cxx17__normal_iteratorIPN3ue212DAccelSchemeESt6vectorIS3_SaIS3_EEEENS0_5__ops15_Iter_less_iterEEvT_SB_T0_@Base 4.2.0
 _ZSt11__push_heapISt15_Deque_iteratorIPvRS1_PS1_ElS1_N9__gnu_cxx5__ops14_Iter_comp_valIN3ue219VertexIndexOrderingINS8_8NGHolderEEEEEEvT_T0_SE_T1_T2_@Base 4.2.0
 _ZSt11__remove_ifIN9__gnu_cxx17__normal_iteratorIPPvSt6vectorIS2_SaIS2_EEEENS0_5__ops16_Iter_equals_valIKS2_EEET_SC_SC_T0_@Base 4.2.0
 _ZSt11__remove_ifIN9__gnu_cxx17__normal_iteratorIPSt10unique_ptrIN3ue29ComponentESt14default_deleteIS4_EESt6vectorIS7_SaIS7_EEEENS0_5__ops16_Iter_equals_valIKDnEEET_SH_SH_T0_@Base 4.2.0
 _ZSt11__remove_ifIN9__gnu_cxx17__normal_iteratorIPSt10unique_ptrIN3ue29ComponentESt14default_deleteIS4_EESt6vectorIS7_SaIS7_EEEENS0_5__ops16_Iter_equals_valIKDnEEET_SI_SI_T0_@Base 4.2.0
 _ZSt13__adjust_heapIN9__gnu_cxx17__normal_iteratorIPN3ue212DAccelSchemeESt6vectorIS3_SaIS3_EEEElS3_NS0_5__ops15_Iter_less_iterEEvT_T0_SC_T1_T2_@Base 4.2.0
 _ZSt13__adjust_heapIN9__gnu_cxx17__normal_iteratorIPN3ue212PositionInfoESt6vectorIS3_SaIS3_EEEElS3_NS0_5__ops15_Iter_less_iterEEvT_T0_SC_T1_T2_@Base 4.2.0
 _ZSt13__adjust_heapIN9__gnu_cxx17__normal_iteratorIPN3ue212SAccelSchemeESt6vectorIS3_SaIS3_EEEElS3_NS0_5__ops15_Iter_less_iterEEvT_T0_SC_T1_T2_@Base 4.2.0
 _ZSt13__adjust_heapIN9__gnu_cxx17__normal_iteratorIPN3ue29CharReachESt6vectorIS3_SaIS3_EEEElS3_NS0_5__ops15_Iter_less_iterEEvT_T0_SC_T1_T2_@Base 4.2.0
 _ZSt13__adjust_heapIN9__gnu_cxx17__normal_iteratorIPPvSt6vectorIS2_SaIS2_EEEElS2_NS0_5__ops15_Iter_comp_iterIN3ue215VertexIndexCompEEEEvT_T0_SE_T1_T2_@Base 4.2.0
 _ZSt13__adjust_heapIN9__gnu_cxx17__normal_iteratorIPPvSt6vectorIS2_SaIS2_EEEElS2_NS0_5__ops15_Iter_comp_iterIN3ue219VertexIndexOrderingINSA_8NGHolderEEEEEEvT_T0_SG_T1_T2_@Base 4.2.0
 _ZSt13__adjust_heapIN9__gnu_cxx17__normal_iteratorIPSt4pairIS2_IiiEjESt6vectorIS4_SaIS4_EEEElS4_NS0_5__ops15_Iter_comp_iterISt4lessIS4_EEEEvT_T0_SG_T1_T2_@Base 4.2.0
 _ZSt13__adjust_heapIN9__gnu_cxx17__normal_iteratorIPSt4pairIi13NFAEngineTypeESt6vectorIS4_SaIS4_EEEElS4_NS0_5__ops15_Iter_comp_iterISt7greaterIS4_EEEEvT_T0_SG_T1_T2_@Base 4.2.0
 _ZSt13__adjust_heapIN9__gnu_cxx17__normal_iteratorIPSt4pairIjN3ue29suffix_idEESt6vectorIS5_SaIS5_EEEElS5_NS0_5__ops15_Iter_less_iterEEvT_T0_SE_T1_T2_@Base 4.2.0
 _ZSt13__adjust_heapIN9__gnu_cxx17__normal_iteratorIPSt4pairIjjESt6vectorIS3_SaIS3_EEEElS3_NS0_5__ops15_Iter_less_iterEEvT_T0_SC_T1_T2_@Base 4.2.0
 _ZSt13__adjust_heapIN9__gnu_cxx17__normal_iteratorIPSt6vectorIN3ue29CharReachESaIS4_EES2_IS6_SaIS6_EEEElS6_NS0_5__ops15_Iter_less_iterEEvT_T0_SE_T1_T2_@Base 4.2.0
 _ZSt13__adjust_heapIN9__gnu_cxx17__normal_iteratorIPjSt6vectorIjSaIjEEEEljNS0_5__ops15_Iter_less_iterEEvT_T0_SA_T1_T2_@Base 4.2.0
 _ZSt13__adjust_heapISt15_Deque_iteratorIPvRS1_PS1_ElS1_N9__gnu_cxx5__ops15_Iter_comp_iterIN3ue219VertexIndexOrderingINS8_8NGHolderEEEEEEvT_T0_SE_T1_T2_@Base 4.2.0
 _ZSt13__heap_selectISt15_Deque_iteratorIPvRS1_PS1_EN9__gnu_cxx5__ops15_Iter_comp_iterIN3ue219VertexIndexOrderingINS8_8NGHolderEEEEEEvT_SD_SD_T0_@Base 4.2.0
 _ZSt13move_backwardIPPvS1_ET0_T_S3_S2_@Base 4.2.0
 _ZSt16__insertion_sortIN9__gnu_cxx17__normal_iteratorIPN3ue212DAccelSchemeESt6vectorIS3_SaIS3_EEEENS0_5__ops15_Iter_less_iterEEvT_SB_T0_@Base 4.2.0
 _ZSt16__insertion_sortIN9__gnu_cxx17__normal_iteratorIPN3ue212PositionInfoESt6vectorIS3_SaIS3_EEEENS0_5__ops15_Iter_less_iterEEvT_SB_T0_@Base 4.2.0
 _ZSt16__insertion_sortIN9__gnu_cxx17__normal_iteratorIPN3ue212SAccelSchemeESt6vectorIS3_SaIS3_EEEENS0_5__ops15_Iter_less_iterEEvT_SB_T0_@Base 4.2.0
 _ZSt16__insertion_sortIN9__gnu_cxx17__normal_iteratorIPN3ue29CharReachESt6vectorIS3_SaIS3_EEEENS0_5__ops15_Iter_less_iterEEvT_SB_T0_@Base 4.2.0
 _ZSt16__insertion_sortIN9__gnu_cxx17__normal_iteratorIPSt4pairIi13NFAEngineTypeESt6vectorIS4_SaIS4_EEEENS0_5__ops15_Iter_comp_iterISt7greaterIS4_EEEEvT_SF_T0_@Base 4.2.0
 _ZSt16__insertion_sortIN9__gnu_cxx17__normal_iteratorIPSt4pairIjN3ue29suffix_idEESt6vectorIS5_SaIS5_EEEENS0_5__ops15_Iter_less_iterEEvT_SD_T0_@Base 4.2.0
 _ZSt16__insertion_sortIN9__gnu_cxx17__normal_iteratorIPSt4pairIjjESt6vectorIS3_SaIS3_EEEENS0_5__ops15_Iter_less_iterEEvT_SB_T0_@Base 4.2.0
 _ZSt16__insertion_sortIN9__gnu_cxx17__normal_iteratorIPSt6vectorIN3ue29CharReachESaIS4_EES2_IS6_SaIS6_EEEENS0_5__ops15_Iter_less_iterEEvT_SD_T0_@Base 4.2.0
 _ZSt16__insertion_sortIN9__gnu_cxx17__normal_iteratorIPjSt6vectorIjSaIjEEEENS0_5__ops15_Iter_less_iterEEvT_S9_T0_@Base 4.2.0
 _ZSt16__insertion_sortISt15_Deque_iteratorIPvRS1_PS1_EN9__gnu_cxx5__ops15_Iter_comp_iterIN3ue219VertexIndexOrderingINS8_8NGHolderEEEEEEvT_SD_T0_@Base 4.2.0
 _ZSt16__introsort_loopIN9__gnu_cxx17__normal_iteratorIPPvSt6vectorIS2_SaIS2_EEEElNS0_5__ops15_Iter_comp_iterIN3ue215VertexIndexCompEEEEvT_SD_T0_T1_@Base 4.2.0
 _ZSt16__introsort_loopIN9__gnu_cxx17__normal_iteratorIPPvSt6vectorIS2_SaIS2_EEEElNS0_5__ops15_Iter_comp_iterIN3ue219VertexIndexOrderingINSA_8NGHolderEEEEEEvT_SF_T0_T1_@Base 4.2.0
 _ZSt16__introsort_loopIN9__gnu_cxx17__normal_iteratorIPSt4pairIi13NFAEngineTypeESt6vectorIS4_SaIS4_EEEElNS0_5__ops15_Iter_comp_iterISt7greaterIS4_EEEEvT_SF_T0_T1_@Base 4.2.0
 _ZSt16__introsort_loopISt15_Deque_iteratorIPvRS1_PS1_ElN9__gnu_cxx5__ops15_Iter_comp_iterIN3ue219VertexIndexOrderingINS8_8NGHolderEEEEEEvT_SD_T0_T1_@Base 4.2.0
 _ZSt17__rotate_adaptiveIN9__gnu_cxx17__normal_iteratorIPN3ue211hwlmLiteralESt6vectorIS3_SaIS3_EEEES4_lET_S9_S9_S9_T1_SA_T0_SA_@Base 4.2.0
 _ZSt17__rotate_adaptiveISt15_Deque_iteratorISt4pairIjjERS2_PS2_ES4_lET_S6_S6_S6_T1_S7_T0_S7_@Base 4.2.0
 _ZSt18uninitialized_copyISt15_Deque_iteratorIPvRKS1_PS2_ES0_IS1_RS1_PS1_EET0_T_SA_S9_@Base 4.2.0
 _ZSt22__final_insertion_sortISt15_Deque_iteratorIPvRS1_PS1_EN9__gnu_cxx5__ops15_Iter_comp_iterIN3ue219VertexIndexOrderingINS8_8NGHolderEEEEEEvT_SD_T0_@Base 4.2.0
 _ZSt22__move_median_to_firstIN9__gnu_cxx17__normal_iteratorIPSt4pairIi13NFAEngineTypeESt6vectorIS4_SaIS4_EEEENS0_5__ops15_Iter_comp_iterISt7greaterIS4_EEEEvT_SF_SF_SF_T0_@Base 4.2.0
 _ZSt22__move_median_to_firstIN9__gnu_cxx17__normal_iteratorIPSt4pairIjN3ue29suffix_idEESt6vectorIS5_SaIS5_EEEENS0_5__ops15_Iter_less_iterEEvT_SD_SD_SD_T0_@Base 4.2.0
 _ZSt22__move_median_to_firstIN9__gnu_cxx17__normal_iteratorIPSt4pairIjjESt6vectorIS3_SaIS3_EEEENS0_5__ops15_Iter_less_iterEEvT_SB_SB_SB_T0_@Base 4.2.0
 _ZSt22__move_median_to_firstIN9__gnu_cxx17__normal_iteratorIPSt6vectorIN3ue29CharReachESaIS4_EES2_IS6_SaIS6_EEEENS0_5__ops15_Iter_less_iterEEvT_SD_SD_SD_T0_@Base 4.2.0
 _ZSt22__move_median_to_firstISt15_Deque_iteratorIPvRS1_PS1_EN9__gnu_cxx5__ops15_Iter_comp_iterIN3ue219VertexIndexOrderingINS8_8NGHolderEEEEEEvT_SD_SD_SD_T0_@Base 4.2.0
 _ZSt25__unguarded_linear_insertIN9__gnu_cxx17__normal_iteratorIPN3ue212DAccelSchemeESt6vectorIS3_SaIS3_EEEENS0_5__ops14_Val_less_iterEEvT_T0_@Base 4.2.0
 _ZSt25__unguarded_linear_insertIN9__gnu_cxx17__normal_iteratorIPN3ue212SAccelSchemeESt6vectorIS3_SaIS3_EEEENS0_5__ops14_Val_less_iterEEvT_T0_@Base 4.2.0
 _ZSt25__unguarded_linear_insertIN9__gnu_cxx17__normal_iteratorIPN3ue29CharReachESt6vectorIS3_SaIS3_EEEENS0_5__ops14_Val_less_iterEEvT_T0_@Base 4.2.0
 _ZSt25__unguarded_linear_insertIN9__gnu_cxx17__normal_iteratorIPSt6vectorIN3ue29CharReachESaIS4_EES2_IS6_SaIS6_EEEENS0_5__ops14_Val_less_iterEEvT_T0_@Base 4.2.0
 _ZSt25__unguarded_linear_insertISt15_Deque_iteratorIPvRS1_PS1_EN9__gnu_cxx5__ops14_Val_comp_iterIN3ue219VertexIndexOrderingINS8_8NGHolderEEEEEEvT_T0_@Base 4.2.0
 _ZSt29__lexicographical_compare_auxISt23_Rb_tree_const_iteratorIN3ue210som_reportEES3_EbT_S4_T0_S5_@Base 4.2.0
 _ZSt29__lexicographical_compare_auxISt23_Rb_tree_const_iteratorIPvES2_EbT_S3_T0_S4_@Base 4.2.0
 _ZSt29__lexicographical_compare_auxISt23_Rb_tree_const_iteratorIjES1_EbT_S2_T0_S3_@Base 4.2.0
 _ZSt30__lexicographical_compare_implIPKSt4pairIPvN3ue213RoseEdgePropsEES6_N9__gnu_cxx5__ops15_Iter_less_iterEEbT_SA_T0_SB_T1_@Base 4.2.0
 _ZSt4copyISt14_List_iteratorIPvESt15_Deque_iteratorIS1_RS1_PS1_EET0_T_S8_S7_@Base 4.2.0
 _ZSt4moveIPvESt15_Deque_iteratorIT_RS2_PS2_ES1_IS2_RKS2_PS6_ES9_S5_@Base 4.2.0
 _ZSt4sortISt15_Deque_iteratorIPvRS1_PS1_EN3ue219VertexIndexOrderingINS5_8NGHolderEEEEvT_S9_T0_@Base 4.2.0
 _ZSt4swapIN3ue212DAccelSchemeEEvRT_S3_@Base 4.2.0
 _ZSt9__find_ifIN3ue211flat_detail12iter_wrapperIN9__gnu_cxx17__normal_iteratorIPKjSt6vectorIjSaIjEEEES5_EENS3_5__ops10_Iter_predIN5boost3_bi6bind_tIbNSE_4_mfi4cmf1IbNS0_13RoseBuildImplEjEENSF_5list2INSF_5valueIPSJ_EENSE_3argILi1EEEEEEEEEET_SU_SU_T0_St26random_access_iterator_tag@Base 4.2.0
 _ZSt9__find_ifIN9__gnu_cxx17__normal_iteratorIPKN3ue212PositionInfoESt6vectorIS3_SaIS3_EEEENS0_5__ops16_Iter_equals_valIKjEEET_SE_SE_T0_St26random_access_iterator_tag@Base 4.2.0
 _ZSt9__find_ifIN9__gnu_cxx17__normal_iteratorIPKPvSt6vectorIS2_SaIS2_EEEENS0_5__ops16_Iter_equals_valIS3_EEET_SC_SC_T0_St26random_access_iterator_tag@Base 4.2.0
 _ZSt9__find_ifIN9__gnu_cxx17__normal_iteratorIPN3ue211ue2_literalESt6vectorIS3_SaIS3_EEEENS0_5__ops10_Iter_predIPFbRKS3_EEEET_SG_SG_T0_St26random_access_iterator_tag@Base 4.2.0
 _ZSt9__find_ifIN9__gnu_cxx17__normal_iteratorIPN3ue212PositionInfoESt6vectorIS3_SaIS3_EEEENS0_5__ops16_Iter_equals_valIKjEEET_SD_SD_T0_St26random_access_iterator_tag@Base 4.2.0
 _ZSt9__find_ifIN9__gnu_cxx17__normal_iteratorIPN3ue215partitioned_setItE6subsetESt6vectorIS5_SaIS5_EEEENS0_5__ops12_Iter_negateIZNS4_C4ERKS7_ImSaImEEEUlRKS5_E_EEET_SL_SL_T0_St26random_access_iterator_tag@Base 4.2.0
 _ZSt9__find_ifIN9__gnu_cxx17__normal_iteratorIPN5boost14dynamic_bitsetImSaImEEESt6vectorIS5_SaIS5_EEEENS0_5__ops16_Iter_equals_valIKS5_EEET_SF_SF_T0_St26random_access_iterator_tag@Base 4.2.0
 _ZSt9__find_ifIN9__gnu_cxx17__normal_iteratorIPPvSt6vectorIS2_SaIS2_EEEENS0_5__ops16_Iter_equals_valIKS2_EEET_SC_SC_T0_St26random_access_iterator_tag@Base 4.2.0
 _ZSt9__find_ifISt13_Bit_iteratorN9__gnu_cxx5__ops16_Iter_equals_valIKbEEET_S6_S6_T0_St26random_access_iterator_tag@Base 4.2.0
 _ZSt9__find_ifISt19_Bit_const_iteratorN9__gnu_cxx5__ops16_Iter_equals_valIKbEEET_S6_S6_T0_St26random_access_iterator_tag@Base 4.2.0
 _ZSt9iter_swapIN9__gnu_cxx17__normal_iteratorIPSt4pairIjN3ue29suffix_idEESt6vectorIS5_SaIS5_EEEESA_EvT_T0_@Base 4.2.0
 _ZSteqIjSaIjEEbRKSt6vectorIT_T0_ES6_@Base 4.2.0
 _ZSteqImSaImEEbRKSt6vectorIT_T0_ES6_@Base 4.2.0
 _ZStltIN3ue28flat_setIjSt4lessIjESaIjEEENS0_14RoseSuffixInfoEEbRKSt4pairIT_T0_ESC_@Base 4.2.0
 _ZStltIN3ue29CharReachEhEbRKSt4pairIT_T0_ES7_@Base 4.2.0
 _ZTIN3ue210NFABuilderE@Base 4.2.0
 _ZTIN3ue210ParseErrorE@Base 4.2.0
 _ZTIN3ue211DumpVisitorE@Base 4.2.0
 _ZTIN3ue211GoughSSAVarE@Base 4.2.0
 _ZTIN3ue211raw_som_dfaE@Base 4.2.0
 _ZTIN3ue212CompileErrorE@Base 4.2.0
 _ZTIN3ue212ComponentEUSE@Base 4.2.0
 _ZTIN3ue213ComponentByteE@Base 4.2.0
 _ZTIN3ue213RoseBuildImplE@Base 4.2.0
 _ZTIN3ue213RoseDedupeAuxE@Base 4.2.0
 _ZTIN3ue214ComponentClassE@Base 4.2.0
 _ZTIN3ue214ComponentEmptyE@Base 4.2.0
 _ZTIN3ue214GoughSSAVarMinE@Base 4.2.0
 _ZTIN3ue214GoughSSAVarNewE@Base 4.2.0
 _ZTIN3ue215ComponentRepeatE@Base 4.2.0
 _ZTIN3ue215GoughSSAVarJoinE@Base 4.2.0
 _ZTIN3ue215SmallWriteBuildE@Base 4.2.0
 _ZTIN3ue215dfa_build_stratE@Base 4.2.0
 _ZTIN3ue215found_back_edgeE@Base 4.2.0
 _ZTIN3ue215raw_report_infoE@Base 4.2.0
 _ZTIN3ue216ComponentVisitorE@Base 4.2.0
 _ZTIN3ue216PrefilterVisitorE@Base 4.2.0
 _ZTIN3ue216ReferenceVisitorE@Base 4.2.0
 _ZTIN3ue217ComponentBoundaryE@Base 4.2.0
 _ZTIN3ue217ComponentSequenceE@Base 4.2.0
 _ZTIN3ue217EngineDescriptionE@Base 4.2.0
 _ZTIN3ue217LocatedParseErrorE@Base 4.2.0
 _ZTIN3ue217RoseDedupeAuxImplE@Base 4.2.0
 _ZTIN3ue218ComponentAssertionE@Base 4.2.0
 _ZTIN3ue218DepthOverflowErrorE@Base 4.2.0
 _ZTIN3ue218GlushkovBuildStateE@Base 4.2.0
 _ZTIN3ue218ResourceLimitErrorE@Base 4.2.0
 _ZTIN3ue218UTF8ComponentClassE@Base 4.2.0
 _ZTIN3ue218UnsupportedVisitorE@Base 4.2.0
 _ZTIN3ue219AsciiComponentClassE@Base 4.2.0
 _ZTIN3ue220ComponentAlternationE@Base 4.2.0
 _ZTIN3ue220ComponentAtomicGroupE@Base 4.2.0
 _ZTIN3ue220FDREngineDescriptionE@Base 4.2.0
 _ZTIN3ue221ComponentWordBoundaryE@Base 4.2.0
 _ZTIN3ue221ConstComponentVisitorE@Base 4.2.0
 _ZTIN3ue221GoughSSAVarWithInputsE@Base 4.2.0
 _ZTIN3ue221mcclellan_build_stratE@Base 4.2.0
 _ZTIN3ue222ComponentBackReferenceE@Base 4.2.0
 _ZTIN3ue222ComponentCondReferenceE@Base 4.2.0
 _ZTIN3ue222TeddyEngineDescriptionE@Base 4.2.0
 _ZTIN3ue223ConstructLiteralVisitor10NotLiteralE@Base 4.2.0
 _ZTIN3ue223ConstructLiteralVisitorE@Base 4.2.0
 _ZTIN3ue223DefaultComponentVisitorE@Base 4.2.0
 _ZTIN3ue228DefaultConstComponentVisitorE@Base 4.2.0
 _ZTIN3ue27raw_dfaE@Base 4.2.0
 _ZTIN3ue28NGHolderE@Base 4.2.0
 _ZTIN3ue29ComponentE@Base 4.2.0
 _ZTIN3ue29NGWrapperE@Base 4.2.0
 _ZTIN3ue29RoseBuildE@Base 4.2.0
 _ZTIN5boost11bfs_visitorINS_12null_visitorEEE@Base 4.2.0
 _ZTIN5boost12noncopyable_11noncopyableE@Base 4.2.0
 _ZTIN5boost16bad_lexical_castE@Base 4.2.0
 _ZTIN5boost16exception_detail10clone_baseE@Base 4.2.0
 _ZTIN5boost16exception_detail10clone_implINS0_19error_info_injectorINS_16bad_lexical_castEEEEE@Base 4.2.0
 _ZTIN5boost16exception_detail10clone_implINS0_19error_info_injectorINS_9not_a_dagEEEEE@Base 4.2.0
 _ZTIN5boost16exception_detail10clone_implINS0_19error_info_injectorISt12out_of_rangeEEEE@Base 4.2.0
 _ZTIN5boost16exception_detail19error_info_injectorINS_16bad_lexical_castEEE@Base 4.2.0
 _ZTIN5boost16exception_detail19error_info_injectorINS_9not_a_dagEEE@Base 4.2.0
 _ZTIN5boost16exception_detail19error_info_injectorISt12out_of_rangeEE@Base 4.2.0
 _ZTIN5boost27bad_ptr_container_operationE@Base 4.2.0
 _ZTIN5boost6detail15sp_counted_baseE@Base 4.2.0
 _ZTIN5boost6detail18sp_counted_impl_pdIPNS_18default_color_typeENS_21checked_array_deleterIS2_EEEE@Base 4.2.0
 _ZTIN5boost6detail18sp_counted_impl_pdIPhNS_21checked_array_deleterIhEEEE@Base 4.2.0
 _ZTIN5boost9bad_graphE@Base 4.2.0
 _ZTIN5boost9exceptionE@Base 4.2.0
 _ZTIN5boost9not_a_dagE@Base 4.2.0
 _ZTINSt7__cxx1112basic_stringIcSt11char_traitsIcESaIcEEE@Base 4.2.0
 _ZTIPKN3ue217ComponentSequenceE@Base 4.2.0
 _ZTISt11_Mutex_baseILN9__gnu_cxx12_Lock_policyE2EE@Base 4.2.0
 _ZTISt16_Sp_counted_baseILN9__gnu_cxx12_Lock_policyE2EE@Base 4.2.0
 _ZTISt19_Sp_counted_deleterIP3FDRN3ue214AlignedDeleterIS0_EESaIvELN9__gnu_cxx12_Lock_policyE2EE@Base 4.2.0
 _ZTISt19_Sp_counted_deleterIP9noodTableN3ue214AlignedDeleterIS0_EESaIvELN9__gnu_cxx12_Lock_policyE2EE@Base 4.2.0
 _ZTISt19_Sp_counted_deleterIPN3ue211raw_som_dfaESt14default_deleteIS1_ESaIvELN9__gnu_cxx12_Lock_policyE2EE@Base 4.2.0
 _ZTISt19_Sp_counted_deleterIPN3ue27raw_dfaESt14default_deleteIS1_ESaIvELN9__gnu_cxx12_Lock_policyE2EE@Base 4.2.0
 _ZTISt19_Sp_counted_deleterIPN3ue28NGHolderESt14default_deleteIS1_ESaIvELN9__gnu_cxx12_Lock_policyE2EE@Base 4.2.0
 _ZTISt19_Sp_make_shared_tag@Base 4.2.0
 _ZTISt23_Sp_counted_ptr_inplaceIN3ue211CastleProtoESaIS1_ELN9__gnu_cxx12_Lock_policyE2EE@Base 4.2.0
 _ZTISt23_Sp_counted_ptr_inplaceIN3ue211raw_som_dfaESaIS1_ELN9__gnu_cxx12_Lock_policyE2EE@Base 4.2.0
 _ZTISt23_Sp_counted_ptr_inplaceIN3ue214GoughSSAVarMinESaIS1_ELN9__gnu_cxx12_Lock_policyE2EE@Base 4.2.0
 _ZTISt23_Sp_counted_ptr_inplaceIN3ue214GoughSSAVarNewESaIS1_ELN9__gnu_cxx12_Lock_policyE2EE@Base 4.2.0
 _ZTISt23_Sp_counted_ptr_inplaceIN3ue215GoughSSAVarJoinESaIS1_ELN9__gnu_cxx12_Lock_policyE2EE@Base 4.2.0
 _ZTISt23_Sp_counted_ptr_inplaceIN3ue28NGHolderESaIS1_ELN9__gnu_cxx12_Lock_policyE2EE@Base 4.2.0
 _ZTSN3ue210NFABuilderE@Base 4.2.0
 _ZTSN3ue210ParseErrorE@Base 4.2.0
 _ZTSN3ue211DumpVisitorE@Base 4.2.0
 _ZTSN3ue211GoughSSAVarE@Base 4.2.0
 _ZTSN3ue211raw_som_dfaE@Base 4.2.0
 _ZTSN3ue212CompileErrorE@Base 4.2.0
 _ZTSN3ue212ComponentEUSE@Base 4.2.0
 _ZTSN3ue213ComponentByteE@Base 4.2.0
 _ZTSN3ue213RoseBuildImplE@Base 4.2.0
 _ZTSN3ue213RoseDedupeAuxE@Base 4.2.0
 _ZTSN3ue214AlignedDeleterI3FDREE@Base 4.2.0
 _ZTSN3ue214AlignedDeleterI9noodTableEE@Base 4.2.0
 _ZTSN3ue214ComponentClassE@Base 4.2.0
 _ZTSN3ue214ComponentEmptyE@Base 4.2.0
 _ZTSN3ue214GoughSSAVarMinE@Base 4.2.0
 _ZTSN3ue214GoughSSAVarNewE@Base 4.2.0
 _ZTSN3ue215ComponentRepeatE@Base 4.2.0
 _ZTSN3ue215GoughSSAVarJoinE@Base 4.2.0
 _ZTSN3ue215SmallWriteBuildE@Base 4.2.0
 _ZTSN3ue215dfa_build_stratE@Base 4.2.0
 _ZTSN3ue215found_back_edgeE@Base 4.2.0
 _ZTSN3ue215raw_report_infoE@Base 4.2.0
 _ZTSN3ue216ComponentVisitorE@Base 4.2.0
 _ZTSN3ue216PrefilterVisitorE@Base 4.2.0
 _ZTSN3ue216ReferenceVisitorE@Base 4.2.0
 _ZTSN3ue217ComponentBoundaryE@Base 4.2.0
 _ZTSN3ue217ComponentSequenceE@Base 4.2.0
 _ZTSN3ue217EngineDescriptionE@Base 4.2.0
 _ZTSN3ue217LocatedParseErrorE@Base 4.2.0
 _ZTSN3ue217RoseDedupeAuxImplE@Base 4.2.0
 _ZTSN3ue218ComponentAssertionE@Base 4.2.0
 _ZTSN3ue218DepthOverflowErrorE@Base 4.2.0
 _ZTSN3ue218GlushkovBuildStateE@Base 4.2.0
 _ZTSN3ue218ResourceLimitErrorE@Base 4.2.0
 _ZTSN3ue218UTF8ComponentClassE@Base 4.2.0
 _ZTSN3ue218UnsupportedVisitorE@Base 4.2.0
 _ZTSN3ue219AsciiComponentClassE@Base 4.2.0
 _ZTSN3ue220ComponentAlternationE@Base 4.2.0
 _ZTSN3ue220ComponentAtomicGroupE@Base 4.2.0
 _ZTSN3ue220FDREngineDescriptionE@Base 4.2.0
 _ZTSN3ue221ComponentWordBoundaryE@Base 4.2.0
 _ZTSN3ue221ConstComponentVisitorE@Base 4.2.0
 _ZTSN3ue221GoughSSAVarWithInputsE@Base 4.2.0
 _ZTSN3ue221mcclellan_build_stratE@Base 4.2.0
 _ZTSN3ue222ComponentBackReferenceE@Base 4.2.0
 _ZTSN3ue222ComponentCondReferenceE@Base 4.2.0
 _ZTSN3ue222TeddyEngineDescriptionE@Base 4.2.0
 _ZTSN3ue223ConstructLiteralVisitor10NotLiteralE@Base 4.2.0
 _ZTSN3ue223ConstructLiteralVisitorE@Base 4.2.0
 _ZTSN3ue223DefaultComponentVisitorE@Base 4.2.0
 _ZTSN3ue228DefaultConstComponentVisitorE@Base 4.2.0
 _ZTSN3ue27raw_dfaE@Base 4.2.0
 _ZTSN3ue28NGHolderE@Base 4.2.0
 _ZTSN3ue29ComponentE@Base 4.2.0
 _ZTSN3ue29NGWrapperE@Base 4.2.0
 _ZTSN3ue29RoseBuildE@Base 4.2.0
 _ZTSN5boost11bfs_visitorINS_12null_visitorEEE@Base 4.2.0
 _ZTSN5boost12noncopyable_11noncopyableE@Base 4.2.0
 _ZTSN5boost16bad_lexical_castE@Base 4.2.0
 _ZTSN5boost16exception_detail10clone_baseE@Base 4.2.0
 _ZTSN5boost16exception_detail10clone_implINS0_19error_info_injectorINS_16bad_lexical_castEEEEE@Base 4.2.0
 _ZTSN5boost16exception_detail10clone_implINS0_19error_info_injectorINS_9not_a_dagEEEEE@Base 4.2.0
 _ZTSN5boost16exception_detail10clone_implINS0_19error_info_injectorISt12out_of_rangeEEEE@Base 4.2.0
 _ZTSN5boost16exception_detail19error_info_injectorINS_16bad_lexical_castEEE@Base 4.2.0
 _ZTSN5boost16exception_detail19error_info_injectorINS_9not_a_dagEEE@Base 4.2.0
 _ZTSN5boost16exception_detail19error_info_injectorISt12out_of_rangeEE@Base 4.2.0
 _ZTSN5boost21checked_array_deleterINS_18default_color_typeEEE@Base 4.2.0
 _ZTSN5boost21checked_array_deleterIhEE@Base 4.2.0
 _ZTSN5boost27bad_ptr_container_operationE@Base 4.2.0
 _ZTSN5boost6detail15sp_counted_baseE@Base 4.2.0
 _ZTSN5boost6detail18sp_counted_impl_pdIPNS_18default_color_typeENS_21checked_array_deleterIS2_EEEE@Base 4.2.0
 _ZTSN5boost6detail18sp_counted_impl_pdIPhNS_21checked_array_deleterIhEEEE@Base 4.2.0
 _ZTSN5boost9bad_graphE@Base 4.2.0
 _ZTSN5boost9exceptionE@Base 4.2.0
 _ZTSN5boost9not_a_dagE@Base 4.2.0
 _ZTSNSt7__cxx1112basic_stringIcSt11char_traitsIcESaIcEEE@Base 4.2.0
 _ZTSPKN3ue217ComponentSequenceE@Base 4.2.0
 _ZTSSt11_Mutex_baseILN9__gnu_cxx12_Lock_policyE2EE@Base 4.2.0
 _ZTSSt14default_deleteIN3ue211raw_som_dfaEE@Base 4.2.0
 _ZTSSt14default_deleteIN3ue27raw_dfaEE@Base 4.2.0
 _ZTSSt14default_deleteIN3ue28NGHolderEE@Base 4.2.0
 _ZTSSt16_Sp_counted_baseILN9__gnu_cxx12_Lock_policyE2EE@Base 4.2.0
 _ZTSSt19_Sp_counted_deleterIP3FDRN3ue214AlignedDeleterIS0_EESaIvELN9__gnu_cxx12_Lock_policyE2EE@Base 4.2.0
 _ZTSSt19_Sp_counted_deleterIP9noodTableN3ue214AlignedDeleterIS0_EESaIvELN9__gnu_cxx12_Lock_policyE2EE@Base 4.2.0
 _ZTSSt19_Sp_counted_deleterIPN3ue211raw_som_dfaESt14default_deleteIS1_ESaIvELN9__gnu_cxx12_Lock_policyE2EE@Base 4.2.0
 _ZTSSt19_Sp_counted_deleterIPN3ue27raw_dfaESt14default_deleteIS1_ESaIvELN9__gnu_cxx12_Lock_policyE2EE@Base 4.2.0
 _ZTSSt19_Sp_counted_deleterIPN3ue28NGHolderESt14default_deleteIS1_ESaIvELN9__gnu_cxx12_Lock_policyE2EE@Base 4.2.0
 _ZTSSt19_Sp_make_shared_tag@Base 4.2.0
 _ZTSSt23_Sp_counted_ptr_inplaceIN3ue211CastleProtoESaIS1_ELN9__gnu_cxx12_Lock_policyE2EE@Base 4.2.0
 _ZTSSt23_Sp_counted_ptr_inplaceIN3ue211raw_som_dfaESaIS1_ELN9__gnu_cxx12_Lock_policyE2EE@Base 4.2.0
 _ZTSSt23_Sp_counted_ptr_inplaceIN3ue214GoughSSAVarMinESaIS1_ELN9__gnu_cxx12_Lock_policyE2EE@Base 4.2.0
 _ZTSSt23_Sp_counted_ptr_inplaceIN3ue214GoughSSAVarNewESaIS1_ELN9__gnu_cxx12_Lock_policyE2EE@Base 4.2.0
 _ZTSSt23_Sp_counted_ptr_inplaceIN3ue215GoughSSAVarJoinESaIS1_ELN9__gnu_cxx12_Lock_policyE2EE@Base 4.2.0
 _ZTSSt23_Sp_counted_ptr_inplaceIN3ue28NGHolderESaIS1_ELN9__gnu_cxx12_Lock_policyE2EE@Base 4.2.0
 _ZTTN5boost16exception_detail10clone_implINS0_19error_info_injectorINS_16bad_lexical_castEEEEE@Base 4.2.0
 _ZTTN5boost16exception_detail10clone_implINS0_19error_info_injectorINS_9not_a_dagEEEEE@Base 4.2.0
 _ZTTN5boost16exception_detail10clone_implINS0_19error_info_injectorISt12out_of_rangeEEEE@Base 4.2.0
 _ZTVN3ue210NFABuilderE@Base 4.2.0
 _ZTVN3ue210ParseErrorE@Base 4.2.0
 _ZTVN3ue211DumpVisitorE@Base 4.2.0
 _ZTVN3ue211GoughSSAVarE@Base 4.2.0
 _ZTVN3ue211raw_som_dfaE@Base 4.2.0
 _ZTVN3ue212CompileErrorE@Base 4.2.0
 _ZTVN3ue212ComponentEUSE@Base 4.2.0
 _ZTVN3ue213ComponentByteE@Base 4.2.0
 _ZTVN3ue213RoseBuildImplE@Base 4.2.0
 _ZTVN3ue213RoseDedupeAuxE@Base 4.2.0
 _ZTVN3ue214ComponentClassE@Base 4.2.0
 _ZTVN3ue214ComponentEmptyE@Base 4.2.0
 _ZTVN3ue214GoughSSAVarMinE@Base 4.2.0
 _ZTVN3ue214GoughSSAVarNewE@Base 4.2.0
 _ZTVN3ue215ComponentRepeatE@Base 4.2.0
 _ZTVN3ue215GoughSSAVarJoinE@Base 4.2.0
 _ZTVN3ue215SmallWriteBuildE@Base 4.2.0
 _ZTVN3ue215dfa_build_stratE@Base 4.2.0
 _ZTVN3ue215raw_report_infoE@Base 4.2.0
 _ZTVN3ue216ComponentVisitorE@Base 4.2.0
 _ZTVN3ue216PrefilterVisitorE@Base 4.2.0
 _ZTVN3ue216ReferenceVisitorE@Base 4.2.0
 _ZTVN3ue217ComponentBoundaryE@Base 4.2.0
 _ZTVN3ue217ComponentSequenceE@Base 4.2.0
 _ZTVN3ue217EngineDescriptionE@Base 4.2.0
 _ZTVN3ue217LocatedParseErrorE@Base 4.2.0
 _ZTVN3ue217RoseDedupeAuxImplE@Base 4.2.0
 _ZTVN3ue218ComponentAssertionE@Base 4.2.0
 _ZTVN3ue218GlushkovBuildStateE@Base 4.2.0
 _ZTVN3ue218ResourceLimitErrorE@Base 4.2.0
 _ZTVN3ue218UTF8ComponentClassE@Base 4.2.0
 _ZTVN3ue218UnsupportedVisitorE@Base 4.2.0
 _ZTVN3ue219AsciiComponentClassE@Base 4.2.0
 _ZTVN3ue220ComponentAlternationE@Base 4.2.0
 _ZTVN3ue220ComponentAtomicGroupE@Base 4.2.0
 _ZTVN3ue220FDREngineDescriptionE@Base 4.2.0
 _ZTVN3ue221ComponentWordBoundaryE@Base 4.2.0
 _ZTVN3ue221ConstComponentVisitorE@Base 4.2.0
 _ZTVN3ue221GoughSSAVarWithInputsE@Base 4.2.0
 _ZTVN3ue221mcclellan_build_stratE@Base 4.2.0
 _ZTVN3ue222ComponentBackReferenceE@Base 4.2.0
 _ZTVN3ue222ComponentCondReferenceE@Base 4.2.0
 _ZTVN3ue222TeddyEngineDescriptionE@Base 4.2.0
 _ZTVN3ue223ConstructLiteralVisitorE@Base 4.2.0
 _ZTVN3ue223DefaultComponentVisitorE@Base 4.2.0
 _ZTVN3ue228DefaultConstComponentVisitorE@Base 4.2.0
 _ZTVN3ue27raw_dfaE@Base 4.2.0
 _ZTVN3ue28NGHolderE@Base 4.2.0
 _ZTVN3ue29ComponentE@Base 4.2.0
 _ZTVN3ue29NGWrapperE@Base 4.2.0
 _ZTVN3ue29RoseBuildE@Base 4.2.0
 _ZTVN5boost16bad_lexical_castE@Base 4.2.0
 _ZTVN5boost16exception_detail10clone_baseE@Base 4.2.0
 _ZTVN5boost16exception_detail10clone_implINS0_19error_info_injectorINS_16bad_lexical_castEEEEE@Base 4.2.0
 _ZTVN5boost16exception_detail10clone_implINS0_19error_info_injectorINS_9not_a_dagEEEEE@Base 4.2.0
 _ZTVN5boost16exception_detail10clone_implINS0_19error_info_injectorISt12out_of_rangeEEEE@Base 4.2.0
 _ZTVN5boost16exception_detail19error_info_injectorINS_16bad_lexical_castEEE@Base 4.2.0
 _ZTVN5boost16exception_detail19error_info_injectorINS_9not_a_dagEEE@Base 4.2.0
 _ZTVN5boost16exception_detail19error_info_injectorISt12out_of_rangeEE@Base 4.2.0
 _ZTVN5boost27bad_ptr_container_operationE@Base 4.2.0
 _ZTVN5boost6detail18sp_counted_impl_pdIPNS_18default_color_typeENS_21checked_array_deleterIS2_EEEE@Base 4.2.0
 _ZTVN5boost6detail18sp_counted_impl_pdIPhNS_21checked_array_deleterIhEEEE@Base 4.2.0
 _ZTVN5boost9bad_graphE@Base 4.2.0
 _ZTVN5boost9exceptionE@Base 4.2.0
 _ZTVN5boost9not_a_dagE@Base 4.2.0
 _ZTVSt19_Sp_counted_deleterIP3FDRN3ue214AlignedDeleterIS0_EESaIvELN9__gnu_cxx12_Lock_policyE2EE@Base 4.2.0
 _ZTVSt19_Sp_counted_deleterIP9noodTableN3ue214AlignedDeleterIS0_EESaIvELN9__gnu_cxx12_Lock_policyE2EE@Base 4.2.0
 _ZTVSt19_Sp_counted_deleterIPN3ue211raw_som_dfaESt14default_deleteIS1_ESaIvELN9__gnu_cxx12_Lock_policyE2EE@Base 4.2.0
 _ZTVSt19_Sp_counted_deleterIPN3ue27raw_dfaESt14default_deleteIS1_ESaIvELN9__gnu_cxx12_Lock_policyE2EE@Base 4.2.0
 _ZTVSt19_Sp_counted_deleterIPN3ue28NGHolderESt14default_deleteIS1_ESaIvELN9__gnu_cxx12_Lock_policyE2EE@Base 4.2.0
 _ZTVSt23_Sp_counted_ptr_inplaceIN3ue211CastleProtoESaIS1_ELN9__gnu_cxx12_Lock_policyE2EE@Base 4.2.0
 _ZTVSt23_Sp_counted_ptr_inplaceIN3ue211raw_som_dfaESaIS1_ELN9__gnu_cxx12_Lock_policyE2EE@Base 4.2.0
 _ZTVSt23_Sp_counted_ptr_inplaceIN3ue214GoughSSAVarMinESaIS1_ELN9__gnu_cxx12_Lock_policyE2EE@Base 4.2.0
 _ZTVSt23_Sp_counted_ptr_inplaceIN3ue214GoughSSAVarNewESaIS1_ELN9__gnu_cxx12_Lock_policyE2EE@Base 4.2.0
 _ZTVSt23_Sp_counted_ptr_inplaceIN3ue215GoughSSAVarJoinESaIS1_ELN9__gnu_cxx12_Lock_policyE2EE@Base 4.2.0
 _ZTVSt23_Sp_counted_ptr_inplaceIN3ue28NGHolderESaIS1_ELN9__gnu_cxx12_Lock_policyE2EE@Base 4.2.0
 _ZThn16_N5boost16exception_detail10clone_implINS0_19error_info_injectorINS_9not_a_dagEEEED0Ev@Base 4.2.0
 _ZThn16_N5boost16exception_detail10clone_implINS0_19error_info_injectorINS_9not_a_dagEEEED1Ev@Base 4.2.0
 _ZThn16_N5boost16exception_detail10clone_implINS0_19error_info_injectorISt12out_of_rangeEEED0Ev@Base 4.2.0
 _ZThn16_N5boost16exception_detail10clone_implINS0_19error_info_injectorISt12out_of_rangeEEED1Ev@Base 4.2.0
 _ZThn16_N5boost16exception_detail19error_info_injectorINS_9not_a_dagEED0Ev@Base 4.2.0
 _ZThn16_N5boost16exception_detail19error_info_injectorINS_9not_a_dagEED1Ev@Base 4.2.0
 _ZThn16_N5boost16exception_detail19error_info_injectorISt12out_of_rangeED0Ev@Base 4.2.0
 _ZThn16_N5boost16exception_detail19error_info_injectorISt12out_of_rangeED1Ev@Base 4.2.0
 _ZThn24_N5boost16exception_detail10clone_implINS0_19error_info_injectorINS_16bad_lexical_castEEEED0Ev@Base 4.2.0
 _ZThn24_N5boost16exception_detail10clone_implINS0_19error_info_injectorINS_16bad_lexical_castEEEED1Ev@Base 4.2.0
 _ZThn24_N5boost16exception_detail19error_info_injectorINS_16bad_lexical_castEED0Ev@Base 4.2.0
 _ZThn24_N5boost16exception_detail19error_info_injectorINS_16bad_lexical_castEED1Ev@Base 4.2.0
 _ZTv0_n24_NK5boost16exception_detail10clone_implINS0_19error_info_injectorINS_16bad_lexical_castEEEE5cloneEv@Base 4.2.0
 _ZTv0_n24_NK5boost16exception_detail10clone_implINS0_19error_info_injectorINS_9not_a_dagEEEE5cloneEv@Base 4.2.0
 _ZTv0_n24_NK5boost16exception_detail10clone_implINS0_19error_info_injectorISt12out_of_rangeEEE5cloneEv@Base 4.2.0
 _ZTv0_n32_NK5boost16exception_detail10clone_implINS0_19error_info_injectorINS_16bad_lexical_castEEEE7rethrowEv@Base 4.2.0
 _ZTv0_n32_NK5boost16exception_detail10clone_implINS0_19error_info_injectorINS_9not_a_dagEEEE7rethrowEv@Base 4.2.0
 _ZTv0_n32_NK5boost16exception_detail10clone_implINS0_19error_info_injectorISt12out_of_rangeEEE7rethrowEv@Base 4.2.0
 _ZTv0_n40_N5boost16exception_detail10clone_implINS0_19error_info_injectorINS_16bad_lexical_castEEEED0Ev@Base 4.2.0
 _ZTv0_n40_N5boost16exception_detail10clone_implINS0_19error_info_injectorINS_16bad_lexical_castEEEED1Ev@Base 4.2.0
 _ZTv0_n40_N5boost16exception_detail10clone_implINS0_19error_info_injectorINS_9not_a_dagEEEED0Ev@Base 4.2.0
 _ZTv0_n40_N5boost16exception_detail10clone_implINS0_19error_info_injectorINS_9not_a_dagEEEED1Ev@Base 4.2.0
 _ZTv0_n40_N5boost16exception_detail10clone_implINS0_19error_info_injectorISt12out_of_rangeEEED0Ev@Base 4.2.0
 _ZTv0_n40_N5boost16exception_detail10clone_implINS0_19error_info_injectorISt12out_of_rangeEEED1Ev@Base 4.2.0
 _ZZN5boost3icl16identity_elementINS0_15closed_intervalIjSt4lessEEE5valueEvE6_value@Base 4.2.0
 _ZZN5boost3icl16identity_elementIjE5valueEvE6_value@Base 4.2.0
 blockInitSufPQ@Base 4.2.0
 cpuid_flags@Base 4.2.0
 cpuid_tune@Base 4.2.0
 dbCreate@Base 4.2.0
 dbIsValid@Base 4.2.0
 doAccel128@Base 4.2.0
 doAccel256@Base 4.2.0
 doAccel32@Base 4.2.0
 doAccel384@Base 4.2.0
 doAccel512@Base 4.2.0
 doubleshift_shuftiExec@Base 4.2.0
 doubleshift_truffleExec@Base 4.2.0
 doubleshift_vermicelliExec@Base 4.2.0
 doubleshiftgrab_shuftiExec@Base 4.2.0
 doubleshiftgrab_truffleExec@Base 4.2.0
 doubleshiftgrab_vermicelliExec@Base 4.2.0
 fatbit_size@Base 4.2.0
 fdrExec@Base 4.2.0
 fdrExecStreaming@Base 4.2.0
 fdrStreamStateActive@Base 4.2.0
 fdr_exec_teddy_msks1@Base 4.2.0
 fdr_exec_teddy_msks1_pck@Base 4.2.0
 fdr_exec_teddy_msks2@Base 4.2.0
 fdr_exec_teddy_msks2_pck@Base 4.2.0
 fdr_exec_teddy_msks3@Base 4.2.0
 fdr_exec_teddy_msks3_pck@Base 4.2.0
 fdr_exec_teddy_msks4@Base 4.2.0
 fdr_exec_teddy_msks4_pck@Base 4.2.0
 flushQueuedLiterals_i@Base 4.2.0
 flushStoredSomMatches_i@Base 4.2.0
 handleSomExternal@Base 4.2.0
 handleSomInternal@Base 4.2.0
 hs_alloc_scratch@Base 4.2.0
 hs_clone_scratch@Base 4.2.0
 hs_close_stream@Base 4.2.0
 hs_compile@Base 4.2.0
 hs_compile_ext_multi@Base 4.2.0
 hs_compile_multi@Base 4.2.0
 hs_copy_stream@Base 4.2.0
 hs_database_alloc@Base 4.2.0
 hs_database_free@Base 4.2.0
 hs_database_info@Base 4.2.0
 hs_database_size@Base 4.2.0
 hs_deserialize_database@Base 4.2.0
 hs_deserialize_database_at@Base 4.2.0
 hs_einternal@Base 4.2.0
 hs_enomem@Base 4.2.0
 hs_expression_ext_info@Base 4.2.0
 hs_expression_info@Base 4.2.0
 hs_free_compile_error@Base 4.2.0
 hs_free_database@Base 4.2.0
 hs_free_scratch@Base 4.2.0
 hs_misc_alloc@Base 4.2.0
 hs_misc_free@Base 4.2.0
 hs_open_stream@Base 4.2.0
 hs_populate_platform@Base 4.2.0
 hs_reset_and_copy_stream@Base 4.2.0
 hs_reset_stream@Base 4.2.0
 hs_scan@Base 4.2.0
 hs_scan_stream@Base 4.2.0
 hs_scan_vector@Base 4.2.0
 hs_scratch_alloc@Base 4.2.0
 hs_scratch_free@Base 4.2.0
 hs_scratch_size@Base 4.2.0
 hs_serialize_database@Base 4.2.0
 hs_serialized_database_info@Base 4.2.0
 hs_serialized_database_size@Base 4.2.0
 hs_set_allocator@Base 4.2.0
 hs_set_database_allocator@Base 4.2.0
 hs_set_misc_allocator@Base 4.2.0
 hs_set_scratch_allocator@Base 4.2.0
 hs_set_stream_allocator@Base 4.2.0
 hs_stream_alloc@Base 4.2.0
 hs_stream_free@Base 4.2.0
 hs_stream_size@Base 4.2.0
 hs_version@Base 4.2.0
 hwlmExec@Base 4.2.0
 hwlmExecStreaming@Base 4.2.0
 loadSomFromStream@Base 4.2.0
 loadcompressed128@Base 4.2.0
 loadcompressed256@Base 4.2.0
 loadcompressed32@Base 4.2.0
 loadcompressed384@Base 4.2.0
 loadcompressed512@Base 4.2.0
 loadcompressed64@Base 4.2.0
 long_shuftiExec@Base 4.2.0
 long_truffleExec@Base 4.2.0
 long_vermicelliExec@Base 4.2.0
 longgrab_shuftiExec@Base 4.2.0
 longgrab_truffleExec@Base 4.2.0
 longgrab_vermicelliExec@Base 4.2.0
 mmbit_keyshift_lut@Base 4.2.0
 mmbit_maxlevel_direct_lut@Base 4.2.0
 mmbit_maxlevel_from_keyshift_lut@Base 4.2.0
 mmbit_root_offset_from_level@Base 4.2.0
 mmbit_size@Base 4.2.0
 mmbit_sparse_iter_dump@Base 4.2.0
 mmbit_zero_to_lut@Base 4.2.0
 nfaBlockExecReverse@Base 4.2.0
 nfaCheckFinalState@Base 4.2.0
 nfaExecCastle0_Q2@Base 4.2.0
 nfaExecCastle0_Q@Base 4.2.0
 nfaExecCastle0_QR@Base 4.2.0
 nfaExecCastle0_expandState@Base 4.2.0
 nfaExecCastle0_inAccept@Base 4.2.0
 nfaExecCastle0_initCompressedState@Base 4.2.0
 nfaExecCastle0_queueCompressState@Base 4.2.0
 nfaExecCastle0_queueInitState@Base 4.2.0
 nfaExecCastle0_reportCurrent@Base 4.2.0
 nfaExecGough16_Q2@Base 4.2.0
 nfaExecGough16_Q@Base 4.2.0
 nfaExecGough16_QR@Base 4.2.0
 nfaExecGough16_expandState@Base 4.2.0
 nfaExecGough16_inAccept@Base 4.2.0
 nfaExecGough16_initCompressedState@Base 4.2.0
 nfaExecGough16_queueCompressState@Base 4.2.0
 nfaExecGough16_queueInitState@Base 4.2.0
 nfaExecGough16_reportCurrent@Base 4.2.0
 nfaExecGough16_testEOD@Base 4.2.0
 nfaExecGough8_Q2@Base 4.2.0
 nfaExecGough8_Q@Base 4.2.0
 nfaExecGough8_QR@Base 4.2.0
 nfaExecGough8_expandState@Base 4.2.0
 nfaExecGough8_inAccept@Base 4.2.0
 nfaExecGough8_initCompressedState@Base 4.2.0
 nfaExecGough8_queueCompressState@Base 4.2.0
 nfaExecGough8_queueInitState@Base 4.2.0
 nfaExecGough8_reportCurrent@Base 4.2.0
 nfaExecGough8_testEOD@Base 4.2.0
 nfaExecLbrDot_Q2@Base 4.2.0
 nfaExecLbrDot_Q@Base 4.2.0
 nfaExecLbrDot_QR@Base 4.2.0
 nfaExecLbrDot_expandState@Base 4.2.0
 nfaExecLbrDot_inAccept@Base 4.2.0
 nfaExecLbrDot_initCompressedState@Base 4.2.0
 nfaExecLbrDot_queueCompressState@Base 4.2.0
 nfaExecLbrDot_queueInitState@Base 4.2.0
 nfaExecLbrDot_reportCurrent@Base 4.2.0
 nfaExecLbrNVerm_Q2@Base 4.2.0
 nfaExecLbrNVerm_Q@Base 4.2.0
 nfaExecLbrNVerm_QR@Base 4.2.0
 nfaExecLbrNVerm_expandState@Base 4.2.0
 nfaExecLbrNVerm_inAccept@Base 4.2.0
 nfaExecLbrNVerm_initCompressedState@Base 4.2.0
 nfaExecLbrNVerm_queueCompressState@Base 4.2.0
 nfaExecLbrNVerm_queueInitState@Base 4.2.0
 nfaExecLbrNVerm_reportCurrent@Base 4.2.0
 nfaExecLbrShuf_Q2@Base 4.2.0
 nfaExecLbrShuf_Q@Base 4.2.0
 nfaExecLbrShuf_QR@Base 4.2.0
 nfaExecLbrShuf_expandState@Base 4.2.0
 nfaExecLbrShuf_inAccept@Base 4.2.0
 nfaExecLbrShuf_initCompressedState@Base 4.2.0
 nfaExecLbrShuf_queueCompressState@Base 4.2.0
 nfaExecLbrShuf_queueInitState@Base 4.2.0
 nfaExecLbrShuf_reportCurrent@Base 4.2.0
 nfaExecLbrTruf_Q2@Base 4.2.0
 nfaExecLbrTruf_Q@Base 4.2.0
 nfaExecLbrTruf_QR@Base 4.2.0
 nfaExecLbrTruf_expandState@Base 4.2.0
 nfaExecLbrTruf_inAccept@Base 4.2.0
 nfaExecLbrTruf_initCompressedState@Base 4.2.0
 nfaExecLbrTruf_queueCompressState@Base 4.2.0
 nfaExecLbrTruf_queueInitState@Base 4.2.0
 nfaExecLbrTruf_reportCurrent@Base 4.2.0
 nfaExecLbrVerm_Q2@Base 4.2.0
 nfaExecLbrVerm_Q@Base 4.2.0
 nfaExecLbrVerm_QR@Base 4.2.0
 nfaExecLbrVerm_expandState@Base 4.2.0
 nfaExecLbrVerm_inAccept@Base 4.2.0
 nfaExecLbrVerm_initCompressedState@Base 4.2.0
 nfaExecLbrVerm_queueCompressState@Base 4.2.0
 nfaExecLbrVerm_queueInitState@Base 4.2.0
 nfaExecLbrVerm_reportCurrent@Base 4.2.0
 nfaExecLimEx128_1_B_Reverse@Base 4.2.0
 nfaExecLimEx128_1_Q2@Base 4.2.0
 nfaExecLimEx128_1_Q@Base 4.2.0
 nfaExecLimEx128_1_QR@Base 4.2.0
 nfaExecLimEx128_1_expandState@Base 4.2.0
 nfaExecLimEx128_1_inAccept@Base 4.2.0
 nfaExecLimEx128_1_initCompressedState@Base 4.2.0
 nfaExecLimEx128_1_queueCompressState@Base 4.2.0
 nfaExecLimEx128_1_queueInitState@Base 4.2.0
 nfaExecLimEx128_1_reportCurrent@Base 4.2.0
 nfaExecLimEx128_1_testEOD@Base 4.2.0
 nfaExecLimEx128_1_zombie_status@Base 4.2.0
 nfaExecLimEx128_2_B_Reverse@Base 4.2.0
 nfaExecLimEx128_2_Q2@Base 4.2.0
 nfaExecLimEx128_2_Q@Base 4.2.0
 nfaExecLimEx128_2_QR@Base 4.2.0
 nfaExecLimEx128_2_expandState@Base 4.2.0
 nfaExecLimEx128_2_inAccept@Base 4.2.0
 nfaExecLimEx128_2_initCompressedState@Base 4.2.0
 nfaExecLimEx128_2_queueCompressState@Base 4.2.0
 nfaExecLimEx128_2_queueInitState@Base 4.2.0
 nfaExecLimEx128_2_reportCurrent@Base 4.2.0
 nfaExecLimEx128_2_testEOD@Base 4.2.0
 nfaExecLimEx128_2_zombie_status@Base 4.2.0
 nfaExecLimEx128_3_B_Reverse@Base 4.2.0
 nfaExecLimEx128_3_Q2@Base 4.2.0
 nfaExecLimEx128_3_Q@Base 4.2.0
 nfaExecLimEx128_3_QR@Base 4.2.0
 nfaExecLimEx128_3_expandState@Base 4.2.0
 nfaExecLimEx128_3_inAccept@Base 4.2.0
 nfaExecLimEx128_3_initCompressedState@Base 4.2.0
 nfaExecLimEx128_3_queueCompressState@Base 4.2.0
 nfaExecLimEx128_3_queueInitState@Base 4.2.0
 nfaExecLimEx128_3_reportCurrent@Base 4.2.0
 nfaExecLimEx128_3_testEOD@Base 4.2.0
 nfaExecLimEx128_3_zombie_status@Base 4.2.0
 nfaExecLimEx128_4_B_Reverse@Base 4.2.0
 nfaExecLimEx128_4_Q2@Base 4.2.0
 nfaExecLimEx128_4_Q@Base 4.2.0
 nfaExecLimEx128_4_QR@Base 4.2.0
 nfaExecLimEx128_4_expandState@Base 4.2.0
 nfaExecLimEx128_4_inAccept@Base 4.2.0
 nfaExecLimEx128_4_initCompressedState@Base 4.2.0
 nfaExecLimEx128_4_queueCompressState@Base 4.2.0
 nfaExecLimEx128_4_queueInitState@Base 4.2.0
 nfaExecLimEx128_4_reportCurrent@Base 4.2.0
 nfaExecLimEx128_4_testEOD@Base 4.2.0
 nfaExecLimEx128_4_zombie_status@Base 4.2.0
 nfaExecLimEx128_5_B_Reverse@Base 4.2.0
 nfaExecLimEx128_5_Q2@Base 4.2.0
 nfaExecLimEx128_5_Q@Base 4.2.0
 nfaExecLimEx128_5_QR@Base 4.2.0
 nfaExecLimEx128_5_expandState@Base 4.2.0
 nfaExecLimEx128_5_inAccept@Base 4.2.0
 nfaExecLimEx128_5_initCompressedState@Base 4.2.0
 nfaExecLimEx128_5_queueCompressState@Base 4.2.0
 nfaExecLimEx128_5_queueInitState@Base 4.2.0
 nfaExecLimEx128_5_reportCurrent@Base 4.2.0
 nfaExecLimEx128_5_testEOD@Base 4.2.0
 nfaExecLimEx128_5_zombie_status@Base 4.2.0
 nfaExecLimEx128_6_B_Reverse@Base 4.2.0
 nfaExecLimEx128_6_Q2@Base 4.2.0
 nfaExecLimEx128_6_Q@Base 4.2.0
 nfaExecLimEx128_6_QR@Base 4.2.0
 nfaExecLimEx128_6_expandState@Base 4.2.0
 nfaExecLimEx128_6_inAccept@Base 4.2.0
 nfaExecLimEx128_6_initCompressedState@Base 4.2.0
 nfaExecLimEx128_6_queueCompressState@Base 4.2.0
 nfaExecLimEx128_6_queueInitState@Base 4.2.0
 nfaExecLimEx128_6_reportCurrent@Base 4.2.0
 nfaExecLimEx128_6_testEOD@Base 4.2.0
 nfaExecLimEx128_6_zombie_status@Base 4.2.0
 nfaExecLimEx128_7_B_Reverse@Base 4.2.0
 nfaExecLimEx128_7_Q2@Base 4.2.0
 nfaExecLimEx128_7_Q@Base 4.2.0
 nfaExecLimEx128_7_QR@Base 4.2.0
 nfaExecLimEx128_7_expandState@Base 4.2.0
 nfaExecLimEx128_7_inAccept@Base 4.2.0
 nfaExecLimEx128_7_initCompressedState@Base 4.2.0
 nfaExecLimEx128_7_queueCompressState@Base 4.2.0
 nfaExecLimEx128_7_queueInitState@Base 4.2.0
 nfaExecLimEx128_7_reportCurrent@Base 4.2.0
 nfaExecLimEx128_7_testEOD@Base 4.2.0
 nfaExecLimEx128_7_zombie_status@Base 4.2.0
 nfaExecLimEx256_1_B_Reverse@Base 4.2.0
 nfaExecLimEx256_1_Q2@Base 4.2.0
 nfaExecLimEx256_1_Q@Base 4.2.0
 nfaExecLimEx256_1_QR@Base 4.2.0
 nfaExecLimEx256_1_expandState@Base 4.2.0
 nfaExecLimEx256_1_inAccept@Base 4.2.0
 nfaExecLimEx256_1_initCompressedState@Base 4.2.0
 nfaExecLimEx256_1_queueCompressState@Base 4.2.0
 nfaExecLimEx256_1_queueInitState@Base 4.2.0
 nfaExecLimEx256_1_reportCurrent@Base 4.2.0
 nfaExecLimEx256_1_testEOD@Base 4.2.0
 nfaExecLimEx256_1_zombie_status@Base 4.2.0
 nfaExecLimEx256_2_B_Reverse@Base 4.2.0
 nfaExecLimEx256_2_Q2@Base 4.2.0
 nfaExecLimEx256_2_Q@Base 4.2.0
 nfaExecLimEx256_2_QR@Base 4.2.0
 nfaExecLimEx256_2_expandState@Base 4.2.0
 nfaExecLimEx256_2_inAccept@Base 4.2.0
 nfaExecLimEx256_2_initCompressedState@Base 4.2.0
 nfaExecLimEx256_2_queueCompressState@Base 4.2.0
 nfaExecLimEx256_2_queueInitState@Base 4.2.0
 nfaExecLimEx256_2_reportCurrent@Base 4.2.0
 nfaExecLimEx256_2_testEOD@Base 4.2.0
 nfaExecLimEx256_2_zombie_status@Base 4.2.0
 nfaExecLimEx256_3_B_Reverse@Base 4.2.0
 nfaExecLimEx256_3_Q2@Base 4.2.0
 nfaExecLimEx256_3_Q@Base 4.2.0
 nfaExecLimEx256_3_QR@Base 4.2.0
 nfaExecLimEx256_3_expandState@Base 4.2.0
 nfaExecLimEx256_3_inAccept@Base 4.2.0
 nfaExecLimEx256_3_initCompressedState@Base 4.2.0
 nfaExecLimEx256_3_queueCompressState@Base 4.2.0
 nfaExecLimEx256_3_queueInitState@Base 4.2.0
 nfaExecLimEx256_3_reportCurrent@Base 4.2.0
 nfaExecLimEx256_3_testEOD@Base 4.2.0
 nfaExecLimEx256_3_zombie_status@Base 4.2.0
 nfaExecLimEx256_4_B_Reverse@Base 4.2.0
 nfaExecLimEx256_4_Q2@Base 4.2.0
 nfaExecLimEx256_4_Q@Base 4.2.0
 nfaExecLimEx256_4_QR@Base 4.2.0
 nfaExecLimEx256_4_expandState@Base 4.2.0
 nfaExecLimEx256_4_inAccept@Base 4.2.0
 nfaExecLimEx256_4_initCompressedState@Base 4.2.0
 nfaExecLimEx256_4_queueCompressState@Base 4.2.0
 nfaExecLimEx256_4_queueInitState@Base 4.2.0
 nfaExecLimEx256_4_reportCurrent@Base 4.2.0
 nfaExecLimEx256_4_testEOD@Base 4.2.0
 nfaExecLimEx256_4_zombie_status@Base 4.2.0
 nfaExecLimEx256_5_B_Reverse@Base 4.2.0
 nfaExecLimEx256_5_Q2@Base 4.2.0
 nfaExecLimEx256_5_Q@Base 4.2.0
 nfaExecLimEx256_5_QR@Base 4.2.0
 nfaExecLimEx256_5_expandState@Base 4.2.0
 nfaExecLimEx256_5_inAccept@Base 4.2.0
 nfaExecLimEx256_5_initCompressedState@Base 4.2.0
 nfaExecLimEx256_5_queueCompressState@Base 4.2.0
 nfaExecLimEx256_5_queueInitState@Base 4.2.0
 nfaExecLimEx256_5_reportCurrent@Base 4.2.0
 nfaExecLimEx256_5_testEOD@Base 4.2.0
 nfaExecLimEx256_5_zombie_status@Base 4.2.0
 nfaExecLimEx256_6_B_Reverse@Base 4.2.0
 nfaExecLimEx256_6_Q2@Base 4.2.0
 nfaExecLimEx256_6_Q@Base 4.2.0
 nfaExecLimEx256_6_QR@Base 4.2.0
 nfaExecLimEx256_6_expandState@Base 4.2.0
 nfaExecLimEx256_6_inAccept@Base 4.2.0
 nfaExecLimEx256_6_initCompressedState@Base 4.2.0
 nfaExecLimEx256_6_queueCompressState@Base 4.2.0
 nfaExecLimEx256_6_queueInitState@Base 4.2.0
 nfaExecLimEx256_6_reportCurrent@Base 4.2.0
 nfaExecLimEx256_6_testEOD@Base 4.2.0
 nfaExecLimEx256_6_zombie_status@Base 4.2.0
 nfaExecLimEx256_7_B_Reverse@Base 4.2.0
 nfaExecLimEx256_7_Q2@Base 4.2.0
 nfaExecLimEx256_7_Q@Base 4.2.0
 nfaExecLimEx256_7_QR@Base 4.2.0
 nfaExecLimEx256_7_expandState@Base 4.2.0
 nfaExecLimEx256_7_inAccept@Base 4.2.0
 nfaExecLimEx256_7_initCompressedState@Base 4.2.0
 nfaExecLimEx256_7_queueCompressState@Base 4.2.0
 nfaExecLimEx256_7_queueInitState@Base 4.2.0
 nfaExecLimEx256_7_reportCurrent@Base 4.2.0
 nfaExecLimEx256_7_testEOD@Base 4.2.0
 nfaExecLimEx256_7_zombie_status@Base 4.2.0
 nfaExecLimEx32_1_B_Reverse@Base 4.2.0
 nfaExecLimEx32_1_Q2@Base 4.2.0
 nfaExecLimEx32_1_Q@Base 4.2.0
 nfaExecLimEx32_1_QR@Base 4.2.0
 nfaExecLimEx32_1_expandState@Base 4.2.0
 nfaExecLimEx32_1_inAccept@Base 4.2.0
 nfaExecLimEx32_1_initCompressedState@Base 4.2.0
 nfaExecLimEx32_1_queueCompressState@Base 4.2.0
 nfaExecLimEx32_1_queueInitState@Base 4.2.0
 nfaExecLimEx32_1_reportCurrent@Base 4.2.0
 nfaExecLimEx32_1_testEOD@Base 4.2.0
 nfaExecLimEx32_1_zombie_status@Base 4.2.0
 nfaExecLimEx32_2_B_Reverse@Base 4.2.0
 nfaExecLimEx32_2_Q2@Base 4.2.0
 nfaExecLimEx32_2_Q@Base 4.2.0
 nfaExecLimEx32_2_QR@Base 4.2.0
 nfaExecLimEx32_2_expandState@Base 4.2.0
 nfaExecLimEx32_2_inAccept@Base 4.2.0
 nfaExecLimEx32_2_initCompressedState@Base 4.2.0
 nfaExecLimEx32_2_queueCompressState@Base 4.2.0
 nfaExecLimEx32_2_queueInitState@Base 4.2.0
 nfaExecLimEx32_2_reportCurrent@Base 4.2.0
 nfaExecLimEx32_2_testEOD@Base 4.2.0
 nfaExecLimEx32_2_zombie_status@Base 4.2.0
 nfaExecLimEx32_3_B_Reverse@Base 4.2.0
 nfaExecLimEx32_3_Q2@Base 4.2.0
 nfaExecLimEx32_3_Q@Base 4.2.0
 nfaExecLimEx32_3_QR@Base 4.2.0
 nfaExecLimEx32_3_expandState@Base 4.2.0
 nfaExecLimEx32_3_inAccept@Base 4.2.0
 nfaExecLimEx32_3_initCompressedState@Base 4.2.0
 nfaExecLimEx32_3_queueCompressState@Base 4.2.0
 nfaExecLimEx32_3_queueInitState@Base 4.2.0
 nfaExecLimEx32_3_reportCurrent@Base 4.2.0
 nfaExecLimEx32_3_testEOD@Base 4.2.0
 nfaExecLimEx32_3_zombie_status@Base 4.2.0
 nfaExecLimEx32_4_B_Reverse@Base 4.2.0
 nfaExecLimEx32_4_Q2@Base 4.2.0
 nfaExecLimEx32_4_Q@Base 4.2.0
 nfaExecLimEx32_4_QR@Base 4.2.0
 nfaExecLimEx32_4_expandState@Base 4.2.0
 nfaExecLimEx32_4_inAccept@Base 4.2.0
 nfaExecLimEx32_4_initCompressedState@Base 4.2.0
 nfaExecLimEx32_4_queueCompressState@Base 4.2.0
 nfaExecLimEx32_4_queueInitState@Base 4.2.0
 nfaExecLimEx32_4_reportCurrent@Base 4.2.0
 nfaExecLimEx32_4_testEOD@Base 4.2.0
 nfaExecLimEx32_4_zombie_status@Base 4.2.0
 nfaExecLimEx32_5_B_Reverse@Base 4.2.0
 nfaExecLimEx32_5_Q2@Base 4.2.0
 nfaExecLimEx32_5_Q@Base 4.2.0
 nfaExecLimEx32_5_QR@Base 4.2.0
 nfaExecLimEx32_5_expandState@Base 4.2.0
 nfaExecLimEx32_5_inAccept@Base 4.2.0
 nfaExecLimEx32_5_initCompressedState@Base 4.2.0
 nfaExecLimEx32_5_queueCompressState@Base 4.2.0
 nfaExecLimEx32_5_queueInitState@Base 4.2.0
 nfaExecLimEx32_5_reportCurrent@Base 4.2.0
 nfaExecLimEx32_5_testEOD@Base 4.2.0
 nfaExecLimEx32_5_zombie_status@Base 4.2.0
 nfaExecLimEx32_6_B_Reverse@Base 4.2.0
 nfaExecLimEx32_6_Q2@Base 4.2.0
 nfaExecLimEx32_6_Q@Base 4.2.0
 nfaExecLimEx32_6_QR@Base 4.2.0
 nfaExecLimEx32_6_expandState@Base 4.2.0
 nfaExecLimEx32_6_inAccept@Base 4.2.0
 nfaExecLimEx32_6_initCompressedState@Base 4.2.0
 nfaExecLimEx32_6_queueCompressState@Base 4.2.0
 nfaExecLimEx32_6_queueInitState@Base 4.2.0
 nfaExecLimEx32_6_reportCurrent@Base 4.2.0
 nfaExecLimEx32_6_testEOD@Base 4.2.0
 nfaExecLimEx32_6_zombie_status@Base 4.2.0
 nfaExecLimEx32_7_B_Reverse@Base 4.2.0
 nfaExecLimEx32_7_Q2@Base 4.2.0
 nfaExecLimEx32_7_Q@Base 4.2.0
 nfaExecLimEx32_7_QR@Base 4.2.0
 nfaExecLimEx32_7_expandState@Base 4.2.0
 nfaExecLimEx32_7_inAccept@Base 4.2.0
 nfaExecLimEx32_7_initCompressedState@Base 4.2.0
 nfaExecLimEx32_7_queueCompressState@Base 4.2.0
 nfaExecLimEx32_7_queueInitState@Base 4.2.0
 nfaExecLimEx32_7_reportCurrent@Base 4.2.0
 nfaExecLimEx32_7_testEOD@Base 4.2.0
 nfaExecLimEx32_7_zombie_status@Base 4.2.0
 nfaExecLimEx384_1_B_Reverse@Base 4.2.0
 nfaExecLimEx384_1_Q2@Base 4.2.0
 nfaExecLimEx384_1_Q@Base 4.2.0
 nfaExecLimEx384_1_QR@Base 4.2.0
 nfaExecLimEx384_1_expandState@Base 4.2.0
 nfaExecLimEx384_1_inAccept@Base 4.2.0
 nfaExecLimEx384_1_initCompressedState@Base 4.2.0
 nfaExecLimEx384_1_queueCompressState@Base 4.2.0
 nfaExecLimEx384_1_queueInitState@Base 4.2.0
 nfaExecLimEx384_1_reportCurrent@Base 4.2.0
 nfaExecLimEx384_1_testEOD@Base 4.2.0
 nfaExecLimEx384_1_zombie_status@Base 4.2.0
 nfaExecLimEx384_2_B_Reverse@Base 4.2.0
 nfaExecLimEx384_2_Q2@Base 4.2.0
 nfaExecLimEx384_2_Q@Base 4.2.0
 nfaExecLimEx384_2_QR@Base 4.2.0
 nfaExecLimEx384_2_expandState@Base 4.2.0
 nfaExecLimEx384_2_inAccept@Base 4.2.0
 nfaExecLimEx384_2_initCompressedState@Base 4.2.0
 nfaExecLimEx384_2_queueCompressState@Base 4.2.0
 nfaExecLimEx384_2_queueInitState@Base 4.2.0
 nfaExecLimEx384_2_reportCurrent@Base 4.2.0
 nfaExecLimEx384_2_testEOD@Base 4.2.0
 nfaExecLimEx384_2_zombie_status@Base 4.2.0
 nfaExecLimEx384_3_B_Reverse@Base 4.2.0
 nfaExecLimEx384_3_Q2@Base 4.2.0
 nfaExecLimEx384_3_Q@Base 4.2.0
 nfaExecLimEx384_3_QR@Base 4.2.0
 nfaExecLimEx384_3_expandState@Base 4.2.0
 nfaExecLimEx384_3_inAccept@Base 4.2.0
 nfaExecLimEx384_3_initCompressedState@Base 4.2.0
 nfaExecLimEx384_3_queueCompressState@Base 4.2.0
 nfaExecLimEx384_3_queueInitState@Base 4.2.0
 nfaExecLimEx384_3_reportCurrent@Base 4.2.0
 nfaExecLimEx384_3_testEOD@Base 4.2.0
 nfaExecLimEx384_3_zombie_status@Base 4.2.0
 nfaExecLimEx384_4_B_Reverse@Base 4.2.0
 nfaExecLimEx384_4_Q2@Base 4.2.0
 nfaExecLimEx384_4_Q@Base 4.2.0
 nfaExecLimEx384_4_QR@Base 4.2.0
 nfaExecLimEx384_4_expandState@Base 4.2.0
 nfaExecLimEx384_4_inAccept@Base 4.2.0
 nfaExecLimEx384_4_initCompressedState@Base 4.2.0
 nfaExecLimEx384_4_queueCompressState@Base 4.2.0
 nfaExecLimEx384_4_queueInitState@Base 4.2.0
 nfaExecLimEx384_4_reportCurrent@Base 4.2.0
 nfaExecLimEx384_4_testEOD@Base 4.2.0
 nfaExecLimEx384_4_zombie_status@Base 4.2.0
 nfaExecLimEx384_5_B_Reverse@Base 4.2.0
 nfaExecLimEx384_5_Q2@Base 4.2.0
 nfaExecLimEx384_5_Q@Base 4.2.0
 nfaExecLimEx384_5_QR@Base 4.2.0
 nfaExecLimEx384_5_expandState@Base 4.2.0
 nfaExecLimEx384_5_inAccept@Base 4.2.0
 nfaExecLimEx384_5_initCompressedState@Base 4.2.0
 nfaExecLimEx384_5_queueCompressState@Base 4.2.0
 nfaExecLimEx384_5_queueInitState@Base 4.2.0
 nfaExecLimEx384_5_reportCurrent@Base 4.2.0
 nfaExecLimEx384_5_testEOD@Base 4.2.0
 nfaExecLimEx384_5_zombie_status@Base 4.2.0
 nfaExecLimEx384_6_B_Reverse@Base 4.2.0
 nfaExecLimEx384_6_Q2@Base 4.2.0
 nfaExecLimEx384_6_Q@Base 4.2.0
 nfaExecLimEx384_6_QR@Base 4.2.0
 nfaExecLimEx384_6_expandState@Base 4.2.0
 nfaExecLimEx384_6_inAccept@Base 4.2.0
 nfaExecLimEx384_6_initCompressedState@Base 4.2.0
 nfaExecLimEx384_6_queueCompressState@Base 4.2.0
 nfaExecLimEx384_6_queueInitState@Base 4.2.0
 nfaExecLimEx384_6_reportCurrent@Base 4.2.0
 nfaExecLimEx384_6_testEOD@Base 4.2.0
 nfaExecLimEx384_6_zombie_status@Base 4.2.0
 nfaExecLimEx384_7_B_Reverse@Base 4.2.0
 nfaExecLimEx384_7_Q2@Base 4.2.0
 nfaExecLimEx384_7_Q@Base 4.2.0
 nfaExecLimEx384_7_QR@Base 4.2.0
 nfaExecLimEx384_7_expandState@Base 4.2.0
 nfaExecLimEx384_7_inAccept@Base 4.2.0
 nfaExecLimEx384_7_initCompressedState@Base 4.2.0
 nfaExecLimEx384_7_queueCompressState@Base 4.2.0
 nfaExecLimEx384_7_queueInitState@Base 4.2.0
 nfaExecLimEx384_7_reportCurrent@Base 4.2.0
 nfaExecLimEx384_7_testEOD@Base 4.2.0
 nfaExecLimEx384_7_zombie_status@Base 4.2.0
 nfaExecLimEx512_1_B_Reverse@Base 4.2.0
 nfaExecLimEx512_1_Q2@Base 4.2.0
 nfaExecLimEx512_1_Q@Base 4.2.0
 nfaExecLimEx512_1_QR@Base 4.2.0
 nfaExecLimEx512_1_expandState@Base 4.2.0
 nfaExecLimEx512_1_inAccept@Base 4.2.0
 nfaExecLimEx512_1_initCompressedState@Base 4.2.0
 nfaExecLimEx512_1_queueCompressState@Base 4.2.0
 nfaExecLimEx512_1_queueInitState@Base 4.2.0
 nfaExecLimEx512_1_reportCurrent@Base 4.2.0
 nfaExecLimEx512_1_testEOD@Base 4.2.0
 nfaExecLimEx512_1_zombie_status@Base 4.2.0
 nfaExecLimEx512_2_B_Reverse@Base 4.2.0
 nfaExecLimEx512_2_Q2@Base 4.2.0
 nfaExecLimEx512_2_Q@Base 4.2.0
 nfaExecLimEx512_2_QR@Base 4.2.0
 nfaExecLimEx512_2_expandState@Base 4.2.0
 nfaExecLimEx512_2_inAccept@Base 4.2.0
 nfaExecLimEx512_2_initCompressedState@Base 4.2.0
 nfaExecLimEx512_2_queueCompressState@Base 4.2.0
 nfaExecLimEx512_2_queueInitState@Base 4.2.0
 nfaExecLimEx512_2_reportCurrent@Base 4.2.0
 nfaExecLimEx512_2_testEOD@Base 4.2.0
 nfaExecLimEx512_2_zombie_status@Base 4.2.0
 nfaExecLimEx512_3_B_Reverse@Base 4.2.0
 nfaExecLimEx512_3_Q2@Base 4.2.0
 nfaExecLimEx512_3_Q@Base 4.2.0
 nfaExecLimEx512_3_QR@Base 4.2.0
 nfaExecLimEx512_3_expandState@Base 4.2.0
 nfaExecLimEx512_3_inAccept@Base 4.2.0
 nfaExecLimEx512_3_initCompressedState@Base 4.2.0
 nfaExecLimEx512_3_queueCompressState@Base 4.2.0
 nfaExecLimEx512_3_queueInitState@Base 4.2.0
 nfaExecLimEx512_3_reportCurrent@Base 4.2.0
 nfaExecLimEx512_3_testEOD@Base 4.2.0
 nfaExecLimEx512_3_zombie_status@Base 4.2.0
 nfaExecLimEx512_4_B_Reverse@Base 4.2.0
 nfaExecLimEx512_4_Q2@Base 4.2.0
 nfaExecLimEx512_4_Q@Base 4.2.0
 nfaExecLimEx512_4_QR@Base 4.2.0
 nfaExecLimEx512_4_expandState@Base 4.2.0
 nfaExecLimEx512_4_inAccept@Base 4.2.0
 nfaExecLimEx512_4_initCompressedState@Base 4.2.0
 nfaExecLimEx512_4_queueCompressState@Base 4.2.0
 nfaExecLimEx512_4_queueInitState@Base 4.2.0
 nfaExecLimEx512_4_reportCurrent@Base 4.2.0
 nfaExecLimEx512_4_testEOD@Base 4.2.0
 nfaExecLimEx512_4_zombie_status@Base 4.2.0
 nfaExecLimEx512_5_B_Reverse@Base 4.2.0
 nfaExecLimEx512_5_Q2@Base 4.2.0
 nfaExecLimEx512_5_Q@Base 4.2.0
 nfaExecLimEx512_5_QR@Base 4.2.0
 nfaExecLimEx512_5_expandState@Base 4.2.0
 nfaExecLimEx512_5_inAccept@Base 4.2.0
 nfaExecLimEx512_5_initCompressedState@Base 4.2.0
 nfaExecLimEx512_5_queueCompressState@Base 4.2.0
 nfaExecLimEx512_5_queueInitState@Base 4.2.0
 nfaExecLimEx512_5_reportCurrent@Base 4.2.0
 nfaExecLimEx512_5_testEOD@Base 4.2.0
 nfaExecLimEx512_5_zombie_status@Base 4.2.0
 nfaExecLimEx512_6_B_Reverse@Base 4.2.0
 nfaExecLimEx512_6_Q2@Base 4.2.0
 nfaExecLimEx512_6_Q@Base 4.2.0
 nfaExecLimEx512_6_QR@Base 4.2.0
 nfaExecLimEx512_6_expandState@Base 4.2.0
 nfaExecLimEx512_6_inAccept@Base 4.2.0
 nfaExecLimEx512_6_initCompressedState@Base 4.2.0
 nfaExecLimEx512_6_queueCompressState@Base 4.2.0
 nfaExecLimEx512_6_queueInitState@Base 4.2.0
 nfaExecLimEx512_6_reportCurrent@Base 4.2.0
 nfaExecLimEx512_6_testEOD@Base 4.2.0
 nfaExecLimEx512_6_zombie_status@Base 4.2.0
 nfaExecLimEx512_7_B_Reverse@Base 4.2.0
 nfaExecLimEx512_7_Q2@Base 4.2.0
 nfaExecLimEx512_7_Q@Base 4.2.0
 nfaExecLimEx512_7_QR@Base 4.2.0
 nfaExecLimEx512_7_expandState@Base 4.2.0
 nfaExecLimEx512_7_inAccept@Base 4.2.0
 nfaExecLimEx512_7_initCompressedState@Base 4.2.0
 nfaExecLimEx512_7_queueCompressState@Base 4.2.0
 nfaExecLimEx512_7_queueInitState@Base 4.2.0
 nfaExecLimEx512_7_reportCurrent@Base 4.2.0
 nfaExecLimEx512_7_testEOD@Base 4.2.0
 nfaExecLimEx512_7_zombie_status@Base 4.2.0
 nfaExecMcClellan16_B@Base 4.2.0
 nfaExecMcClellan16_Q2@Base 4.2.0
 nfaExecMcClellan16_Q@Base 4.2.0
 nfaExecMcClellan16_QR@Base 4.2.0
 nfaExecMcClellan16_SimpStream@Base 4.2.0
 nfaExecMcClellan16_expandState@Base 4.2.0
 nfaExecMcClellan16_inAccept@Base 4.2.0
 nfaExecMcClellan16_initCompressedState@Base 4.2.0
 nfaExecMcClellan16_queueCompressState@Base 4.2.0
 nfaExecMcClellan16_queueInitState@Base 4.2.0
 nfaExecMcClellan16_reportCurrent@Base 4.2.0
 nfaExecMcClellan16_testEOD@Base 4.2.0
 nfaExecMcClellan8_B@Base 4.2.0
 nfaExecMcClellan8_Q2@Base 4.2.0
 nfaExecMcClellan8_Q@Base 4.2.0
 nfaExecMcClellan8_QR@Base 4.2.0
 nfaExecMcClellan8_SimpStream@Base 4.2.0
 nfaExecMcClellan8_expandState@Base 4.2.0
 nfaExecMcClellan8_inAccept@Base 4.2.0
 nfaExecMcClellan8_initCompressedState@Base 4.2.0
 nfaExecMcClellan8_queueCompressState@Base 4.2.0
 nfaExecMcClellan8_queueInitState@Base 4.2.0
 nfaExecMcClellan8_reportCurrent@Base 4.2.0
 nfaExecMcClellan8_testEOD@Base 4.2.0
 nfaExecMpv0_Q@Base 4.2.0
 nfaExecMpv0_QueueExecRaw@Base 4.2.0
 nfaExecMpv0_expandState@Base 4.2.0
 nfaExecMpv0_initCompressedState@Base 4.2.0
 nfaExecMpv0_queueCompressState@Base 4.2.0
 nfaExecMpv0_queueInitState@Base 4.2.0
 nfaExecMpv0_reportCurrent@Base 4.2.0
 nfaExpandState@Base 4.2.0
 nfaGetZombieStatus@Base 4.2.0
 nfaInAcceptState@Base 4.2.0
 nfaInitCompressedState@Base 4.2.0
 nfaQueueCompressState@Base 4.2.0
 nfaQueueExec@Base 4.2.0
 nfaQueueExecRose@Base 4.2.0
 nfaQueueExecToMatch@Base 4.2.0
 nfaQueueInitState@Base 4.2.0
 nfaReportCurrentMatches@Base 4.2.0
 noodExec@Base 4.2.0
 noodExecStreaming@Base 4.2.0
 p_mask_arr@Base 4.2.0
 repeatHasMatchBitmap@Base 4.2.0
 repeatHasMatchRange@Base 4.2.0
 repeatHasMatchRing@Base 4.2.0
 repeatHasMatchSparseOptimalP@Base 4.2.0
 repeatHasMatchTrailer@Base 4.2.0
 repeatLastTopBitmap@Base 4.2.0
 repeatLastTopRange@Base 4.2.0
 repeatLastTopRing@Base 4.2.0
 repeatLastTopSparseOptimalP@Base 4.2.0
 repeatLastTopTrailer@Base 4.2.0
 repeatNextMatchBitmap@Base 4.2.0
 repeatNextMatchRange@Base 4.2.0
 repeatNextMatchRing@Base 4.2.0
 repeatNextMatchSparseOptimalP@Base 4.2.0
 repeatNextMatchTrailer@Base 4.2.0
 repeatPack@Base 4.2.0
 repeatStoreBitmap@Base 4.2.0
 repeatStoreRange@Base 4.2.0
 repeatStoreRing@Base 4.2.0
 repeatStoreSparseOptimalP@Base 4.2.0
 repeatStoreTrailer@Base 4.2.0
 repeatUnpack@Base 4.2.0
 roseAnchoredCallback@Base 4.2.0
 roseBlockEodExec@Base 4.2.0
 roseBlockExec_i@Base 4.2.0
 roseCallback@Base 4.2.0
 roseCatchUpAll@Base 4.2.0
 roseCatchUpMPV_i@Base 4.2.0
 roseCatchUpSuf@Base 4.2.0
 roseDelayRebuildCallback@Base 4.2.0
 roseEodExec@Base 4.2.0
 roseHandleChainMatch@Base 4.2.0
 roseInitState@Base 4.2.0
 roseNfaAdaptor@Base 4.2.0
 roseNfaSomAdaptor@Base 4.2.0
 rosePureLiteralCallback@Base 4.2.0
 roseReportAdaptor@Base 4.2.0
 roseReportSomAdaptor@Base 4.2.0
 roseRunBoundaryProgram@Base 4.2.0
 roseStreamExec@Base 4.2.0
 rshuftiExec@Base 4.2.0
 rtruffleExec@Base 4.2.0
 run_accel@Base 4.2.0
 setSomFromSomAware@Base 4.2.0
 shift_shuftiExec@Base 4.2.0
 shift_truffleExec@Base 4.2.0
 shift_vermicelliExec@Base 4.2.0
 shiftgrab_shuftiExec@Base 4.2.0
 shiftgrab_truffleExec@Base 4.2.0
 shiftgrab_vermicelliExec@Base 4.2.0
 shuftiDoubleExec@Base 4.2.0
 shuftiExec@Base 4.2.0
 storeSomToStream@Base 4.2.0
 storecompressed128@Base 4.2.0
 storecompressed256@Base 4.2.0
 storecompressed32@Base 4.2.0
 storecompressed384@Base 4.2.0
 storecompressed512@Base 4.2.0
 storecompressed64@Base 4.2.0
 streamInitSufPQ@Base 4.2.0
 truffleExec@Base 4.2.0
 vbs_mask_data@Base 4.2.0
libhs_runtime.so.4.2 libhyperscan4.2 #MINVER#
 Crc32c_ComputeBuf@Base 4.2.0
 blockInitSufPQ@Base 4.2.0
 dbCreate@Base 4.2.0
 dbIsValid@Base 4.2.0
 doAccel128@Base 4.2.0
 doAccel256@Base 4.2.0
 doAccel32@Base 4.2.0
 doAccel384@Base 4.2.0
 doAccel512@Base 4.2.0
 doubleshift_shuftiExec@Base 4.2.0
 doubleshift_truffleExec@Base 4.2.0
 doubleshift_vermicelliExec@Base 4.2.0
 doubleshiftgrab_shuftiExec@Base 4.2.0
 doubleshiftgrab_truffleExec@Base 4.2.0
 doubleshiftgrab_vermicelliExec@Base 4.2.0
 fatbit_size@Base 4.2.0
 fdrExec@Base 4.2.0
 fdrExecStreaming@Base 4.2.0
 fdrStreamStateActive@Base 4.2.0
 fdr_exec_teddy_msks1@Base 4.2.0
 fdr_exec_teddy_msks1_pck@Base 4.2.0
 fdr_exec_teddy_msks2@Base 4.2.0
 fdr_exec_teddy_msks2_pck@Base 4.2.0
 fdr_exec_teddy_msks3@Base 4.2.0
 fdr_exec_teddy_msks3_pck@Base 4.2.0
 fdr_exec_teddy_msks4@Base 4.2.0
 fdr_exec_teddy_msks4_pck@Base 4.2.0
 flushQueuedLiterals_i@Base 4.2.0
 flushStoredSomMatches_i@Base 4.2.0
 handleSomExternal@Base 4.2.0
 handleSomInternal@Base 4.2.0
 hs_alloc_scratch@Base 4.2.0
 hs_clone_scratch@Base 4.2.0
 hs_close_stream@Base 4.2.0
 hs_copy_stream@Base 4.2.0
 hs_database_alloc@Base 4.2.0
 hs_database_free@Base 4.2.0
 hs_database_info@Base 4.2.0
 hs_database_size@Base 4.2.0
 hs_deserialize_database@Base 4.2.0
 hs_deserialize_database_at@Base 4.2.0
 hs_free_database@Base 4.2.0
 hs_free_scratch@Base 4.2.0
 hs_misc_alloc@Base 4.2.0
 hs_misc_free@Base 4.2.0
 hs_open_stream@Base 4.2.0
 hs_reset_and_copy_stream@Base 4.2.0
 hs_reset_stream@Base 4.2.0
 hs_scan@Base 4.2.0
 hs_scan_stream@Base 4.2.0
 hs_scan_vector@Base 4.2.0
 hs_scratch_alloc@Base 4.2.0
 hs_scratch_free@Base 4.2.0
 hs_scratch_size@Base 4.2.0
 hs_serialize_database@Base 4.2.0
 hs_serialized_database_info@Base 4.2.0
 hs_serialized_database_size@Base 4.2.0
 hs_set_allocator@Base 4.2.0
 hs_set_database_allocator@Base 4.2.0
 hs_set_misc_allocator@Base 4.2.0
 hs_set_scratch_allocator@Base 4.2.0
 hs_set_stream_allocator@Base 4.2.0
 hs_stream_alloc@Base 4.2.0
 hs_stream_free@Base 4.2.0
 hs_stream_size@Base 4.2.0
 hs_version@Base 4.2.0
 hwlmExec@Base 4.2.0
 hwlmExecStreaming@Base 4.2.0
 loadSomFromStream@Base 4.2.0
 loadcompressed128@Base 4.2.0
 loadcompressed256@Base 4.2.0
 loadcompressed32@Base 4.2.0
 loadcompressed384@Base 4.2.0
 loadcompressed512@Base 4.2.0
 loadcompressed64@Base 4.2.0
 long_shuftiExec@Base 4.2.0
 long_truffleExec@Base 4.2.0
 long_vermicelliExec@Base 4.2.0
 longgrab_shuftiExec@Base 4.2.0
 longgrab_truffleExec@Base 4.2.0
 longgrab_vermicelliExec@Base 4.2.0
 mmbit_keyshift_lut@Base 4.2.0
 mmbit_maxlevel_direct_lut@Base 4.2.0
 mmbit_maxlevel_from_keyshift_lut@Base 4.2.0
 mmbit_root_offset_from_level@Base 4.2.0
 mmbit_size@Base 4.2.0
 mmbit_sparse_iter_dump@Base 4.2.0
 mmbit_zero_to_lut@Base 4.2.0
 nfaBlockExecReverse@Base 4.2.0
 nfaCheckFinalState@Base 4.2.0
 nfaExecCastle0_Q2@Base 4.2.0
 nfaExecCastle0_Q@Base 4.2.0
 nfaExecCastle0_QR@Base 4.2.0
 nfaExecCastle0_expandState@Base 4.2.0
 nfaExecCastle0_inAccept@Base 4.2.0
 nfaExecCastle0_initCompressedState@Base 4.2.0
 nfaExecCastle0_queueCompressState@Base 4.2.0
 nfaExecCastle0_queueInitState@Base 4.2.0
 nfaExecCastle0_reportCurrent@Base 4.2.0
 nfaExecGough16_Q2@Base 4.2.0
 nfaExecGough16_Q@Base 4.2.0
 nfaExecGough16_QR@Base 4.2.0
 nfaExecGough16_expandState@Base 4.2.0
 nfaExecGough16_inAccept@Base 4.2.0
 nfaExecGough16_initCompressedState@Base 4.2.0
 nfaExecGough16_queueCompressState@Base 4.2.0
 nfaExecGough16_queueInitState@Base 4.2.0
 nfaExecGough16_reportCurrent@Base 4.2.0
 nfaExecGough16_testEOD@Base 4.2.0
 nfaExecGough8_Q2@Base 4.2.0
 nfaExecGough8_Q@Base 4.2.0
 nfaExecGough8_QR@Base 4.2.0
 nfaExecGough8_expandState@Base 4.2.0
 nfaExecGough8_inAccept@Base 4.2.0
 nfaExecGough8_initCompressedState@Base 4.2.0
 nfaExecGough8_queueCompressState@Base 4.2.0
 nfaExecGough8_queueInitState@Base 4.2.0
 nfaExecGough8_reportCurrent@Base 4.2.0
 nfaExecGough8_testEOD@Base 4.2.0
 nfaExecLbrDot_Q2@Base 4.2.0
 nfaExecLbrDot_Q@Base 4.2.0
 nfaExecLbrDot_QR@Base 4.2.0
 nfaExecLbrDot_expandState@Base 4.2.0
 nfaExecLbrDot_inAccept@Base 4.2.0
 nfaExecLbrDot_initCompressedState@Base 4.2.0
 nfaExecLbrDot_queueCompressState@Base 4.2.0
 nfaExecLbrDot_queueInitState@Base 4.2.0
 nfaExecLbrDot_reportCurrent@Base 4.2.0
 nfaExecLbrNVerm_Q2@Base 4.2.0
 nfaExecLbrNVerm_Q@Base 4.2.0
 nfaExecLbrNVerm_QR@Base 4.2.0
 nfaExecLbrNVerm_expandState@Base 4.2.0
 nfaExecLbrNVerm_inAccept@Base 4.2.0
 nfaExecLbrNVerm_initCompressedState@Base 4.2.0
 nfaExecLbrNVerm_queueCompressState@Base 4.2.0
 nfaExecLbrNVerm_queueInitState@Base 4.2.0
 nfaExecLbrNVerm_reportCurrent@Base 4.2.0
 nfaExecLbrShuf_Q2@Base 4.2.0
 nfaExecLbrShuf_Q@Base 4.2.0
 nfaExecLbrShuf_QR@Base 4.2.0
 nfaExecLbrShuf_expandState@Base 4.2.0
 nfaExecLbrShuf_inAccept@Base 4.2.0
 nfaExecLbrShuf_initCompressedState@Base 4.2.0
 nfaExecLbrShuf_queueCompressState@Base 4.2.0
 nfaExecLbrShuf_queueInitState@Base 4.2.0
 nfaExecLbrShuf_reportCurrent@Base 4.2.0
 nfaExecLbrTruf_Q2@Base 4.2.0
 nfaExecLbrTruf_Q@Base 4.2.0
 nfaExecLbrTruf_QR@Base 4.2.0
 nfaExecLbrTruf_expandState@Base 4.2.0
 nfaExecLbrTruf_inAccept@Base 4.2.0
 nfaExecLbrTruf_initCompressedState@Base 4.2.0
 nfaExecLbrTruf_queueCompressState@Base 4.2.0
 nfaExecLbrTruf_queueInitState@Base 4.2.0
 nfaExecLbrTruf_reportCurrent@Base 4.2.0
 nfaExecLbrVerm_Q2@Base 4.2.0
 nfaExecLbrVerm_Q@Base 4.2.0
 nfaExecLbrVerm_QR@Base 4.2.0
 nfaExecLbrVerm_expandState@Base 4.2.0
 nfaExecLbrVerm_inAccept@Base 4.2.0
 nfaExecLbrVerm_initCompressedState@Base 4.2.0
 nfaExecLbrVerm_queueCompressState@Base 4.2.0
 nfaExecLbrVerm_queueInitState@Base 4.2.0
 nfaExecLbrVerm_reportCurrent@Base 4.2.0
 nfaExecLimEx128_1_B_Reverse@Base 4.2.0
 nfaExecLimEx128_1_Q2@Base 4.2.0
 nfaExecLimEx128_1_Q@Base 4.2.0
 nfaExecLimEx128_1_QR@Base 4.2.0
 nfaExecLimEx128_1_expandState@Base 4.2.0
 nfaExecLimEx128_1_inAccept@Base 4.2.0
 nfaExecLimEx128_1_initCompressedState@Base 4.2.0
 nfaExecLimEx128_1_queueCompressState@Base 4.2.0
 nfaExecLimEx128_1_queueInitState@Base 4.2.0
 nfaExecLimEx128_1_reportCurrent@Base 4.2.0
 nfaExecLimEx128_1_testEOD@Base 4.2.0
 nfaExecLimEx128_1_zombie_status@Base 4.2.0
 nfaExecLimEx128_2_B_Reverse@Base 4.2.0
 nfaExecLimEx128_2_Q2@Base 4.2.0
 nfaExecLimEx128_2_Q@Base 4.2.0
 nfaExecLimEx128_2_QR@Base 4.2.0
 nfaExecLimEx128_2_expandState@Base 4.2.0
 nfaExecLimEx128_2_inAccept@Base 4.2.0
 nfaExecLimEx128_2_initCompressedState@Base 4.2.0
 nfaExecLimEx128_2_queueCompressState@Base 4.2.0
 nfaExecLimEx128_2_queueInitState@Base 4.2.0
 nfaExecLimEx128_2_reportCurrent@Base 4.2.0
 nfaExecLimEx128_2_testEOD@Base 4.2.0
 nfaExecLimEx128_2_zombie_status@Base 4.2.0
 nfaExecLimEx128_3_B_Reverse@Base 4.2.0
 nfaExecLimEx128_3_Q2@Base 4.2.0
 nfaExecLimEx128_3_Q@Base 4.2.0
 nfaExecLimEx128_3_QR@Base 4.2.0
 nfaExecLimEx128_3_expandState@Base 4.2.0
 nfaExecLimEx128_3_inAccept@Base 4.2.0
 nfaExecLimEx128_3_initCompressedState@Base 4.2.0
 nfaExecLimEx128_3_queueCompressState@Base 4.2.0
 nfaExecLimEx128_3_queueInitState@Base 4.2.0
 nfaExecLimEx128_3_reportCurrent@Base 4.2.0
 nfaExecLimEx128_3_testEOD@Base 4.2.0
 nfaExecLimEx128_3_zombie_status@Base 4.2.0
 nfaExecLimEx128_4_B_Reverse@Base 4.2.0
 nfaExecLimEx128_4_Q2@Base 4.2.0
 nfaExecLimEx128_4_Q@Base 4.2.0
 nfaExecLimEx128_4_QR@Base 4.2.0
 nfaExecLimEx128_4_expandState@Base 4.2.0
 nfaExecLimEx128_4_inAccept@Base 4.2.0
 nfaExecLimEx128_4_initCompressedState@Base 4.2.0
 nfaExecLimEx128_4_queueCompressState@Base 4.2.0
 nfaExecLimEx128_4_queueInitState@Base 4.2.0
 nfaExecLimEx128_4_reportCurrent@Base 4.2.0
 nfaExecLimEx128_4_testEOD@Base 4.2.0
 nfaExecLimEx128_4_zombie_status@Base 4.2.0
 nfaExecLimEx128_5_B_Reverse@Base 4.2.0
 nfaExecLimEx128_5_Q2@Base 4.2.0
 nfaExecLimEx128_5_Q@Base 4.2.0
 nfaExecLimEx128_5_QR@Base 4.2.0
 nfaExecLimEx128_5_expandState@Base 4.2.0
 nfaExecLimEx128_5_inAccept@Base 4.2.0
 nfaExecLimEx128_5_initCompressedState@Base 4.2.0
 nfaExecLimEx128_5_queueCompressState@Base 4.2.0
 nfaExecLimEx128_5_queueInitState@Base 4.2.0
 nfaExecLimEx128_5_reportCurrent@Base 4.2.0
 nfaExecLimEx128_5_testEOD@Base 4.2.0
 nfaExecLimEx128_5_zombie_status@Base 4.2.0
 nfaExecLimEx128_6_B_Reverse@Base 4.2.0
 nfaExecLimEx128_6_Q2@Base 4.2.0
 nfaExecLimEx128_6_Q@Base 4.2.0
 nfaExecLimEx128_6_QR@Base 4.2.0
 nfaExecLimEx128_6_expandState@Base 4.2.0
 nfaExecLimEx128_6_inAccept@Base 4.2.0
 nfaExecLimEx128_6_initCompressedState@Base 4.2.0
 nfaExecLimEx128_6_queueCompressState@Base 4.2.0
 nfaExecLimEx128_6_queueInitState@Base 4.2.0
 nfaExecLimEx128_6_reportCurrent@Base 4.2.0
 nfaExecLimEx128_6_testEOD@Base 4.2.0
 nfaExecLimEx128_6_zombie_status@Base 4.2.0
 nfaExecLimEx128_7_B_Reverse@Base 4.2.0
 nfaExecLimEx128_7_Q2@Base 4.2.0
 nfaExecLimEx128_7_Q@Base 4.2.0
 nfaExecLimEx128_7_QR@Base 4.2.0
 nfaExecLimEx128_7_expandState@Base 4.2.0
 nfaExecLimEx128_7_inAccept@Base 4.2.0
 nfaExecLimEx128_7_initCompressedState@Base 4.2.0
 nfaExecLimEx128_7_queueCompressState@Base 4.2.0
 nfaExecLimEx128_7_queueInitState@Base 4.2.0
 nfaExecLimEx128_7_reportCurrent@Base 4.2.0
 nfaExecLimEx128_7_testEOD@Base 4.2.0
 nfaExecLimEx128_7_zombie_status@Base 4.2.0
 nfaExecLimEx256_1_B_Reverse@Base 4.2.0
 nfaExecLimEx256_1_Q2@Base 4.2.0
 nfaExecLimEx256_1_Q@Base 4.2.0
 nfaExecLimEx256_1_QR@Base 4.2.0
 nfaExecLimEx256_1_expandState@Base 4.2.0
 nfaExecLimEx256_1_inAccept@Base 4.2.0
 nfaExecLimEx256_1_initCompressedState@Base 4.2.0
 nfaExecLimEx256_1_queueCompressState@Base 4.2.0
 nfaExecLimEx256_1_queueInitState@Base 4.2.0
 nfaExecLimEx256_1_reportCurrent@Base 4.2.0
 nfaExecLimEx256_1_testEOD@Base 4.2.0
 nfaExecLimEx256_1_zombie_status@Base 4.2.0
 nfaExecLimEx256_2_B_Reverse@Base 4.2.0
 nfaExecLimEx256_2_Q2@Base 4.2.0
 nfaExecLimEx256_2_Q@Base 4.2.0
 nfaExecLimEx256_2_QR@Base 4.2.0
 nfaExecLimEx256_2_expandState@Base 4.2.0
 nfaExecLimEx256_2_inAccept@Base 4.2.0
 nfaExecLimEx256_2_initCompressedState@Base 4.2.0
 nfaExecLimEx256_2_queueCompressState@Base 4.2.0
 nfaExecLimEx256_2_queueInitState@Base 4.2.0
 nfaExecLimEx256_2_reportCurrent@Base 4.2.0
 nfaExecLimEx256_2_testEOD@Base 4.2.0
 nfaExecLimEx256_2_zombie_status@Base 4.2.0
 nfaExecLimEx256_3_B_Reverse@Base 4.2.0
 nfaExecLimEx256_3_Q2@Base 4.2.0
 nfaExecLimEx256_3_Q@Base 4.2.0
 nfaExecLimEx256_3_QR@Base 4.2.0
 nfaExecLimEx256_3_expandState@Base 4.2.0
 nfaExecLimEx256_3_inAccept@Base 4.2.0
 nfaExecLimEx256_3_initCompressedState@Base 4.2.0
 nfaExecLimEx256_3_queueCompressState@Base 4.2.0
 nfaExecLimEx256_3_queueInitState@Base 4.2.0
 nfaExecLimEx256_3_reportCurrent@Base 4.2.0
 nfaExecLimEx256_3_testEOD@Base 4.2.0
 nfaExecLimEx256_3_zombie_status@Base 4.2.0
 nfaExecLimEx256_4_B_Reverse@Base 4.2.0
 nfaExecLimEx256_4_Q2@Base 4.2.0
 nfaExecLimEx256_4_Q@Base 4.2.0
 nfaExecLimEx256_4_QR@Base 4.2.0
 nfaExecLimEx256_4_expandState@Base 4.2.0
 nfaExecLimEx256_4_inAccept@Base 4.2.0
 nfaExecLimEx256_4_initCompressedState@Base 4.2.0
 nfaExecLimEx256_4_queueCompressState@Base 4.2.0
 nfaExecLimEx256_4_queueInitState@Base 4.2.0
 nfaExecLimEx256_4_reportCurrent@Base 4.2.0
 nfaExecLimEx256_4_testEOD@Base 4.2.0
 nfaExecLimEx256_4_zombie_status@Base 4.2.0
 nfaExecLimEx256_5_B_Reverse@Base 4.2.0
 nfaExecLimEx256_5_Q2@Base 4.2.0
 nfaExecLimEx256_5_Q@Base 4.2.0
 nfaExecLimEx256_5_QR@Base 4.2.0
 nfaExecLimEx256_5_expandState@Base 4.2.0
 nfaExecLimEx256_5_inAccept@Base 4.2.0
 nfaExecLimEx256_5_initCompressedState@Base 4.2.0
 nfaExecLimEx256_5_queueCompressState@Base 4.2.0
 nfaExecLimEx256_5_queueInitState@Base 4.2.0
 nfaExecLimEx256_5_reportCurrent@Base 4.2.0
 nfaExecLimEx256_5_testEOD@Base 4.2.0
 nfaExecLimEx256_5_zombie_status@Base 4.2.0
 nfaExecLimEx256_6_B_Reverse@Base 4.2.0
 nfaExecLimEx256_6_Q2@Base 4.2.0
 nfaExecLimEx256_6_Q@Base 4.2.0
 nfaExecLimEx256_6_QR@Base 4.2.0
 nfaExecLimEx256_6_expandState@Base 4.2.0
 nfaExecLimEx256_6_inAccept@Base 4.2.0
 nfaExecLimEx256_6_initCompressedState@Base 4.2.0
 nfaExecLimEx256_6_queueCompressState@Base 4.2.0
 nfaExecLimEx256_6_queueInitState@Base 4.2.0
 nfaExecLimEx256_6_reportCurrent@Base 4.2.0
 nfaExecLimEx256_6_testEOD@Base 4.2.0
 nfaExecLimEx256_6_zombie_status@Base 4.2.0
 nfaExecLimEx256_7_B_Reverse@Base 4.2.0
 nfaExecLimEx256_7_Q2@Base 4.2.0
 nfaExecLimEx256_7_Q@Base 4.2.0
 nfaExecLimEx256_7_QR@Base 4.2.0
 nfaExecLimEx256_7_expandState@Base 4.2.0
 nfaExecLimEx256_7_inAccept@Base 4.2.0
 nfaExecLimEx256_7_initCompressedState@Base 4.2.0
 nfaExecLimEx256_7_queueCompressState@Base 4.2.0
 nfaExecLimEx256_7_queueInitState@Base 4.2.0
 nfaExecLimEx256_7_reportCurrent@Base 4.2.0
 nfaExecLimEx256_7_testEOD@Base 4.2.0
 nfaExecLimEx256_7_zombie_status@Base 4.2.0
 nfaExecLimEx32_1_B_Reverse@Base 4.2.0
 nfaExecLimEx32_1_Q2@Base 4.2.0
 nfaExecLimEx32_1_Q@Base 4.2.0
 nfaExecLimEx32_1_QR@Base 4.2.0
 nfaExecLimEx32_1_expandState@Base 4.2.0
 nfaExecLimEx32_1_inAccept@Base 4.2.0
 nfaExecLimEx32_1_initCompressedState@Base 4.2.0
 nfaExecLimEx32_1_queueCompressState@Base 4.2.0
 nfaExecLimEx32_1_queueInitState@Base 4.2.0
 nfaExecLimEx32_1_reportCurrent@Base 4.2.0
 nfaExecLimEx32_1_testEOD@Base 4.2.0
 nfaExecLimEx32_1_zombie_status@Base 4.2.0
 nfaExecLimEx32_2_B_Reverse@Base 4.2.0
 nfaExecLimEx32_2_Q2@Base 4.2.0
 nfaExecLimEx32_2_Q@Base 4.2.0
 nfaExecLimEx32_2_QR@Base 4.2.0
 nfaExecLimEx32_2_expandState@Base 4.2.0
 nfaExecLimEx32_2_inAccept@Base 4.2.0
 nfaExecLimEx32_2_initCompressedState@Base 4.2.0
 nfaExecLimEx32_2_queueCompressState@Base 4.2.0
 nfaExecLimEx32_2_queueInitState@Base 4.2.0
 nfaExecLimEx32_2_reportCurrent@Base 4.2.0
 nfaExecLimEx32_2_testEOD@Base 4.2.0
 nfaExecLimEx32_2_zombie_status@Base 4.2.0
 nfaExecLimEx32_3_B_Reverse@Base 4.2.0
 nfaExecLimEx32_3_Q2@Base 4.2.0
 nfaExecLimEx32_3_Q@Base 4.2.0
 nfaExecLimEx32_3_QR@Base 4.2.0
 nfaExecLimEx32_3_expandState@Base 4.2.0
 nfaExecLimEx32_3_inAccept@Base 4.2.0
 nfaExecLimEx32_3_initCompressedState@Base 4.2.0
 nfaExecLimEx32_3_queueCompressState@Base 4.2.0
 nfaExecLimEx32_3_queueInitState@Base 4.2.0
 nfaExecLimEx32_3_reportCurrent@Base 4.2.0
 nfaExecLimEx32_3_testEOD@Base 4.2.0
 nfaExecLimEx32_3_zombie_status@Base 4.2.0
 nfaExecLimEx32_4_B_Reverse@Base 4.2.0
 nfaExecLimEx32_4_Q2@Base 4.2.0
 nfaExecLimEx32_4_Q@Base 4.2.0
 nfaExecLimEx32_4_QR@Base 4.2.0
 nfaExecLimEx32_4_expandState@Base 4.2.0
 nfaExecLimEx32_4_inAccept@Base 4.2.0
 nfaExecLimEx32_4_initCompressedState@Base 4.2.0
 nfaExecLimEx32_4_queueCompressState@Base 4.2.0
 nfaExecLimEx32_4_queueInitState@Base 4.2.0
 nfaExecLimEx32_4_reportCurrent@Base 4.2.0
 nfaExecLimEx32_4_testEOD@Base 4.2.0
 nfaExecLimEx32_4_zombie_status@Base 4.2.0
 nfaExecLimEx32_5_B_Reverse@Base 4.2.0
 nfaExecLimEx32_5_Q2@Base 4.2.0
 nfaExecLimEx32_5_Q@Base 4.2.0
 nfaExecLimEx32_5_QR@Base 4.2.0
 nfaExecLimEx32_5_expandState@Base 4.2.0
 nfaExecLimEx32_5_inAccept@Base 4.2.0
 nfaExecLimEx32_5_initCompressedState@Base 4.2.0
 nfaExecLimEx32_5_queueCompressState@Base 4.2.0
 nfaExecLimEx32_5_queueInitState@Base 4.2.0
 nfaExecLimEx32_5_reportCurrent@Base 4.2.0
 nfaExecLimEx32_5_testEOD@Base 4.2.0
 nfaExecLimEx32_5_zombie_status@Base 4.2.0
 nfaExecLimEx32_6_B_Reverse@Base 4.2.0
 nfaExecLimEx32_6_Q2@Base 4.2.0
 nfaExecLimEx32_6_Q@Base 4.2.0
 nfaExecLimEx32_6_QR@Base 4.2.0
 nfaExecLimEx32_6_expandState@Base 4.2.0
 nfaExecLimEx32_6_inAccept@Base 4.2.0
 nfaExecLimEx32_6_initCompressedState@Base 4.2.0
 nfaExecLimEx32_6_queueCompressState@Base 4.2.0
 nfaExecLimEx32_6_queueInitState@Base 4.2.0
 nfaExecLimEx32_6_reportCurrent@Base 4.2.0
 nfaExecLimEx32_6_testEOD@Base 4.2.0
 nfaExecLimEx32_6_zombie_status@Base 4.2.0
 nfaExecLimEx32_7_B_Reverse@Base 4.2.0
 nfaExecLimEx32_7_Q2@Base 4.2.0
 nfaExecLimEx32_7_Q@Base 4.2.0
 nfaExecLimEx32_7_QR@Base 4.2.0
 nfaExecLimEx32_7_expandState@Base 4.2.0
 nfaExecLimEx32_7_inAccept@Base 4.2.0
 nfaExecLimEx32_7_initCompressedState@Base 4.2.0
 nfaExecLimEx32_7_queueCompressState@Base 4.2.0
 nfaExecLimEx32_7_queueInitState@Base 4.2.0
 nfaExecLimEx32_7_reportCurrent@Base 4.2.0
 nfaExecLimEx32_7_testEOD@Base 4.2.0
 nfaExecLimEx32_7_zombie_status@Base 4.2.0
 nfaExecLimEx384_1_B_Reverse@Base 4.2.0
 nfaExecLimEx384_1_Q2@Base 4.2.0
 nfaExecLimEx384_1_Q@Base 4.2.0
 nfaExecLimEx384_1_QR@Base 4.2.0
 nfaExecLimEx384_1_expandState@Base 4.2.0
 nfaExecLimEx384_1_inAccept@Base 4.2.0
 nfaExecLimEx384_1_initCompressedState@Base 4.2.0
 nfaExecLimEx384_1_queueCompressState@Base 4.2.0
 nfaExecLimEx384_1_queueInitState@Base 4.2.0
 nfaExecLimEx384_1_reportCurrent@Base 4.2.0
 nfaExecLimEx384_1_testEOD@Base 4.2.0
 nfaExecLimEx384_1_zombie_status@Base 4.2.0
 nfaExecLimEx384_2_B_Reverse@Base 4.2.0
 nfaExecLimEx384_2_Q2@Base 4.2.0
 nfaExecLimEx384_2_Q@Base 4.2.0
 nfaExecLimEx384_2_QR@Base 4.2.0
 nfaExecLimEx384_2_expandState@Base 4.2.0
 nfaExecLimEx384_2_inAccept@Base 4.2.0
 nfaExecLimEx384_2_initCompressedState@Base 4.2.0
 nfaExecLimEx384_2_queueCompressState@Base 4.2.0
 nfaExecLimEx384_2_queueInitState@Base 4.2.0
 nfaExecLimEx384_2_reportCurrent@Base 4.2.0
 nfaExecLimEx384_2_testEOD@Base 4.2.0
 nfaExecLimEx384_2_zombie_status@Base 4.2.0
 nfaExecLimEx384_3_B_Reverse@Base 4.2.0
 nfaExecLimEx384_3_Q2@Base 4.2.0
 nfaExecLimEx384_3_Q@Base 4.2.0
 nfaExecLimEx384_3_QR@Base 4.2.0
 nfaExecLimEx384_3_expandState@Base 4.2.0
 nfaExecLimEx384_3_inAccept@Base 4.2.0
 nfaExecLimEx384_3_initCompressedState@Base 4.2.0
 nfaExecLimEx384_3_queueCompressState@Base 4.2.0
 nfaExecLimEx384_3_queueInitState@Base 4.2.0
 nfaExecLimEx384_3_reportCurrent@Base 4.2.0
 nfaExecLimEx384_3_testEOD@Base 4.2.0
 nfaExecLimEx384_3_zombie_status@Base 4.2.0
 nfaExecLimEx384_4_B_Reverse@Base 4.2.0
 nfaExecLimEx384_4_Q2@Base 4.2.0
 nfaExecLimEx384_4_Q@Base 4.2.0
 nfaExecLimEx384_4_QR@Base 4.2.0
 nfaExecLimEx384_4_expandState@Base 4.2.0
 nfaExecLimEx384_4_inAccept@Base 4.2.0
 nfaExecLimEx384_4_initCompressedState@Base 4.2.0
 nfaExecLimEx384_4_queueCompressState@Base 4.2.0
 nfaExecLimEx384_4_queueInitState@Base 4.2.0
 nfaExecLimEx384_4_reportCurrent@Base 4.2.0
 nfaExecLimEx384_4_testEOD@Base 4.2.0
 nfaExecLimEx384_4_zombie_status@Base 4.2.0
 nfaExecLimEx384_5_B_Reverse@Base 4.2.0
 nfaExecLimEx384_5_Q2@Base 4.2.0
 nfaExecLimEx384_5_Q@Base 4.2.0
 nfaExecLimEx384_5_QR@Base 4.2.0
 nfaExecLimEx384_5_expandState@Base 4.2.0
 nfaExecLimEx384_5_inAccept@Base 4.2.0
 nfaExecLimEx384_5_initCompressedState@Base 4.2.0
 nfaExecLimEx384_5_queueCompressState@Base 4.2.0
 nfaExecLimEx384_5_queueInitState@Base 4.2.0
 nfaExecLimEx384_5_reportCurrent@Base 4.2.0
 nfaExecLimEx384_5_testEOD@Base 4.2.0
 nfaExecLimEx384_5_zombie_status@Base 4.2.0
 nfaExecLimEx384_6_B_Reverse@Base 4.2.0
 nfaExecLimEx384_6_Q2@Base 4.2.0
 nfaExecLimEx384_6_Q@Base 4.2.0
 nfaExecLimEx384_6_QR@Base 4.2.0
 nfaExecLimEx384_6_expandState@Base 4.2.0
 nfaExecLimEx384_6_inAccept@Base 4.2.0
 nfaExecLimEx384_6_initCompressedState@Base 4.2.0
 nfaExecLimEx384_6_queueCompressState@Base 4.2.0
 nfaExecLimEx384_6_queueInitState@Base 4.2.0
 nfaExecLimEx384_6_reportCurrent@Base 4.2.0
 nfaExecLimEx384_6_testEOD@Base 4.2.0
 nfaExecLimEx384_6_zombie_status@Base 4.2.0
 nfaExecLimEx384_7_B_Reverse@Base 4.2.0
 nfaExecLimEx384_7_Q2@Base 4.2.0
 nfaExecLimEx384_7_Q@Base 4.2.0
 nfaExecLimEx384_7_QR@Base 4.2.0
 nfaExecLimEx384_7_expandState@Base 4.2.0
 nfaExecLimEx384_7_inAccept@Base 4.2.0
 nfaExecLimEx384_7_initCompressedState@Base 4.2.0
 nfaExecLimEx384_7_queueCompressState@Base 4.2.0
 nfaExecLimEx384_7_queueInitState@Base 4.2.0
 nfaExecLimEx384_7_reportCurrent@Base 4.2.0
 nfaExecLimEx384_7_testEOD@Base 4.2.0
 nfaExecLimEx384_7_zombie_status@Base 4.2.0
 nfaExecLimEx512_1_B_Reverse@Base 4.2.0
 nfaExecLimEx512_1_Q2@Base 4.2.0
 nfaExecLimEx512_1_Q@Base 4.2.0
 nfaExecLimEx512_1_QR@Base 4.2.0
 nfaExecLimEx512_1_expandState@Base 4.2.0
 nfaExecLimEx512_1_inAccept@Base 4.2.0
 nfaExecLimEx512_1_initCompressedState@Base 4.2.0
 nfaExecLimEx512_1_queueCompressState@Base 4.2.0
 nfaExecLimEx512_1_queueInitState@Base 4.2.0
 nfaExecLimEx512_1_reportCurrent@Base 4.2.0
 nfaExecLimEx512_1_testEOD@Base 4.2.0
 nfaExecLimEx512_1_zombie_status@Base 4.2.0
 nfaExecLimEx512_2_B_Reverse@Base 4.2.0
 nfaExecLimEx512_2_Q2@Base 4.2.0
 nfaExecLimEx512_2_Q@Base 4.2.0
 nfaExecLimEx512_2_QR@Base 4.2.0
 nfaExecLimEx512_2_expandState@Base 4.2.0
 nfaExecLimEx512_2_inAccept@Base 4.2.0
 nfaExecLimEx512_2_initCompressedState@Base 4.2.0
 nfaExecLimEx512_2_queueCompressState@Base 4.2.0
 nfaExecLimEx512_2_queueInitState@Base 4.2.0
 nfaExecLimEx512_2_reportCurrent@Base 4.2.0
 nfaExecLimEx512_2_testEOD@Base 4.2.0
 nfaExecLimEx512_2_zombie_status@Base 4.2.0
 nfaExecLimEx512_3_B_Reverse@Base 4.2.0
 nfaExecLimEx512_3_Q2@Base 4.2.0
 nfaExecLimEx512_3_Q@Base 4.2.0
 nfaExecLimEx512_3_QR@Base 4.2.0
 nfaExecLimEx512_3_expandState@Base 4.2.0
 nfaExecLimEx512_3_inAccept@Base 4.2.0
 nfaExecLimEx512_3_initCompressedState@Base 4.2.0
 nfaExecLimEx512_3_queueCompressState@Base 4.2.0
 nfaExecLimEx512_3_queueInitState@Base 4.2.0
 nfaExecLimEx512_3_reportCurrent@Base 4.2.0
 nfaExecLimEx512_3_testEOD@Base 4.2.0
 nfaExecLimEx512_3_zombie_status@Base 4.2.0
 nfaExecLimEx512_4_B_Reverse@Base 4.2.0
 nfaExecLimEx512_4_Q2@Base 4.2.0
 nfaExecLimEx512_4_Q@Base 4.2.0
 nfaExecLimEx512_4_QR@Base 4.2.0
 nfaExecLimEx512_4_expandState@Base 4.2.0
 nfaExecLimEx512_4_inAccept@Base 4.2.0
 nfaExecLimEx512_4_initCompressedState@Base 4.2.0
 nfaExecLimEx512_4_queueCompressState@Base 4.2.0
 nfaExecLimEx512_4_queueInitState@Base 4.2.0
 nfaExecLimEx512_4_reportCurrent@Base 4.2.0
 nfaExecLimEx512_4_testEOD@Base 4.2.0
 nfaExecLimEx512_4_zombie_status@Base 4.2.0
 nfaExecLimEx512_5_B_Reverse@Base 4.2.0
 nfaExecLimEx512_5_Q2@Base 4.2.0
 nfaExecLimEx512_5_Q@Base 4.2.0
 nfaExecLimEx512_5_QR@Base 4.2.0
 nfaExecLimEx512_5_expandState@Base 4.2.0
 nfaExecLimEx512_5_inAccept@Base 4.2.0
 nfaExecLimEx512_5_initCompressedState@Base 4.2.0
 nfaExecLimEx512_5_queueCompressState@Base 4.2.0
 nfaExecLimEx512_5_queueInitState@Base 4.2.0
 nfaExecLimEx512_5_reportCurrent@Base 4.2.0
 nfaExecLimEx512_5_testEOD@Base 4.2.0
 nfaExecLimEx512_5_zombie_status@Base 4.2.0
 nfaExecLimEx512_6_B_Reverse@Base 4.2.0
 nfaExecLimEx512_6_Q2@Base 4.2.0
 nfaExecLimEx512_6_Q@Base 4.2.0
 nfaExecLimEx512_6_QR@Base 4.2.0
 nfaExecLimEx512_6_expandState@Base 4.2.0
 nfaExecLimEx512_6_inAccept@Base 4.2.0
 nfaExecLimEx512_6_initCompressedState@Base 4.2.0
 nfaExecLimEx512_6_queueCompressState@Base 4.2.0
 nfaExecLimEx512_6_queueInitState@Base 4.2.0
 nfaExecLimEx512_6_reportCurrent@Base 4.2.0
 nfaExecLimEx512_6_testEOD@Base 4.2.0
 nfaExecLimEx512_6_zombie_status@Base 4.2.0
 nfaExecLimEx512_7_B_Reverse@Base 4.2.0
 nfaExecLimEx512_7_Q2@Base 4.2.0
 nfaExecLimEx512_7_Q@Base 4.2.0
 nfaExecLimEx512_7_QR@Base 4.2.0
 nfaExecLimEx512_7_expandState@Base 4.2.0
 nfaExecLimEx512_7_inAccept@Base 4.2.0
 nfaExecLimEx512_7_initCompressedState@Base 4.2.0
 nfaExecLimEx512_7_queueCompressState@Base 4.2.0
 nfaExecLimEx512_7_queueInitState@Base 4.2.0
 nfaExecLimEx512_7_reportCurrent@Base 4.2.0
 nfaExecLimEx512_7_testEOD@Base 4.2.0
 nfaExecLimEx512_7_zombie_status@Base 4.2.0
 nfaExecMcClellan16_B@Base 4.2.0
 nfaExecMcClellan16_Q2@Base 4.2.0
 nfaExecMcClellan16_Q@Base 4.2.0
 nfaExecMcClellan16_QR@Base 4.2.0
 nfaExecMcClellan16_SimpStream@Base 4.2.0
 nfaExecMcClellan16_expandState@Base 4.2.0
 nfaExecMcClellan16_inAccept@Base 4.2.0
 nfaExecMcClellan16_initCompressedState@Base 4.2.0
 nfaExecMcClellan16_queueCompressState@Base 4.2.0
 nfaExecMcClellan16_queueInitState@Base 4.2.0
 nfaExecMcClellan16_reportCurrent@Base 4.2.0
 nfaExecMcClellan16_testEOD@Base 4.2.0
 nfaExecMcClellan8_B@Base 4.2.0
 nfaExecMcClellan8_Q2@Base 4.2.0
 nfaExecMcClellan8_Q@Base 4.2.0
 nfaExecMcClellan8_QR@Base 4.2.0
 nfaExecMcClellan8_SimpStream@Base 4.2.0
 nfaExecMcClellan8_expandState@Base 4.2.0
 nfaExecMcClellan8_inAccept@Base 4.2.0
 nfaExecMcClellan8_initCompressedState@Base 4.2.0
 nfaExecMcClellan8_queueCompressState@Base 4.2.0
 nfaExecMcClellan8_queueInitState@Base 4.2.0
 nfaExecMcClellan8_reportCurrent@Base 4.2.0
 nfaExecMcClellan8_testEOD@Base 4.2.0
 nfaExecMpv0_Q@Base 4.2.0
 nfaExecMpv0_QueueExecRaw@Base 4.2.0
 nfaExecMpv0_expandState@Base 4.2.0
 nfaExecMpv0_initCompressedState@Base 4.2.0
 nfaExecMpv0_queueCompressState@Base 4.2.0
 nfaExecMpv0_queueInitState@Base 4.2.0
 nfaExecMpv0_reportCurrent@Base 4.2.0
 nfaExpandState@Base 4.2.0
 nfaGetZombieStatus@Base 4.2.0
 nfaInAcceptState@Base 4.2.0
 nfaInitCompressedState@Base 4.2.0
 nfaQueueCompressState@Base 4.2.0
 nfaQueueExec@Base 4.2.0
 nfaQueueExecRose@Base 4.2.0
 nfaQueueExecToMatch@Base 4.2.0
 nfaQueueInitState@Base 4.2.0
 nfaReportCurrentMatches@Base 4.2.0
 noodExec@Base 4.2.0
 noodExecStreaming@Base 4.2.0
 p_mask_arr@Base 4.2.0
 repeatHasMatchBitmap@Base 4.2.0
 repeatHasMatchRange@Base 4.2.0
 repeatHasMatchRing@Base 4.2.0
 repeatHasMatchSparseOptimalP@Base 4.2.0
 repeatHasMatchTrailer@Base 4.2.0
 repeatLastTopBitmap@Base 4.2.0
 repeatLastTopRange@Base 4.2.0
 repeatLastTopRing@Base 4.2.0
 repeatLastTopSparseOptimalP@Base 4.2.0
 repeatLastTopTrailer@Base 4.2.0
 repeatNextMatchBitmap@Base 4.2.0
 repeatNextMatchRange@Base 4.2.0
 repeatNextMatchRing@Base 4.2.0
 repeatNextMatchSparseOptimalP@Base 4.2.0
 repeatNextMatchTrailer@Base 4.2.0
 repeatPack@Base 4.2.0
 repeatStoreBitmap@Base 4.2.0
 repeatStoreRange@Base 4.2.0
 repeatStoreRing@Base 4.2.0
 repeatStoreSparseOptimalP@Base 4.2.0
 repeatStoreTrailer@Base 4.2.0
 repeatUnpack@Base 4.2.0
 roseAnchoredCallback@Base 4.2.0
 roseBlockEodExec@Base 4.2.0
 roseBlockExec_i@Base 4.2.0
 roseCallback@Base 4.2.0
 roseCatchUpAll@Base 4.2.0
 roseCatchUpMPV_i@Base 4.2.0
 roseCatchUpSuf@Base 4.2.0
 roseDelayRebuildCallback@Base 4.2.0
 roseEodExec@Base 4.2.0
 roseHandleChainMatch@Base 4.2.0
 roseInitState@Base 4.2.0
 roseNfaAdaptor@Base 4.2.0
 roseNfaSomAdaptor@Base 4.2.0
 rosePureLiteralCallback@Base 4.2.0
 roseReportAdaptor@Base 4.2.0
 roseReportSomAdaptor@Base 4.2.0
 roseRunBoundaryProgram@Base 4.2.0
 roseStreamExec@Base 4.2.0
 rshuftiExec@Base 4.2.0
 rtruffleExec@Base 4.2.0
 run_accel@Base 4.2.0
 setSomFromSomAware@Base 4.2.0
 shift_shuftiExec@Base 4.2.0
 shift_truffleExec@Base 4.2.0
 shift_vermicelliExec@Base 4.2.0
 shiftgrab_shuftiExec@Base 4.2.0
 shiftgrab_truffleExec@Base 4.2.0
 shiftgrab_vermicelliExec@Base 4.2.0
 shuftiDoubleExec@Base 4.2.0
 shuftiExec@Base 4.2.0
 storeSomToStream@Base 4.2.0
 storecompressed128@Base 4.2.0
 storecompressed256@Base 4.2.0
 storecompressed32@Base 4.2.0
 storecompressed384@Base 4.2.0
 storecompressed512@Base 4.2.0
 storecompressed64@Base 4.2.0
 streamInitSufPQ@Base 4.2.0
 truffleExec@Base 4.2.0
 vbs_mask_data@Base 4.2.0
